
Seekfree_CH32V103R8T6_Opensource_Library.elf:     file format elf32-littleriscv
Seekfree_CH32V103R8T6_Opensource_Library.elf
architecture: riscv:rv32, flags 0x00000112:
EXEC_P, HAS_SYMS, D_PAGED
start address 0x00000000

Program Header:
    LOAD off    0x00001000 vaddr 0x00000000 paddr 0x00000000 align 2**12
         filesz 0x000041dc memsz 0x000041dc flags r-x
    LOAD off    0x00006000 vaddr 0x20000000 paddr 0x000041dc align 2**12
         filesz 0x00000020 memsz 0x00000068 flags rw-
    LOAD off    0x00006800 vaddr 0x20004800 paddr 0x20004800 align 2**12
         filesz 0x00000000 memsz 0x00000800 flags rw-

Sections:
Idx Name           Size      VMA       LMA       File off  Algn  Flags
  0 .init          00000038  00000000  00000000  00001000  2**1  CONTENTS, ALLOC, LOAD, READONLY, CODE
  1 .vector        00000108  00000038  00000038  00001038  2**1  CONTENTS, ALLOC, LOAD, READONLY, CODE
  2 .text          0000409c  00000140  00000140  00001140  2**2  CONTENTS, ALLOC, LOAD, READONLY, CODE
  3 .fini          00000000  000041dc  000041dc  00006020  2**0  CONTENTS, ALLOC, LOAD, CODE
  4 .dalign        00000000  20000000  20000000  00006020  2**0  CONTENTS
  5 .dlalign       00000000  000041dc  000041dc  00006020  2**0  CONTENTS
  6 .data          00000020  20000000  000041dc  00006000  2**2  CONTENTS, ALLOC, LOAD, DATA
  7 .bss           00000048  20000020  000041fc  00006020  2**2  ALLOC
  8 .stack         00000800  20004800  20004800  00006800  2**0  ALLOC
  9 .debug_line    0000d7ed  00000000  00000000  00006020  2**0  CONTENTS, READONLY, DEBUGGING
 10 .debug_info    00015696  00000000  00000000  0001380d  2**0  CONTENTS, READONLY, DEBUGGING
 11 .debug_abbrev  000035d6  00000000  00000000  00028ea3  2**0  CONTENTS, READONLY, DEBUGGING
 12 .debug_aranges 00000c20  00000000  00000000  0002c480  2**3  CONTENTS, READONLY, DEBUGGING
 13 .debug_str     00004762  00000000  00000000  0002d0a0  2**0  CONTENTS, READONLY, DEBUGGING
 14 .debug_ranges  00000a80  00000000  00000000  00031808  2**3  CONTENTS, READONLY, DEBUGGING
 15 .comment       00000033  00000000  00000000  00032288  2**0  CONTENTS, READONLY
 16 .debug_frame   00002a48  00000000  00000000  000322bc  2**2  CONTENTS, READONLY, DEBUGGING
 17 .stabstr       00000183  00000000  00000000  00034d04  2**0  CONTENTS, READONLY, DEBUGGING
SYMBOL TABLE:
00000000 l    d  .init	00000000 .init
00000038 l    d  .vector	00000000 .vector
00000140 l    d  .text	00000000 .text
000041dc l    d  .fini	00000000 .fini
20000000 l    d  .dalign	00000000 .dalign
000041dc l    d  .dlalign	00000000 .dlalign
20000000 l    d  .data	00000000 .data
20000020 l    d  .bss	00000000 .bss
20004800 l    d  .stack	00000000 .stack
00000000 l    d  .debug_line	00000000 .debug_line
00000000 l    d  .debug_info	00000000 .debug_info
00000000 l    d  .debug_abbrev	00000000 .debug_abbrev
00000000 l    d  .debug_aranges	00000000 .debug_aranges
00000000 l    d  .debug_str	00000000 .debug_str
00000000 l    d  .debug_ranges	00000000 .debug_ranges
00000000 l    d  .comment	00000000 .comment
00000000 l    d  .debug_frame	00000000 .debug_frame
00000000 l    d  .stabstr	00000000 .stabstr
00000000 l    df *ABS*	00000000 ./wch_Libraries/Startup/startup_ch32v10x.o
00000038 l       .vector	00000000 _vector_base
00000000 l    df *ABS*	00000000 ch32v10x_dma.c
00000000 l    df *ABS*	00000000 ch32v10x_exti.c
00000000 l    df *ABS*	00000000 ch32v10x_gpio.c
00000000 l    df *ABS*	00000000 ch32v10x_rcc.c
20000000 l     O .data	00000010 APBAHBPrescTable
20000010 l     O .data	00000004 ADCPrescTable
00000000 l    df *ABS*	00000000 ch32v10x_tim.c
00000000 l    df *ABS*	00000000 ch32v10x_usart.c
00000000 l    df *ABS*	00000000 SEEKFREE_BLUETOOTH_CH9141.c
00000000 l    df *ABS*	00000000 SEEKFREE_MT9V03X.c
00000000 l    df *ABS*	00000000 SEEKFREE_UART_7725.c
00000000 l    df *ABS*	00000000 SEEKFREE_WIRELESS.c
00000000 l    df *ABS*	00000000 board.c
00000000 l    df *ABS*	00000000 clock_config.c
00001cee l     F .text	00000140 SetSysClock
00000000 l    df *ABS*	00000000 zf_gpio.c
00000000 l    df *ABS*	00000000 zf_nvic.c
00000000 l    df *ABS*	00000000 zf_pwm.c
00000000 l    df *ABS*	00000000 zf_systick.c
00000000 l    df *ABS*	00000000 zf_uart.c
00000000 l    df *ABS*	00000000 zf_usb_cdc.c
00000000 l    df *ABS*	00000000 isr.c
00000000 l    df *ABS*	00000000 main.c
00000000 l    df *ABS*	00000000 memcpy.c
00000000 l    df *ABS*	00000000 strncmp.c
00000000 l    df *ABS*	00000000 zf_timer.c
00000000 l    df *ABS*	00000000 ch32v10x_usb.c
00000000 l    df *ABS*	00000000 common.c
00000000 l    df *ABS*	00000000 close.c
00003620 g     F .text	00000024 EXTI2_IRQHandler
20000034 g     O .bss	00000004 wireless_type
00001aa6 g     F .text	0000004a bluetooth_ch9141_check_response
00002b34 g     F .text	00000a72 USB_DevTransProcess
20000810 g       .data	00000000 __global_pointer$
00003886 g     F .text	00000090 TIM1_CC_IRQHandler
00003aaa g     F .text	00000008 HardFault_Handler
2000002f g     O .bss	00000001 wireless_rx_buffer
00003ab2 g     F .text	000001dc TIM1_Dead_Time_Init
000012fe g     F .text	0000004c TIM_OC1PreloadConfig
20000038 g     O .bss	00000004 sys_clk
00003a9a g     F .text	00000010 NMI_Handler
00003644 g     F .text	00000024 EXTI3_IRQHandler
20000030 g     O .bss	00000004 camera_type
00004044 g     O .text	00000010 TIMERN
20000020 g       .bss	00000000 _sbss
00000800 g       *ABS*	00000000 __stack_size
00002490 g     F .text	000003c2 timer_pwm_init
20000028 g     O .bss	00000001 uart_flag
00000140 g       .text	00000000 interrupt_disable
2000002e g     O .bss	00000001 ov7725_uart_finish_flag
00004064 g     O .text	00000012 MyDevDescr
00001244 g     F .text	00000060 TIM_CtrlPWMOutputs
00003e1c g     F .text	000000b6 memcpy
00000624 g     F .text	0000013c GPIO_PinRemapConfig
000035ba g     F .text	00000024 EXTI0_IRQHandler
2000003e g     O .bss	00000002 SetupReqLen
000011ec g     F .text	00000058 TIM_Cmd
000013f0 g     F .text	0000005a TIM_OC4PreloadConfig
00000038 g       .init	00000000 _einit
000015fe g     F .text	0000002e TIM_ClearITPendingBit
0000097a g     F .text	00000046 RCC_APB2PeriphClockCmd
00001af0 g     F .text	0000005c mt9v03x_vsync
000037ba g     F .text	00000010 ADC1_2_IRQHandler
000003c2 g     F .text	0000022a GPIO_Init
20000040 g     O .bss	00000001 USBByteCount
2000003d g     O .bss	00000001 SetupReqCode
00001860 g     F .text	00000060 USART_Cmd
2000001c g     O .data	00000004 MyLangDescr
00000e6c g     F .text	000001b0 TIM_OC3Init
000019c2 g     F .text	0000004e USART_ClearITPendingBit
000009c0 g     F .text	00000046 RCC_APB1PeriphClockCmd
00004078 g     O .text	00000043 MyCfgDescr
00003a58 g     F .text	00000042 DMA1_Channel4_IRQHandler
000014ec g     F .text	0000004c TIM_OC3FastConfig
000040d0 g     O .text	0000000e MyManuInfo
000001ca g     F .text	0000005c DMA_GetFlagStatus
2000002a g     O .bss	00000001 at_mode
00003a24 g     F .text	00000034 USART3_IRQHandler
000002b4 g     F .text	00000020 EXTI_ClearITPendingBit
20000068 g       .bss	00000000 _ebss
000018c0 g     F .text	00000102 USART_GetITStatus
00000b46 g     F .text	00000170 TIM_OC1Init
000013a4 g     F .text	0000004c TIM_OC3PreloadConfig
20000044 g     O .bss	00000004 pDescr
00002160 g     F .text	00000330 timer_pwm_gpio_init
00002852 g     F .text	00000094 systick_delay
20000029 g     O .bss	00000001 uart_data
00004054 g     O .text	00000010 UARTN
0000396e g     F .text	00000030 TIM4_IRQHandler
2000002c g     O .bss	00000001 at_mode_cmd_flag
000012a4 g     F .text	0000005a TIM_ARRPreloadConfig
000005ec g     F .text	00000038 GPIO_WriteBit
20000068 g       .bss	00000000 end
20000014 g     O .data	00000007 LineCoding
0000158e g     F .text	00000070 TIM_GetITStatus
000035a6 g     F .text	00000014 USBHD_IRQHandler
00000760 g     F .text	0000021a RCC_GetClocksFreq
000029d2 g     F .text	00000104 uart_init
0000162c g     F .text	00000234 USART_Init
000020cc g     F .text	00000056 gpio_get
0000393e g     F .text	00000030 TIM3_IRQHandler
0000213a g     F .text	00000026 EnableGlobalIRQ
000028e6 g     F .text	000000ec uart_gpio_init
0000382e g     F .text	00000058 TIM1_TRG_COM_IRQHandler
0000144a g     F .text	0000004c TIM_OC1FastConfig
00001bfe g     F .text	00000056 ov7725_uart_dma
00000000 g       .init	00000000 _start
0000134a g     F .text	0000005a TIM_OC2PreloadConfig
0000371c g     F .text	0000009e EXTI15_10_IRQHandler
00004034 g     O .text	00000010 GPION
00002ad6 g     F .text	0000005e uart_query
00000cb6 g     F .text	000001b6 TIM_OC2Init
00003ed2 g     F .text	0000002c strncmp
20000024 g     O .bss	00000004 pEP2_RAM_Addr
20000048 g     O .bss	0000001e at_mode_data
20000000 g       .dalign	00000000 _data_vma
0000101c g     F .text	0000014a TIM_OC4Init
0000368c g     F .text	00000090 EXTI9_5_IRQHandler
00001c7a g     F .text	00000074 board_init
0000025e g     F .text	00000056 EXTI_GetITStatus
20000020 g     O .bss	00000004 pEP0_RAM_Addr
00001b4c g     F .text	00000056 mt9v03x_dma
00003c8e g     F .text	0000018e main
00001496 g     F .text	00000056 TIM_OC2FastConfig
00003668 g     F .text	00000024 EXTI4_IRQHandler
000040e0 g     O .text	0000000c MyProdInfo
00002122 g     F .text	00000018 DisableGlobalIRQ
00001e2e g     F .text	0000007c SystemInit
000002d4 g     F .text	000000ee GPIO_DeInit
00000000 g       .init	00000000 _sinit
000037fe g     F .text	00000030 TIM1_UP_IRQHandler
00001ba2 g     F .text	0000005c ov7725_uart_vsync
00003916 g     F .text	00000028 TIM2_IRQHandler
20005000 g       .stack	00000000 _eusrstack
00001a10 g     F .text	00000096 bluetooth_ch9141_uart_callback
2000002d g     O .bss	00000001 mt9v03x_finish_flag
000037ca g     F .text	00000034 TIM1_BRK_IRQHandler
000035de g     F .text	00000042 EXTI1_IRQHandler
20000020 g       .data	00000000 _edata
00001c54 g     F .text	00000026 wireless_uart_callback
00000a4c g     F .text	000000fa TIM_TimeBaseInit
000041dc g       .dlalign	00000000 _data_lma
2000002b g     O .bss	00000001 at_mode_num
000039f0 g     F .text	00000034 USART2_IRQHandler
000040bc g     O .text	00000014 MyProductIDInfo
00000226 g     F .text	00000038 DMA_ClearFlag
00001166 g     F .text	00000086 TIM_BDTRConfig
0000014c  w      .text	00000000 handle_reset
0000399e g     F .text	00000052 USART1_IRQHandler
00000146 g       .text	00000000 interrupt_enable
2000003c g     O .bss	00000001 UsbConfig
00000a06 g     F .text	00000046 RCC_APB2PeriphResetCmd
0000204e g     F .text	0000007e gpio_set
00001eaa g     F .text	000001a4 gpio_init
00001538 g     F .text	00000056 TIM_OC4FastConfig



Disassembly of section .init:

00000000 <_sinit>:
_start():
C:/Users/Accepted/Documents/smart_car/Seekfree_CH32V103R8T6_Opensource_Library/Libraries/wch_Libraries/Startup/startup_ch32v10x.S:13

	.section	.init,"ax",@progbits
	.global	_start
	.align	1
_start:
	j	handle_reset
   0:	14c0006f          	j	14c <handle_reset>
   4:	00000013          	nop
   8:	00000013          	nop
   c:	00000013          	nop
  10:	00000013          	nop
  14:	00000013          	nop
  18:	00000013          	nop
  1c:	00000013          	nop
  20:	00000013          	nop
  24:	00000013          	nop
  28:	00000013          	nop
  2c:	00000013          	nop
  30:	00000013          	nop
  34:	00100073          	ebreak

Disassembly of section .vector:

00000038 <_vector_base>:
_vector_base():
C:/Users/Accepted/Documents/smart_car/Seekfree_CH32V103R8T6_Opensource_Library/Libraries/wch_Libraries/Startup/startup_ch32v10x.S:31
	.word 0x00100073
    .section    .vector,"ax",@progbits
    .align  1
_vector_base:
    .option norvc;
        j   _start
  38:	fc9ff06f          	j	0 <_sinit>
  3c:	0000                	unimp
  3e:	0000                	unimp
C:/Users/Accepted/Documents/smart_car/Seekfree_CH32V103R8T6_Opensource_Library/Libraries/wch_Libraries/Startup/startup_ch32v10x.S:33
    .word   0
        j   NMI_Handler                 /* NMI Handler */
  40:	25b0306f          	j	3a9a <NMI_Handler>
C:/Users/Accepted/Documents/smart_car/Seekfree_CH32V103R8T6_Opensource_Library/Libraries/wch_Libraries/Startup/startup_ch32v10x.S:34
        j   HardFault_Handler           /* Hard Fault Handler */
  44:	2670306f          	j	3aaa <HardFault_Handler>
	...
C:/Users/Accepted/Documents/smart_car/Seekfree_CH32V103R8T6_Opensource_Library/Libraries/wch_Libraries/Startup/startup_ch32v10x.S:43
    .word   0
    .word   0
    .word   0
    .word   0
    .word   0
        j   SysTick_Handler            /* SysTick Handler */
  68:	f99ff06f          	j	0 <_sinit>
  6c:	0000                	unimp
  6e:	0000                	unimp
C:/Users/Accepted/Documents/smart_car/Seekfree_CH32V103R8T6_Opensource_Library/Libraries/wch_Libraries/Startup/startup_ch32v10x.S:45
    .word   0
        j   SW_handler                 /* SW Handler */
  70:	f91ff06f          	j	0 <_sinit>
  74:	0000                	unimp
  76:	0000                	unimp
C:/Users/Accepted/Documents/smart_car/Seekfree_CH32V103R8T6_Opensource_Library/Libraries/wch_Libraries/Startup/startup_ch32v10x.S:48
    .word   0
    /* External Interrupts */
        j   WWDG_IRQHandler            /* Window Watchdog */
  78:	f89ff06f          	j	0 <_sinit>
C:/Users/Accepted/Documents/smart_car/Seekfree_CH32V103R8T6_Opensource_Library/Libraries/wch_Libraries/Startup/startup_ch32v10x.S:49
        j   PVD_IRQHandler             /* PVD through EXTI Line detect */
  7c:	f85ff06f          	j	0 <_sinit>
C:/Users/Accepted/Documents/smart_car/Seekfree_CH32V103R8T6_Opensource_Library/Libraries/wch_Libraries/Startup/startup_ch32v10x.S:50
        j   TAMPER_IRQHandler          /* TAMPER */
  80:	f81ff06f          	j	0 <_sinit>
C:/Users/Accepted/Documents/smart_car/Seekfree_CH32V103R8T6_Opensource_Library/Libraries/wch_Libraries/Startup/startup_ch32v10x.S:51
        j   RTC_IRQHandler             /* RTC */
  84:	f7dff06f          	j	0 <_sinit>
C:/Users/Accepted/Documents/smart_car/Seekfree_CH32V103R8T6_Opensource_Library/Libraries/wch_Libraries/Startup/startup_ch32v10x.S:52
        j   FLASH_IRQHandler           /* Flash */
  88:	f79ff06f          	j	0 <_sinit>
C:/Users/Accepted/Documents/smart_car/Seekfree_CH32V103R8T6_Opensource_Library/Libraries/wch_Libraries/Startup/startup_ch32v10x.S:53
        j   RCC_IRQHandler             /* RCC */
  8c:	f75ff06f          	j	0 <_sinit>
C:/Users/Accepted/Documents/smart_car/Seekfree_CH32V103R8T6_Opensource_Library/Libraries/wch_Libraries/Startup/startup_ch32v10x.S:54
        j   EXTI0_IRQHandler           /* EXTI Line 0 */
  90:	52a0306f          	j	35ba <EXTI0_IRQHandler>
C:/Users/Accepted/Documents/smart_car/Seekfree_CH32V103R8T6_Opensource_Library/Libraries/wch_Libraries/Startup/startup_ch32v10x.S:55
        j   EXTI1_IRQHandler           /* EXTI Line 1 */
  94:	54a0306f          	j	35de <EXTI1_IRQHandler>
C:/Users/Accepted/Documents/smart_car/Seekfree_CH32V103R8T6_Opensource_Library/Libraries/wch_Libraries/Startup/startup_ch32v10x.S:56
        j   EXTI2_IRQHandler           /* EXTI Line 2 */
  98:	5880306f          	j	3620 <EXTI2_IRQHandler>
C:/Users/Accepted/Documents/smart_car/Seekfree_CH32V103R8T6_Opensource_Library/Libraries/wch_Libraries/Startup/startup_ch32v10x.S:57
        j   EXTI3_IRQHandler           /* EXTI Line 3 */
  9c:	5a80306f          	j	3644 <EXTI3_IRQHandler>
C:/Users/Accepted/Documents/smart_car/Seekfree_CH32V103R8T6_Opensource_Library/Libraries/wch_Libraries/Startup/startup_ch32v10x.S:58
        j   EXTI4_IRQHandler           /* EXTI Line 4 */
  a0:	5c80306f          	j	3668 <EXTI4_IRQHandler>
C:/Users/Accepted/Documents/smart_car/Seekfree_CH32V103R8T6_Opensource_Library/Libraries/wch_Libraries/Startup/startup_ch32v10x.S:59
        j   DMA1_Channel1_IRQHandler   /* DMA1 Channel 1 */
  a4:	f5dff06f          	j	0 <_sinit>
C:/Users/Accepted/Documents/smart_car/Seekfree_CH32V103R8T6_Opensource_Library/Libraries/wch_Libraries/Startup/startup_ch32v10x.S:60
        j   DMA1_Channel2_IRQHandler   /* DMA1 Channel 2 */
  a8:	f59ff06f          	j	0 <_sinit>
C:/Users/Accepted/Documents/smart_car/Seekfree_CH32V103R8T6_Opensource_Library/Libraries/wch_Libraries/Startup/startup_ch32v10x.S:61
        j   DMA1_Channel3_IRQHandler   /* DMA1 Channel 3 */
  ac:	f55ff06f          	j	0 <_sinit>
C:/Users/Accepted/Documents/smart_car/Seekfree_CH32V103R8T6_Opensource_Library/Libraries/wch_Libraries/Startup/startup_ch32v10x.S:62
        j   DMA1_Channel4_IRQHandler   /* DMA1 Channel 4 */
  b0:	1a90306f          	j	3a58 <DMA1_Channel4_IRQHandler>
C:/Users/Accepted/Documents/smart_car/Seekfree_CH32V103R8T6_Opensource_Library/Libraries/wch_Libraries/Startup/startup_ch32v10x.S:63
        j   DMA1_Channel5_IRQHandler   /* DMA1 Channel 5 */
  b4:	f4dff06f          	j	0 <_sinit>
C:/Users/Accepted/Documents/smart_car/Seekfree_CH32V103R8T6_Opensource_Library/Libraries/wch_Libraries/Startup/startup_ch32v10x.S:64
        j   DMA1_Channel6_IRQHandler   /* DMA1 Channel 6 */
  b8:	f49ff06f          	j	0 <_sinit>
C:/Users/Accepted/Documents/smart_car/Seekfree_CH32V103R8T6_Opensource_Library/Libraries/wch_Libraries/Startup/startup_ch32v10x.S:65
        j   DMA1_Channel7_IRQHandler   /* DMA1 Channel 7 */
  bc:	f45ff06f          	j	0 <_sinit>
C:/Users/Accepted/Documents/smart_car/Seekfree_CH32V103R8T6_Opensource_Library/Libraries/wch_Libraries/Startup/startup_ch32v10x.S:66
        j   ADC1_2_IRQHandler          /* ADC1_2 */
  c0:	6fa0306f          	j	37ba <ADC1_2_IRQHandler>
	...
C:/Users/Accepted/Documents/smart_car/Seekfree_CH32V103R8T6_Opensource_Library/Libraries/wch_Libraries/Startup/startup_ch32v10x.S:71
        .word   0
        .word   0
        .word   0
        .word   0
        j   EXTI9_5_IRQHandler         /* EXTI Line 9..5 */
  d4:	5b80306f          	j	368c <EXTI9_5_IRQHandler>
C:/Users/Accepted/Documents/smart_car/Seekfree_CH32V103R8T6_Opensource_Library/Libraries/wch_Libraries/Startup/startup_ch32v10x.S:72
        j   TIM1_BRK_IRQHandler        /* TIM1 Break */
  d8:	6f20306f          	j	37ca <TIM1_BRK_IRQHandler>
C:/Users/Accepted/Documents/smart_car/Seekfree_CH32V103R8T6_Opensource_Library/Libraries/wch_Libraries/Startup/startup_ch32v10x.S:73
        j   TIM1_UP_IRQHandler         /* TIM1 Update */
  dc:	7220306f          	j	37fe <TIM1_UP_IRQHandler>
C:/Users/Accepted/Documents/smart_car/Seekfree_CH32V103R8T6_Opensource_Library/Libraries/wch_Libraries/Startup/startup_ch32v10x.S:74
        j   TIM1_TRG_COM_IRQHandler    /* TIM1 Trigger and Commutation */
  e0:	74e0306f          	j	382e <TIM1_TRG_COM_IRQHandler>
C:/Users/Accepted/Documents/smart_car/Seekfree_CH32V103R8T6_Opensource_Library/Libraries/wch_Libraries/Startup/startup_ch32v10x.S:75
        j   TIM1_CC_IRQHandler         /* TIM1 Capture Compare */
  e4:	7a20306f          	j	3886 <TIM1_CC_IRQHandler>
C:/Users/Accepted/Documents/smart_car/Seekfree_CH32V103R8T6_Opensource_Library/Libraries/wch_Libraries/Startup/startup_ch32v10x.S:76
        j   TIM2_IRQHandler            /* TIM2 */
  e8:	02f0306f          	j	3916 <TIM2_IRQHandler>
C:/Users/Accepted/Documents/smart_car/Seekfree_CH32V103R8T6_Opensource_Library/Libraries/wch_Libraries/Startup/startup_ch32v10x.S:77
        j   TIM3_IRQHandler            /* TIM3 */
  ec:	0530306f          	j	393e <TIM3_IRQHandler>
C:/Users/Accepted/Documents/smart_car/Seekfree_CH32V103R8T6_Opensource_Library/Libraries/wch_Libraries/Startup/startup_ch32v10x.S:78
        j   TIM4_IRQHandler            /* TIM4 */
  f0:	07f0306f          	j	396e <TIM4_IRQHandler>
C:/Users/Accepted/Documents/smart_car/Seekfree_CH32V103R8T6_Opensource_Library/Libraries/wch_Libraries/Startup/startup_ch32v10x.S:79
        j   I2C1_EV_IRQHandler         /* I2C1 Event */
  f4:	f0dff06f          	j	0 <_sinit>
C:/Users/Accepted/Documents/smart_car/Seekfree_CH32V103R8T6_Opensource_Library/Libraries/wch_Libraries/Startup/startup_ch32v10x.S:80
        j   I2C1_ER_IRQHandler         /* I2C1 Error */
  f8:	f09ff06f          	j	0 <_sinit>
C:/Users/Accepted/Documents/smart_car/Seekfree_CH32V103R8T6_Opensource_Library/Libraries/wch_Libraries/Startup/startup_ch32v10x.S:81
        j   I2C2_EV_IRQHandler         /* I2C2 Event */
  fc:	f05ff06f          	j	0 <_sinit>
C:/Users/Accepted/Documents/smart_car/Seekfree_CH32V103R8T6_Opensource_Library/Libraries/wch_Libraries/Startup/startup_ch32v10x.S:82
        j   I2C2_ER_IRQHandler         /* I2C2 Error */
 100:	f01ff06f          	j	0 <_sinit>
C:/Users/Accepted/Documents/smart_car/Seekfree_CH32V103R8T6_Opensource_Library/Libraries/wch_Libraries/Startup/startup_ch32v10x.S:83
        j   SPI1_IRQHandler            /* SPI1 */
 104:	efdff06f          	j	0 <_sinit>
C:/Users/Accepted/Documents/smart_car/Seekfree_CH32V103R8T6_Opensource_Library/Libraries/wch_Libraries/Startup/startup_ch32v10x.S:84
        j   SPI2_IRQHandler            /* SPI2 */
 108:	ef9ff06f          	j	0 <_sinit>
C:/Users/Accepted/Documents/smart_car/Seekfree_CH32V103R8T6_Opensource_Library/Libraries/wch_Libraries/Startup/startup_ch32v10x.S:85
        j   USART1_IRQHandler          /* USART1 */
 10c:	0930306f          	j	399e <USART1_IRQHandler>
C:/Users/Accepted/Documents/smart_car/Seekfree_CH32V103R8T6_Opensource_Library/Libraries/wch_Libraries/Startup/startup_ch32v10x.S:86
        j   USART2_IRQHandler          /* USART2 */
 110:	0e10306f          	j	39f0 <USART2_IRQHandler>
C:/Users/Accepted/Documents/smart_car/Seekfree_CH32V103R8T6_Opensource_Library/Libraries/wch_Libraries/Startup/startup_ch32v10x.S:87
        j   USART3_IRQHandler          /* USART3 */
 114:	1110306f          	j	3a24 <USART3_IRQHandler>
C:/Users/Accepted/Documents/smart_car/Seekfree_CH32V103R8T6_Opensource_Library/Libraries/wch_Libraries/Startup/startup_ch32v10x.S:88
        j   EXTI15_10_IRQHandler       /* EXTI Line 15..10 */
 118:	6040306f          	j	371c <EXTI15_10_IRQHandler>
C:/Users/Accepted/Documents/smart_car/Seekfree_CH32V103R8T6_Opensource_Library/Libraries/wch_Libraries/Startup/startup_ch32v10x.S:89
        j   RTCAlarm_IRQHandler        /* RTC Alarm through EXTI Line */
 11c:	ee5ff06f          	j	0 <_sinit>
C:/Users/Accepted/Documents/smart_car/Seekfree_CH32V103R8T6_Opensource_Library/Libraries/wch_Libraries/Startup/startup_ch32v10x.S:90
        j   USBWakeUp_IRQHandler       /* USB Wakeup from suspend */
 120:	ee1ff06f          	j	0 <_sinit>
C:/Users/Accepted/Documents/smart_car/Seekfree_CH32V103R8T6_Opensource_Library/Libraries/wch_Libraries/Startup/startup_ch32v10x.S:91
        j   USBHD_IRQHandler           /* USBHD */
 124:	4820306f          	j	35a6 <USBHD_IRQHandler>
	...

Disassembly of section .text:

00000140 <interrupt_disable>:
interrupt_disable():
C:/Users/Accepted/Documents/smart_car/Seekfree_CH32V103R8T6_Opensource_Library/Libraries/seekfree_libraries/zf_irq.S:38
#a0 = 0x80
#mstatus中的第11 12位MPP
#00 用户模式  (U)
#01 监管者模式(S)
#11 机器模式  (M) 只有该模式允许使用SCR指令
    csrrci a0, mstatus, 0x8
     140:	30047573          	csrrci	a0,mstatus,8
C:/Users/Accepted/Documents/smart_car/Seekfree_CH32V103R8T6_Opensource_Library/Libraries/seekfree_libraries/zf_irq.S:39
    ret
     144:	8082                	ret

00000146 <interrupt_enable>:
interrupt_enable():
C:/Users/Accepted/Documents/smart_car/Seekfree_CH32V103R8T6_Opensource_Library/Libraries/seekfree_libraries/zf_irq.S:52
#							   mstatus寄存器中的MIE位置1，切换为用户模式
#-------------------------------------------------------------------------------------------------------------------
.globl interrupt_enable
interrupt_enable:
#a0为函数的第一个参数。
    csrw mstatus, a0
     146:	30051073          	csrw	mstatus,a0
C:/Users/Accepted/Documents/smart_car/Seekfree_CH32V103R8T6_Opensource_Library/Libraries/seekfree_libraries/zf_irq.S:53
    ret
     14a:	8082                	ret

0000014c <handle_reset>:
handle_reset():
C:/Users/Accepted/Documents/smart_car/Seekfree_CH32V103R8T6_Opensource_Library/Libraries/wch_Libraries/Startup/startup_ch32v10x.S:147
	.weak	handle_reset
	.align	1
handle_reset:
.option push 
.option	norelax 
	la gp, __global_pointer$
     14c:	20000197          	auipc	gp,0x20000
     150:	6c418193          	addi	gp,gp,1732 # 20000810 <__global_pointer$>
C:/Users/Accepted/Documents/smart_car/Seekfree_CH32V103R8T6_Opensource_Library/Libraries/wch_Libraries/Startup/startup_ch32v10x.S:150
.option	pop 
1:
	la sp, _eusrstack 
     154:	20005117          	auipc	sp,0x20005
     158:	eac10113          	addi	sp,sp,-340 # 20005000 <_eusrstack>
C:/Users/Accepted/Documents/smart_car/Seekfree_CH32V103R8T6_Opensource_Library/Libraries/wch_Libraries/Startup/startup_ch32v10x.S:153
2:
	/* Load data section from flash to RAM */
	la a0, _data_lma
     15c:	00004517          	auipc	a0,0x4
     160:	08050513          	addi	a0,a0,128 # 41dc <_data_lma>
C:/Users/Accepted/Documents/smart_car/Seekfree_CH32V103R8T6_Opensource_Library/Libraries/wch_Libraries/Startup/startup_ch32v10x.S:154
	la a1, _data_vma
     164:	20000597          	auipc	a1,0x20000
     168:	e9c58593          	addi	a1,a1,-356 # 20000000 <_data_vma>
C:/Users/Accepted/Documents/smart_car/Seekfree_CH32V103R8T6_Opensource_Library/Libraries/wch_Libraries/Startup/startup_ch32v10x.S:155
	la a2, _edata
     16c:	81018613          	addi	a2,gp,-2032 # 20000020 <_edata>
C:/Users/Accepted/Documents/smart_car/Seekfree_CH32V103R8T6_Opensource_Library/Libraries/wch_Libraries/Startup/startup_ch32v10x.S:156
	bgeu a1, a2, 2f
     170:	00c5fa63          	bgeu	a1,a2,184 <handle_reset+0x38>
C:/Users/Accepted/Documents/smart_car/Seekfree_CH32V103R8T6_Opensource_Library/Libraries/wch_Libraries/Startup/startup_ch32v10x.S:158
1:
	lw t0, (a0)
     174:	00052283          	lw	t0,0(a0)
C:/Users/Accepted/Documents/smart_car/Seekfree_CH32V103R8T6_Opensource_Library/Libraries/wch_Libraries/Startup/startup_ch32v10x.S:159
	sw t0, (a1)
     178:	0055a023          	sw	t0,0(a1)
C:/Users/Accepted/Documents/smart_car/Seekfree_CH32V103R8T6_Opensource_Library/Libraries/wch_Libraries/Startup/startup_ch32v10x.S:160
	addi a0, a0, 4
     17c:	0511                	addi	a0,a0,4
C:/Users/Accepted/Documents/smart_car/Seekfree_CH32V103R8T6_Opensource_Library/Libraries/wch_Libraries/Startup/startup_ch32v10x.S:161
	addi a1, a1, 4
     17e:	0591                	addi	a1,a1,4
C:/Users/Accepted/Documents/smart_car/Seekfree_CH32V103R8T6_Opensource_Library/Libraries/wch_Libraries/Startup/startup_ch32v10x.S:162
	bltu a1, a2, 1b
     180:	fec5eae3          	bltu	a1,a2,174 <handle_reset+0x28>
C:/Users/Accepted/Documents/smart_car/Seekfree_CH32V103R8T6_Opensource_Library/Libraries/wch_Libraries/Startup/startup_ch32v10x.S:165
2:
	/* clear bss section */
	la a0, _sbss
     184:	81018513          	addi	a0,gp,-2032 # 20000020 <_edata>
C:/Users/Accepted/Documents/smart_car/Seekfree_CH32V103R8T6_Opensource_Library/Libraries/wch_Libraries/Startup/startup_ch32v10x.S:166
	la a1, _ebss
     188:	85818593          	addi	a1,gp,-1960 # 20000068 <_ebss>
C:/Users/Accepted/Documents/smart_car/Seekfree_CH32V103R8T6_Opensource_Library/Libraries/wch_Libraries/Startup/startup_ch32v10x.S:167
	bgeu a0, a1, 2f
     18c:	00b57763          	bgeu	a0,a1,19a <handle_reset+0x4e>
C:/Users/Accepted/Documents/smart_car/Seekfree_CH32V103R8T6_Opensource_Library/Libraries/wch_Libraries/Startup/startup_ch32v10x.S:169
1:
	sw zero, (a0)
     190:	00052023          	sw	zero,0(a0)
C:/Users/Accepted/Documents/smart_car/Seekfree_CH32V103R8T6_Opensource_Library/Libraries/wch_Libraries/Startup/startup_ch32v10x.S:170
	addi a0, a0, 4
     194:	0511                	addi	a0,a0,4
C:/Users/Accepted/Documents/smart_car/Seekfree_CH32V103R8T6_Opensource_Library/Libraries/wch_Libraries/Startup/startup_ch32v10x.S:171
	bltu a0, a1, 1b
     196:	feb56de3          	bltu	a0,a1,190 <handle_reset+0x44>
C:/Users/Accepted/Documents/smart_car/Seekfree_CH32V103R8T6_Opensource_Library/Libraries/wch_Libraries/Startup/startup_ch32v10x.S:176
2:
	/* enable all interrupt */
#li t0, 0x88
#MPP位这是为0x03 切换为机器模式
	li t0, 0x1888
     19a:	000022b7          	lui	t0,0x2
     19e:	88828293          	addi	t0,t0,-1912 # 1888 <USART_Cmd+0x28>
C:/Users/Accepted/Documents/smart_car/Seekfree_CH32V103R8T6_Opensource_Library/Libraries/wch_Libraries/Startup/startup_ch32v10x.S:178

  csrs mstatus, t0
     1a2:	3002a073          	csrs	mstatus,t0
C:/Users/Accepted/Documents/smart_car/Seekfree_CH32V103R8T6_Opensource_Library/Libraries/wch_Libraries/Startup/startup_ch32v10x.S:179
	la t0, _vector_base
     1a6:	00000297          	auipc	t0,0x0
     1aa:	e9228293          	addi	t0,t0,-366 # 38 <_einit>
C:/Users/Accepted/Documents/smart_car/Seekfree_CH32V103R8T6_Opensource_Library/Libraries/wch_Libraries/Startup/startup_ch32v10x.S:180
  ori t0, t0, 1
     1ae:	0012e293          	ori	t0,t0,1
C:/Users/Accepted/Documents/smart_car/Seekfree_CH32V103R8T6_Opensource_Library/Libraries/wch_Libraries/Startup/startup_ch32v10x.S:181
	csrw mtvec, t0
     1b2:	30529073          	csrw	mtvec,t0
C:/Users/Accepted/Documents/smart_car/Seekfree_CH32V103R8T6_Opensource_Library/Libraries/wch_Libraries/Startup/startup_ch32v10x.S:183

  jal  SystemInit
     1b6:	479010ef          	jal	ra,1e2e <SystemInit>
C:/Users/Accepted/Documents/smart_car/Seekfree_CH32V103R8T6_Opensource_Library/Libraries/wch_Libraries/Startup/startup_ch32v10x.S:184
	la t0, main
     1ba:	00004297          	auipc	t0,0x4
     1be:	ad428293          	addi	t0,t0,-1324 # 3c8e <main>
C:/Users/Accepted/Documents/smart_car/Seekfree_CH32V103R8T6_Opensource_Library/Libraries/wch_Libraries/Startup/startup_ch32v10x.S:185
	csrw mepc, t0
     1c2:	34129073          	csrw	mepc,t0
C:/Users/Accepted/Documents/smart_car/Seekfree_CH32V103R8T6_Opensource_Library/Libraries/wch_Libraries/Startup/startup_ch32v10x.S:186
	mret
     1c6:	30200073          	mret

000001ca <DMA_GetFlagStatus>:
DMA_GetFlagStatus():
C:/Users/Accepted/Documents/smart_car/Seekfree_CH32V103R8T6_Opensource_Library/Libraries/wch_Libraries/Peripheral/ch32v10x_dma.c:290
*                      DMA2_FLAG_HT5: DMA2 Channel5 half transfer flag.
*                      DMA2_FLAG_TE5: DMA2 Channel5 transfer error flag.
* Return         : The new state of DMAy_FLAG (SET or RESET). 
*********************************************************************************/
FlagStatus DMA_GetFlagStatus(uint32_t DMAy_FLAG)
{
     1ca:	7179                	addi	sp,sp,-48
     1cc:	d622                	sw	s0,44(sp)
     1ce:	1800                	addi	s0,sp,48
     1d0:	fca42e23          	sw	a0,-36(s0)
C:/Users/Accepted/Documents/smart_car/Seekfree_CH32V103R8T6_Opensource_Library/Libraries/wch_Libraries/Peripheral/ch32v10x_dma.c:291
  FlagStatus bitstatus = RESET;
     1d4:	fe042623          	sw	zero,-20(s0)
C:/Users/Accepted/Documents/smart_car/Seekfree_CH32V103R8T6_Opensource_Library/Libraries/wch_Libraries/Peripheral/ch32v10x_dma.c:292
  uint32_t tmpreg = 0;
     1d8:	fe042423          	sw	zero,-24(s0)
C:/Users/Accepted/Documents/smart_car/Seekfree_CH32V103R8T6_Opensource_Library/Libraries/wch_Libraries/Peripheral/ch32v10x_dma.c:294
  
  if ((DMAy_FLAG & FLAG_Mask) != (uint32_t)RESET)
     1dc:	fdc42703          	lw	a4,-36(s0)
     1e0:	100007b7          	lui	a5,0x10000
     1e4:	8ff9                	and	a5,a5,a4
     1e6:	cb89                	beqz	a5,1f8 <DMA_GetFlagStatus+0x2e>
C:/Users/Accepted/Documents/smart_car/Seekfree_CH32V103R8T6_Opensource_Library/Libraries/wch_Libraries/Peripheral/ch32v10x_dma.c:296
  {
    tmpreg = DMA2->INTFR ;
     1e8:	400207b7          	lui	a5,0x40020
     1ec:	40078793          	addi	a5,a5,1024 # 40020400 <_eusrstack+0x2001b400>
     1f0:	439c                	lw	a5,0(a5)
     1f2:	fef42423          	sw	a5,-24(s0)
     1f6:	a031                	j	202 <DMA_GetFlagStatus+0x38>
C:/Users/Accepted/Documents/smart_car/Seekfree_CH32V103R8T6_Opensource_Library/Libraries/wch_Libraries/Peripheral/ch32v10x_dma.c:300
  }
  else
  {
    tmpreg = DMA1->INTFR ;
     1f8:	400207b7          	lui	a5,0x40020
     1fc:	439c                	lw	a5,0(a5)
     1fe:	fef42423          	sw	a5,-24(s0)
C:/Users/Accepted/Documents/smart_car/Seekfree_CH32V103R8T6_Opensource_Library/Libraries/wch_Libraries/Peripheral/ch32v10x_dma.c:303
  }

  if ((tmpreg & DMAy_FLAG) != (uint32_t)RESET)
     202:	fe842703          	lw	a4,-24(s0)
     206:	fdc42783          	lw	a5,-36(s0)
     20a:	8ff9                	and	a5,a5,a4
     20c:	c789                	beqz	a5,216 <DMA_GetFlagStatus+0x4c>
C:/Users/Accepted/Documents/smart_car/Seekfree_CH32V103R8T6_Opensource_Library/Libraries/wch_Libraries/Peripheral/ch32v10x_dma.c:305
  {
    bitstatus = SET;
     20e:	4785                	li	a5,1
     210:	fef42623          	sw	a5,-20(s0)
     214:	a019                	j	21a <DMA_GetFlagStatus+0x50>
C:/Users/Accepted/Documents/smart_car/Seekfree_CH32V103R8T6_Opensource_Library/Libraries/wch_Libraries/Peripheral/ch32v10x_dma.c:309
  }
  else
  {
    bitstatus = RESET;
     216:	fe042623          	sw	zero,-20(s0)
C:/Users/Accepted/Documents/smart_car/Seekfree_CH32V103R8T6_Opensource_Library/Libraries/wch_Libraries/Peripheral/ch32v10x_dma.c:312
  }
  
  return  bitstatus;
     21a:	fec42783          	lw	a5,-20(s0)
C:/Users/Accepted/Documents/smart_car/Seekfree_CH32V103R8T6_Opensource_Library/Libraries/wch_Libraries/Peripheral/ch32v10x_dma.c:313
}
     21e:	853e                	mv	a0,a5
     220:	5432                	lw	s0,44(sp)
     222:	6145                	addi	sp,sp,48
     224:	8082                	ret

00000226 <DMA_ClearFlag>:
DMA_ClearFlag():
C:/Users/Accepted/Documents/smart_car/Seekfree_CH32V103R8T6_Opensource_Library/Libraries/wch_Libraries/Peripheral/ch32v10x_dma.c:371
*                      DMA2_FLAG_HT5: DMA2 Channel5 half transfer flag.
*                      DMA2_FLAG_TE5: DMA2 Channel5 transfer error flag.
* Return         : None 
*********************************************************************************/
void DMA_ClearFlag(uint32_t DMAy_FLAG)
{
     226:	1101                	addi	sp,sp,-32
     228:	ce22                	sw	s0,28(sp)
     22a:	1000                	addi	s0,sp,32
     22c:	fea42623          	sw	a0,-20(s0)
C:/Users/Accepted/Documents/smart_car/Seekfree_CH32V103R8T6_Opensource_Library/Libraries/wch_Libraries/Peripheral/ch32v10x_dma.c:372
  if ((DMAy_FLAG & FLAG_Mask) != (uint32_t)RESET)
     230:	fec42703          	lw	a4,-20(s0)
     234:	100007b7          	lui	a5,0x10000
     238:	8ff9                	and	a5,a5,a4
     23a:	cb89                	beqz	a5,24c <DMA_ClearFlag+0x26>
C:/Users/Accepted/Documents/smart_car/Seekfree_CH32V103R8T6_Opensource_Library/Libraries/wch_Libraries/Peripheral/ch32v10x_dma.c:374
  {
    DMA2->INTFCR = DMAy_FLAG;
     23c:	400207b7          	lui	a5,0x40020
     240:	40078793          	addi	a5,a5,1024 # 40020400 <_eusrstack+0x2001b400>
     244:	fec42703          	lw	a4,-20(s0)
     248:	c3d8                	sw	a4,4(a5)
C:/Users/Accepted/Documents/smart_car/Seekfree_CH32V103R8T6_Opensource_Library/Libraries/wch_Libraries/Peripheral/ch32v10x_dma.c:380
  }
  else
  {
    DMA1->INTFCR = DMAy_FLAG;
  }
}
     24a:	a031                	j	256 <DMA_ClearFlag+0x30>
C:/Users/Accepted/Documents/smart_car/Seekfree_CH32V103R8T6_Opensource_Library/Libraries/wch_Libraries/Peripheral/ch32v10x_dma.c:378
    DMA1->INTFCR = DMAy_FLAG;
     24c:	400207b7          	lui	a5,0x40020
     250:	fec42703          	lw	a4,-20(s0)
     254:	c3d8                	sw	a4,4(a5)
C:/Users/Accepted/Documents/smart_car/Seekfree_CH32V103R8T6_Opensource_Library/Libraries/wch_Libraries/Peripheral/ch32v10x_dma.c:380
}
     256:	0001                	nop
     258:	4472                	lw	s0,28(sp)
     25a:	6105                	addi	sp,sp,32
     25c:	8082                	ret

0000025e <EXTI_GetITStatus>:
EXTI_GetITStatus():
C:/Users/Accepted/Documents/smart_car/Seekfree_CH32V103R8T6_Opensource_Library/Libraries/wch_Libraries/Peripheral/ch32v10x_exti.c:131
* Description    : Checks whether the specified EXTI line is asserted or not.
* Input          : EXTI_Line: specifies the EXTI lines to be enabled or disabled.
* Return         : The new state of EXTI_Line (SET or RESET).
*********************************************************************************/	
ITStatus EXTI_GetITStatus(uint32_t EXTI_Line)
{
     25e:	7179                	addi	sp,sp,-48
     260:	d622                	sw	s0,44(sp)
     262:	1800                	addi	s0,sp,48
     264:	fca42e23          	sw	a0,-36(s0)
C:/Users/Accepted/Documents/smart_car/Seekfree_CH32V103R8T6_Opensource_Library/Libraries/wch_Libraries/Peripheral/ch32v10x_exti.c:132
  ITStatus bitstatus = RESET;
     268:	fe042623          	sw	zero,-20(s0)
C:/Users/Accepted/Documents/smart_car/Seekfree_CH32V103R8T6_Opensource_Library/Libraries/wch_Libraries/Peripheral/ch32v10x_exti.c:133
  uint32_t enablestatus = 0;
     26c:	fe042423          	sw	zero,-24(s0)
C:/Users/Accepted/Documents/smart_car/Seekfree_CH32V103R8T6_Opensource_Library/Libraries/wch_Libraries/Peripheral/ch32v10x_exti.c:135
  
  enablestatus =  EXTI->INTENR & EXTI_Line;
     270:	400107b7          	lui	a5,0x40010
     274:	40078793          	addi	a5,a5,1024 # 40010400 <_eusrstack+0x2000b400>
     278:	439c                	lw	a5,0(a5)
     27a:	fdc42703          	lw	a4,-36(s0)
     27e:	8ff9                	and	a5,a5,a4
     280:	fef42423          	sw	a5,-24(s0)
C:/Users/Accepted/Documents/smart_car/Seekfree_CH32V103R8T6_Opensource_Library/Libraries/wch_Libraries/Peripheral/ch32v10x_exti.c:136
  if (((EXTI->INTFR & EXTI_Line) != (uint32_t)RESET) && (enablestatus != (uint32_t)RESET))
     284:	400107b7          	lui	a5,0x40010
     288:	40078793          	addi	a5,a5,1024 # 40010400 <_eusrstack+0x2000b400>
     28c:	4bd8                	lw	a4,20(a5)
     28e:	fdc42783          	lw	a5,-36(s0)
     292:	8ff9                	and	a5,a5,a4
     294:	cb81                	beqz	a5,2a4 <EXTI_GetITStatus+0x46>
C:/Users/Accepted/Documents/smart_car/Seekfree_CH32V103R8T6_Opensource_Library/Libraries/wch_Libraries/Peripheral/ch32v10x_exti.c:136 (discriminator 1)
     296:	fe842783          	lw	a5,-24(s0)
     29a:	c789                	beqz	a5,2a4 <EXTI_GetITStatus+0x46>
C:/Users/Accepted/Documents/smart_car/Seekfree_CH32V103R8T6_Opensource_Library/Libraries/wch_Libraries/Peripheral/ch32v10x_exti.c:138
  {
    bitstatus = SET;
     29c:	4785                	li	a5,1
     29e:	fef42623          	sw	a5,-20(s0)
     2a2:	a019                	j	2a8 <EXTI_GetITStatus+0x4a>
C:/Users/Accepted/Documents/smart_car/Seekfree_CH32V103R8T6_Opensource_Library/Libraries/wch_Libraries/Peripheral/ch32v10x_exti.c:142
  }
  else
  {
    bitstatus = RESET;
     2a4:	fe042623          	sw	zero,-20(s0)
C:/Users/Accepted/Documents/smart_car/Seekfree_CH32V103R8T6_Opensource_Library/Libraries/wch_Libraries/Peripheral/ch32v10x_exti.c:144
  }
  return bitstatus;
     2a8:	fec42783          	lw	a5,-20(s0)
C:/Users/Accepted/Documents/smart_car/Seekfree_CH32V103R8T6_Opensource_Library/Libraries/wch_Libraries/Peripheral/ch32v10x_exti.c:145
}
     2ac:	853e                	mv	a0,a5
     2ae:	5432                	lw	s0,44(sp)
     2b0:	6145                	addi	sp,sp,48
     2b2:	8082                	ret

000002b4 <EXTI_ClearITPendingBit>:
EXTI_ClearITPendingBit():
C:/Users/Accepted/Documents/smart_car/Seekfree_CH32V103R8T6_Opensource_Library/Libraries/wch_Libraries/Peripheral/ch32v10x_exti.c:154
* Description    : Clears the EXTI's line pending bits.
* Input          : EXTI_Line: specifies the EXTI lines to be enabled or disabled.
* Return         : None
*********************************************************************************/
void EXTI_ClearITPendingBit(uint32_t EXTI_Line)
{  
     2b4:	1101                	addi	sp,sp,-32
     2b6:	ce22                	sw	s0,28(sp)
     2b8:	1000                	addi	s0,sp,32
     2ba:	fea42623          	sw	a0,-20(s0)
C:/Users/Accepted/Documents/smart_car/Seekfree_CH32V103R8T6_Opensource_Library/Libraries/wch_Libraries/Peripheral/ch32v10x_exti.c:155
  EXTI->INTFR = EXTI_Line;
     2be:	400107b7          	lui	a5,0x40010
     2c2:	40078793          	addi	a5,a5,1024 # 40010400 <_eusrstack+0x2000b400>
     2c6:	fec42703          	lw	a4,-20(s0)
     2ca:	cbd8                	sw	a4,20(a5)
C:/Users/Accepted/Documents/smart_car/Seekfree_CH32V103R8T6_Opensource_Library/Libraries/wch_Libraries/Peripheral/ch32v10x_exti.c:156
}
     2cc:	0001                	nop
     2ce:	4472                	lw	s0,28(sp)
     2d0:	6105                	addi	sp,sp,32
     2d2:	8082                	ret

000002d4 <GPIO_DeInit>:
GPIO_DeInit():
C:/Users/Accepted/Documents/smart_car/Seekfree_CH32V103R8T6_Opensource_Library/Libraries/wch_Libraries/Peripheral/ch32v10x_gpio.c:26
* Description    : Deinitializes the GPIOx peripheral registers to their default reset values.
* Input          : GPIOx: where x can be (A..G) to select the GPIO peripheral.
* Return         : None
*******************************************************************************/
void GPIO_DeInit(GPIO_TypeDef* GPIOx)
{
     2d4:	1101                	addi	sp,sp,-32
     2d6:	ce06                	sw	ra,28(sp)
     2d8:	cc22                	sw	s0,24(sp)
     2da:	1000                	addi	s0,sp,32
     2dc:	fea42623          	sw	a0,-20(s0)
C:/Users/Accepted/Documents/smart_car/Seekfree_CH32V103R8T6_Opensource_Library/Libraries/wch_Libraries/Peripheral/ch32v10x_gpio.c:27
  if (GPIOx == GPIOA)
     2e0:	fec42703          	lw	a4,-20(s0)
     2e4:	400117b7          	lui	a5,0x40011
     2e8:	80078793          	addi	a5,a5,-2048 # 40010800 <_eusrstack+0x2000b800>
     2ec:	00f71963          	bne	a4,a5,2fe <GPIO_DeInit+0x2a>
C:/Users/Accepted/Documents/smart_car/Seekfree_CH32V103R8T6_Opensource_Library/Libraries/wch_Libraries/Peripheral/ch32v10x_gpio.c:29
  {
    RCC_APB2PeriphResetCmd(RCC_APB2Periph_GPIOA, ENABLE);
     2f0:	4585                	li	a1,1
     2f2:	4511                	li	a0,4
     2f4:	2f09                	jal	a06 <RCC_APB2PeriphResetCmd>
C:/Users/Accepted/Documents/smart_car/Seekfree_CH32V103R8T6_Opensource_Library/Libraries/wch_Libraries/Peripheral/ch32v10x_gpio.c:30
    RCC_APB2PeriphResetCmd(RCC_APB2Periph_GPIOA, DISABLE);
     2f6:	4581                	li	a1,0
     2f8:	4511                	li	a0,4
     2fa:	2731                	jal	a06 <RCC_APB2PeriphResetCmd>
C:/Users/Accepted/Documents/smart_car/Seekfree_CH32V103R8T6_Opensource_Library/Libraries/wch_Libraries/Peripheral/ch32v10x_gpio.c:65
    {
      RCC_APB2PeriphResetCmd(RCC_APB2Periph_GPIOG, ENABLE);
      RCC_APB2PeriphResetCmd(RCC_APB2Periph_GPIOG, DISABLE);
    }
  }
}
     2fc:	a875                	j	3b8 <GPIO_DeInit+0xe4>
C:/Users/Accepted/Documents/smart_car/Seekfree_CH32V103R8T6_Opensource_Library/Libraries/wch_Libraries/Peripheral/ch32v10x_gpio.c:32
  else if (GPIOx == GPIOB)
     2fe:	fec42703          	lw	a4,-20(s0)
     302:	400117b7          	lui	a5,0x40011
     306:	c0078793          	addi	a5,a5,-1024 # 40010c00 <_eusrstack+0x2000bc00>
     30a:	00f71963          	bne	a4,a5,31c <GPIO_DeInit+0x48>
C:/Users/Accepted/Documents/smart_car/Seekfree_CH32V103R8T6_Opensource_Library/Libraries/wch_Libraries/Peripheral/ch32v10x_gpio.c:34
    RCC_APB2PeriphResetCmd(RCC_APB2Periph_GPIOB, ENABLE);
     30e:	4585                	li	a1,1
     310:	4521                	li	a0,8
     312:	2dd5                	jal	a06 <RCC_APB2PeriphResetCmd>
C:/Users/Accepted/Documents/smart_car/Seekfree_CH32V103R8T6_Opensource_Library/Libraries/wch_Libraries/Peripheral/ch32v10x_gpio.c:35
    RCC_APB2PeriphResetCmd(RCC_APB2Periph_GPIOB, DISABLE);
     314:	4581                	li	a1,0
     316:	4521                	li	a0,8
     318:	25fd                	jal	a06 <RCC_APB2PeriphResetCmd>
C:/Users/Accepted/Documents/smart_car/Seekfree_CH32V103R8T6_Opensource_Library/Libraries/wch_Libraries/Peripheral/ch32v10x_gpio.c:65
}
     31a:	a879                	j	3b8 <GPIO_DeInit+0xe4>
C:/Users/Accepted/Documents/smart_car/Seekfree_CH32V103R8T6_Opensource_Library/Libraries/wch_Libraries/Peripheral/ch32v10x_gpio.c:37
  else if (GPIOx == GPIOC)
     31c:	fec42703          	lw	a4,-20(s0)
     320:	400117b7          	lui	a5,0x40011
     324:	00f71963          	bne	a4,a5,336 <GPIO_DeInit+0x62>
C:/Users/Accepted/Documents/smart_car/Seekfree_CH32V103R8T6_Opensource_Library/Libraries/wch_Libraries/Peripheral/ch32v10x_gpio.c:39
    RCC_APB2PeriphResetCmd(RCC_APB2Periph_GPIOC, ENABLE);
     328:	4585                	li	a1,1
     32a:	4541                	li	a0,16
     32c:	2de9                	jal	a06 <RCC_APB2PeriphResetCmd>
C:/Users/Accepted/Documents/smart_car/Seekfree_CH32V103R8T6_Opensource_Library/Libraries/wch_Libraries/Peripheral/ch32v10x_gpio.c:40
    RCC_APB2PeriphResetCmd(RCC_APB2Periph_GPIOC, DISABLE);
     32e:	4581                	li	a1,0
     330:	4541                	li	a0,16
     332:	2dd1                	jal	a06 <RCC_APB2PeriphResetCmd>
C:/Users/Accepted/Documents/smart_car/Seekfree_CH32V103R8T6_Opensource_Library/Libraries/wch_Libraries/Peripheral/ch32v10x_gpio.c:65
}
     334:	a051                	j	3b8 <GPIO_DeInit+0xe4>
C:/Users/Accepted/Documents/smart_car/Seekfree_CH32V103R8T6_Opensource_Library/Libraries/wch_Libraries/Peripheral/ch32v10x_gpio.c:42
  else if (GPIOx == GPIOD)
     336:	fec42703          	lw	a4,-20(s0)
     33a:	400117b7          	lui	a5,0x40011
     33e:	40078793          	addi	a5,a5,1024 # 40011400 <_eusrstack+0x2000c400>
     342:	00f71b63          	bne	a4,a5,358 <GPIO_DeInit+0x84>
C:/Users/Accepted/Documents/smart_car/Seekfree_CH32V103R8T6_Opensource_Library/Libraries/wch_Libraries/Peripheral/ch32v10x_gpio.c:44
    RCC_APB2PeriphResetCmd(RCC_APB2Periph_GPIOD, ENABLE);
     346:	4585                	li	a1,1
     348:	02000513          	li	a0,32
     34c:	2d6d                	jal	a06 <RCC_APB2PeriphResetCmd>
C:/Users/Accepted/Documents/smart_car/Seekfree_CH32V103R8T6_Opensource_Library/Libraries/wch_Libraries/Peripheral/ch32v10x_gpio.c:45
    RCC_APB2PeriphResetCmd(RCC_APB2Periph_GPIOD, DISABLE);
     34e:	4581                	li	a1,0
     350:	02000513          	li	a0,32
     354:	2d4d                	jal	a06 <RCC_APB2PeriphResetCmd>
C:/Users/Accepted/Documents/smart_car/Seekfree_CH32V103R8T6_Opensource_Library/Libraries/wch_Libraries/Peripheral/ch32v10x_gpio.c:65
}
     356:	a08d                	j	3b8 <GPIO_DeInit+0xe4>
C:/Users/Accepted/Documents/smart_car/Seekfree_CH32V103R8T6_Opensource_Library/Libraries/wch_Libraries/Peripheral/ch32v10x_gpio.c:47
  else if (GPIOx == GPIOE)
     358:	fec42703          	lw	a4,-20(s0)
     35c:	400127b7          	lui	a5,0x40012
     360:	80078793          	addi	a5,a5,-2048 # 40011800 <_eusrstack+0x2000c800>
     364:	00f71b63          	bne	a4,a5,37a <GPIO_DeInit+0xa6>
C:/Users/Accepted/Documents/smart_car/Seekfree_CH32V103R8T6_Opensource_Library/Libraries/wch_Libraries/Peripheral/ch32v10x_gpio.c:49
    RCC_APB2PeriphResetCmd(RCC_APB2Periph_GPIOE, ENABLE);
     368:	4585                	li	a1,1
     36a:	04000513          	li	a0,64
     36e:	2d61                	jal	a06 <RCC_APB2PeriphResetCmd>
C:/Users/Accepted/Documents/smart_car/Seekfree_CH32V103R8T6_Opensource_Library/Libraries/wch_Libraries/Peripheral/ch32v10x_gpio.c:50
    RCC_APB2PeriphResetCmd(RCC_APB2Periph_GPIOE, DISABLE);
     370:	4581                	li	a1,0
     372:	04000513          	li	a0,64
     376:	2d41                	jal	a06 <RCC_APB2PeriphResetCmd>
C:/Users/Accepted/Documents/smart_car/Seekfree_CH32V103R8T6_Opensource_Library/Libraries/wch_Libraries/Peripheral/ch32v10x_gpio.c:65
}
     378:	a081                	j	3b8 <GPIO_DeInit+0xe4>
C:/Users/Accepted/Documents/smart_car/Seekfree_CH32V103R8T6_Opensource_Library/Libraries/wch_Libraries/Peripheral/ch32v10x_gpio.c:52
  else if (GPIOx == GPIOF)
     37a:	fec42703          	lw	a4,-20(s0)
     37e:	400127b7          	lui	a5,0x40012
     382:	c0078793          	addi	a5,a5,-1024 # 40011c00 <_eusrstack+0x2000cc00>
     386:	00f71b63          	bne	a4,a5,39c <GPIO_DeInit+0xc8>
C:/Users/Accepted/Documents/smart_car/Seekfree_CH32V103R8T6_Opensource_Library/Libraries/wch_Libraries/Peripheral/ch32v10x_gpio.c:54
    RCC_APB2PeriphResetCmd(RCC_APB2Periph_GPIOF, ENABLE);
     38a:	4585                	li	a1,1
     38c:	08000513          	li	a0,128
     390:	2d9d                	jal	a06 <RCC_APB2PeriphResetCmd>
C:/Users/Accepted/Documents/smart_car/Seekfree_CH32V103R8T6_Opensource_Library/Libraries/wch_Libraries/Peripheral/ch32v10x_gpio.c:55
    RCC_APB2PeriphResetCmd(RCC_APB2Periph_GPIOF, DISABLE);
     392:	4581                	li	a1,0
     394:	08000513          	li	a0,128
     398:	25bd                	jal	a06 <RCC_APB2PeriphResetCmd>
C:/Users/Accepted/Documents/smart_car/Seekfree_CH32V103R8T6_Opensource_Library/Libraries/wch_Libraries/Peripheral/ch32v10x_gpio.c:65
}
     39a:	a839                	j	3b8 <GPIO_DeInit+0xe4>
C:/Users/Accepted/Documents/smart_car/Seekfree_CH32V103R8T6_Opensource_Library/Libraries/wch_Libraries/Peripheral/ch32v10x_gpio.c:59
    if (GPIOx == GPIOG)
     39c:	fec42703          	lw	a4,-20(s0)
     3a0:	400127b7          	lui	a5,0x40012
     3a4:	00f71a63          	bne	a4,a5,3b8 <GPIO_DeInit+0xe4>
C:/Users/Accepted/Documents/smart_car/Seekfree_CH32V103R8T6_Opensource_Library/Libraries/wch_Libraries/Peripheral/ch32v10x_gpio.c:61
      RCC_APB2PeriphResetCmd(RCC_APB2Periph_GPIOG, ENABLE);
     3a8:	4585                	li	a1,1
     3aa:	10000513          	li	a0,256
     3ae:	2da1                	jal	a06 <RCC_APB2PeriphResetCmd>
C:/Users/Accepted/Documents/smart_car/Seekfree_CH32V103R8T6_Opensource_Library/Libraries/wch_Libraries/Peripheral/ch32v10x_gpio.c:62
      RCC_APB2PeriphResetCmd(RCC_APB2Periph_GPIOG, DISABLE);
     3b0:	4581                	li	a1,0
     3b2:	10000513          	li	a0,256
     3b6:	2d81                	jal	a06 <RCC_APB2PeriphResetCmd>
C:/Users/Accepted/Documents/smart_car/Seekfree_CH32V103R8T6_Opensource_Library/Libraries/wch_Libraries/Peripheral/ch32v10x_gpio.c:65
}
     3b8:	0001                	nop
     3ba:	40f2                	lw	ra,28(sp)
     3bc:	4462                	lw	s0,24(sp)
     3be:	6105                	addi	sp,sp,32
     3c0:	8082                	ret

000003c2 <GPIO_Init>:
GPIO_Init():
C:/Users/Accepted/Documents/smart_car/Seekfree_CH32V103R8T6_Opensource_Library/Libraries/wch_Libraries/Peripheral/ch32v10x_gpio.c:88
* Input          : GPIO_InitStruct: pointer to a GPIO_InitTypeDef structure that
*      contains the configuration information for the specified GPIO peripheral.
* Return         : None
*******************************************************************************/
void GPIO_Init(GPIO_TypeDef* GPIOx, GPIO_InitTypeDef* GPIO_InitStruct)
{
     3c2:	7139                	addi	sp,sp,-64
     3c4:	de22                	sw	s0,60(sp)
     3c6:	0080                	addi	s0,sp,64
     3c8:	fca42623          	sw	a0,-52(s0)
     3cc:	fcb42423          	sw	a1,-56(s0)
C:/Users/Accepted/Documents/smart_car/Seekfree_CH32V103R8T6_Opensource_Library/Libraries/wch_Libraries/Peripheral/ch32v10x_gpio.c:89
  uint32_t currentmode = 0x00, currentpin = 0x00, pinpos = 0x00, pos = 0x00;
     3d0:	fe042623          	sw	zero,-20(s0)
     3d4:	fe042023          	sw	zero,-32(s0)
     3d8:	fe042423          	sw	zero,-24(s0)
     3dc:	fc042e23          	sw	zero,-36(s0)
C:/Users/Accepted/Documents/smart_car/Seekfree_CH32V103R8T6_Opensource_Library/Libraries/wch_Libraries/Peripheral/ch32v10x_gpio.c:90
  uint32_t tmpreg = 0x00, pinmask = 0x00;
     3e0:	fe042223          	sw	zero,-28(s0)
     3e4:	fc042c23          	sw	zero,-40(s0)
C:/Users/Accepted/Documents/smart_car/Seekfree_CH32V103R8T6_Opensource_Library/Libraries/wch_Libraries/Peripheral/ch32v10x_gpio.c:92

  currentmode = ((uint32_t)GPIO_InitStruct->GPIO_Mode) & ((uint32_t)0x0F);
     3e8:	fc842783          	lw	a5,-56(s0)
     3ec:	479c                	lw	a5,8(a5)
     3ee:	8bbd                	andi	a5,a5,15
     3f0:	fef42623          	sw	a5,-20(s0)
C:/Users/Accepted/Documents/smart_car/Seekfree_CH32V103R8T6_Opensource_Library/Libraries/wch_Libraries/Peripheral/ch32v10x_gpio.c:94
	
  if ((((uint32_t)GPIO_InitStruct->GPIO_Mode) & ((uint32_t)0x10)) != 0x00)
     3f4:	fc842783          	lw	a5,-56(s0)
     3f8:	479c                	lw	a5,8(a5)
     3fa:	8bc1                	andi	a5,a5,16
     3fc:	cb89                	beqz	a5,40e <GPIO_Init+0x4c>
C:/Users/Accepted/Documents/smart_car/Seekfree_CH32V103R8T6_Opensource_Library/Libraries/wch_Libraries/Peripheral/ch32v10x_gpio.c:96
  { 
    currentmode |= (uint32_t)GPIO_InitStruct->GPIO_Speed;
     3fe:	fc842783          	lw	a5,-56(s0)
     402:	43dc                	lw	a5,4(a5)
     404:	fec42703          	lw	a4,-20(s0)
     408:	8fd9                	or	a5,a5,a4
     40a:	fef42623          	sw	a5,-20(s0)
C:/Users/Accepted/Documents/smart_car/Seekfree_CH32V103R8T6_Opensource_Library/Libraries/wch_Libraries/Peripheral/ch32v10x_gpio.c:99
  }

  if (((uint32_t)GPIO_InitStruct->GPIO_Pin & ((uint32_t)0x00FF)) != 0x00)
     40e:	fc842783          	lw	a5,-56(s0)
     412:	0007d783          	lhu	a5,0(a5) # 40012000 <_eusrstack+0x2000d000>
     416:	0ff7f793          	andi	a5,a5,255
     41a:	cff1                	beqz	a5,4f6 <GPIO_Init+0x134>
C:/Users/Accepted/Documents/smart_car/Seekfree_CH32V103R8T6_Opensource_Library/Libraries/wch_Libraries/Peripheral/ch32v10x_gpio.c:101
  {
    tmpreg = GPIOx->CFGLR;
     41c:	fcc42783          	lw	a5,-52(s0)
     420:	439c                	lw	a5,0(a5)
     422:	fef42223          	sw	a5,-28(s0)
C:/Users/Accepted/Documents/smart_car/Seekfree_CH32V103R8T6_Opensource_Library/Libraries/wch_Libraries/Peripheral/ch32v10x_gpio.c:103
		
    for (pinpos = 0x00; pinpos < 0x08; pinpos++)
     426:	fe042423          	sw	zero,-24(s0)
     42a:	a865                	j	4e2 <GPIO_Init+0x120>
C:/Users/Accepted/Documents/smart_car/Seekfree_CH32V103R8T6_Opensource_Library/Libraries/wch_Libraries/Peripheral/ch32v10x_gpio.c:105
    {
      pos = ((uint32_t)0x01) << pinpos;
     42c:	fe842783          	lw	a5,-24(s0)
     430:	4705                	li	a4,1
     432:	00f717b3          	sll	a5,a4,a5
     436:	fcf42e23          	sw	a5,-36(s0)
C:/Users/Accepted/Documents/smart_car/Seekfree_CH32V103R8T6_Opensource_Library/Libraries/wch_Libraries/Peripheral/ch32v10x_gpio.c:106
      currentpin = (GPIO_InitStruct->GPIO_Pin) & pos;
     43a:	fc842783          	lw	a5,-56(s0)
     43e:	0007d783          	lhu	a5,0(a5)
     442:	873e                	mv	a4,a5
     444:	fdc42783          	lw	a5,-36(s0)
     448:	8ff9                	and	a5,a5,a4
     44a:	fef42023          	sw	a5,-32(s0)
C:/Users/Accepted/Documents/smart_car/Seekfree_CH32V103R8T6_Opensource_Library/Libraries/wch_Libraries/Peripheral/ch32v10x_gpio.c:108
			
      if (currentpin == pos)
     44e:	fe042703          	lw	a4,-32(s0)
     452:	fdc42783          	lw	a5,-36(s0)
     456:	08f71163          	bne	a4,a5,4d8 <GPIO_Init+0x116>
C:/Users/Accepted/Documents/smart_car/Seekfree_CH32V103R8T6_Opensource_Library/Libraries/wch_Libraries/Peripheral/ch32v10x_gpio.c:110
      {
        pos = pinpos << 2;
     45a:	fe842783          	lw	a5,-24(s0)
     45e:	078a                	slli	a5,a5,0x2
     460:	fcf42e23          	sw	a5,-36(s0)
C:/Users/Accepted/Documents/smart_car/Seekfree_CH32V103R8T6_Opensource_Library/Libraries/wch_Libraries/Peripheral/ch32v10x_gpio.c:111
        pinmask = ((uint32_t)0x0F) << pos;
     464:	fdc42783          	lw	a5,-36(s0)
     468:	473d                	li	a4,15
     46a:	00f717b3          	sll	a5,a4,a5
     46e:	fcf42c23          	sw	a5,-40(s0)
C:/Users/Accepted/Documents/smart_car/Seekfree_CH32V103R8T6_Opensource_Library/Libraries/wch_Libraries/Peripheral/ch32v10x_gpio.c:112
        tmpreg &= ~pinmask;
     472:	fd842783          	lw	a5,-40(s0)
     476:	fff7c793          	not	a5,a5
     47a:	fe442703          	lw	a4,-28(s0)
     47e:	8ff9                	and	a5,a5,a4
     480:	fef42223          	sw	a5,-28(s0)
C:/Users/Accepted/Documents/smart_car/Seekfree_CH32V103R8T6_Opensource_Library/Libraries/wch_Libraries/Peripheral/ch32v10x_gpio.c:113
        tmpreg |= (currentmode << pos);
     484:	fdc42783          	lw	a5,-36(s0)
     488:	fec42703          	lw	a4,-20(s0)
     48c:	00f717b3          	sll	a5,a4,a5
     490:	fe442703          	lw	a4,-28(s0)
     494:	8fd9                	or	a5,a5,a4
     496:	fef42223          	sw	a5,-28(s0)
C:/Users/Accepted/Documents/smart_car/Seekfree_CH32V103R8T6_Opensource_Library/Libraries/wch_Libraries/Peripheral/ch32v10x_gpio.c:115

        if (GPIO_InitStruct->GPIO_Mode == GPIO_Mode_IPD)
     49a:	fc842783          	lw	a5,-56(s0)
     49e:	4798                	lw	a4,8(a5)
     4a0:	02800793          	li	a5,40
     4a4:	00f71b63          	bne	a4,a5,4ba <GPIO_Init+0xf8>
C:/Users/Accepted/Documents/smart_car/Seekfree_CH32V103R8T6_Opensource_Library/Libraries/wch_Libraries/Peripheral/ch32v10x_gpio.c:117
        {
          GPIOx->BCR = (((uint32_t)0x01) << pinpos);
     4a8:	fe842783          	lw	a5,-24(s0)
     4ac:	4705                	li	a4,1
     4ae:	00f71733          	sll	a4,a4,a5
     4b2:	fcc42783          	lw	a5,-52(s0)
     4b6:	cbd8                	sw	a4,20(a5)
     4b8:	a005                	j	4d8 <GPIO_Init+0x116>
C:/Users/Accepted/Documents/smart_car/Seekfree_CH32V103R8T6_Opensource_Library/Libraries/wch_Libraries/Peripheral/ch32v10x_gpio.c:121
        }
        else
        {
          if (GPIO_InitStruct->GPIO_Mode == GPIO_Mode_IPU)
     4ba:	fc842783          	lw	a5,-56(s0)
     4be:	4798                	lw	a4,8(a5)
     4c0:	04800793          	li	a5,72
     4c4:	00f71a63          	bne	a4,a5,4d8 <GPIO_Init+0x116>
C:/Users/Accepted/Documents/smart_car/Seekfree_CH32V103R8T6_Opensource_Library/Libraries/wch_Libraries/Peripheral/ch32v10x_gpio.c:123
          {
            GPIOx->BSHR = (((uint32_t)0x01) << pinpos);
     4c8:	fe842783          	lw	a5,-24(s0)
     4cc:	4705                	li	a4,1
     4ce:	00f71733          	sll	a4,a4,a5
     4d2:	fcc42783          	lw	a5,-52(s0)
     4d6:	cb98                	sw	a4,16(a5)
C:/Users/Accepted/Documents/smart_car/Seekfree_CH32V103R8T6_Opensource_Library/Libraries/wch_Libraries/Peripheral/ch32v10x_gpio.c:103 (discriminator 2)
    for (pinpos = 0x00; pinpos < 0x08; pinpos++)
     4d8:	fe842783          	lw	a5,-24(s0)
     4dc:	0785                	addi	a5,a5,1
     4de:	fef42423          	sw	a5,-24(s0)
C:/Users/Accepted/Documents/smart_car/Seekfree_CH32V103R8T6_Opensource_Library/Libraries/wch_Libraries/Peripheral/ch32v10x_gpio.c:103 (discriminator 1)
     4e2:	fe842703          	lw	a4,-24(s0)
     4e6:	479d                	li	a5,7
     4e8:	f4e7f2e3          	bgeu	a5,a4,42c <GPIO_Init+0x6a>
C:/Users/Accepted/Documents/smart_car/Seekfree_CH32V103R8T6_Opensource_Library/Libraries/wch_Libraries/Peripheral/ch32v10x_gpio.c:128
          }
        }
      }
    }
    GPIOx->CFGLR = tmpreg;
     4ec:	fcc42783          	lw	a5,-52(s0)
     4f0:	fe442703          	lw	a4,-28(s0)
     4f4:	c398                	sw	a4,0(a5)
C:/Users/Accepted/Documents/smart_car/Seekfree_CH32V103R8T6_Opensource_Library/Libraries/wch_Libraries/Peripheral/ch32v10x_gpio.c:131
  }

  if (GPIO_InitStruct->GPIO_Pin > 0x00FF)
     4f6:	fc842783          	lw	a5,-56(s0)
     4fa:	0007d703          	lhu	a4,0(a5)
     4fe:	0ff00793          	li	a5,255
     502:	0ee7f163          	bgeu	a5,a4,5e4 <GPIO_Init+0x222>
C:/Users/Accepted/Documents/smart_car/Seekfree_CH32V103R8T6_Opensource_Library/Libraries/wch_Libraries/Peripheral/ch32v10x_gpio.c:133
  {
    tmpreg = GPIOx->CFGHR;
     506:	fcc42783          	lw	a5,-52(s0)
     50a:	43dc                	lw	a5,4(a5)
     50c:	fef42223          	sw	a5,-28(s0)
C:/Users/Accepted/Documents/smart_car/Seekfree_CH32V103R8T6_Opensource_Library/Libraries/wch_Libraries/Peripheral/ch32v10x_gpio.c:135
		
    for (pinpos = 0x00; pinpos < 0x08; pinpos++)
     510:	fe042423          	sw	zero,-24(s0)
     514:	a875                	j	5d0 <GPIO_Init+0x20e>
C:/Users/Accepted/Documents/smart_car/Seekfree_CH32V103R8T6_Opensource_Library/Libraries/wch_Libraries/Peripheral/ch32v10x_gpio.c:137
    {
      pos = (((uint32_t)0x01) << (pinpos + 0x08));
     516:	fe842783          	lw	a5,-24(s0)
     51a:	07a1                	addi	a5,a5,8
     51c:	4705                	li	a4,1
     51e:	00f717b3          	sll	a5,a4,a5
     522:	fcf42e23          	sw	a5,-36(s0)
C:/Users/Accepted/Documents/smart_car/Seekfree_CH32V103R8T6_Opensource_Library/Libraries/wch_Libraries/Peripheral/ch32v10x_gpio.c:138
      currentpin = ((GPIO_InitStruct->GPIO_Pin) & pos);
     526:	fc842783          	lw	a5,-56(s0)
     52a:	0007d783          	lhu	a5,0(a5)
     52e:	873e                	mv	a4,a5
     530:	fdc42783          	lw	a5,-36(s0)
     534:	8ff9                	and	a5,a5,a4
     536:	fef42023          	sw	a5,-32(s0)
C:/Users/Accepted/Documents/smart_car/Seekfree_CH32V103R8T6_Opensource_Library/Libraries/wch_Libraries/Peripheral/ch32v10x_gpio.c:140
			
      if (currentpin == pos)
     53a:	fe042703          	lw	a4,-32(s0)
     53e:	fdc42783          	lw	a5,-36(s0)
     542:	08f71263          	bne	a4,a5,5c6 <GPIO_Init+0x204>
C:/Users/Accepted/Documents/smart_car/Seekfree_CH32V103R8T6_Opensource_Library/Libraries/wch_Libraries/Peripheral/ch32v10x_gpio.c:142
      {
        pos = pinpos << 2;
     546:	fe842783          	lw	a5,-24(s0)
     54a:	078a                	slli	a5,a5,0x2
     54c:	fcf42e23          	sw	a5,-36(s0)
C:/Users/Accepted/Documents/smart_car/Seekfree_CH32V103R8T6_Opensource_Library/Libraries/wch_Libraries/Peripheral/ch32v10x_gpio.c:143
        pinmask = ((uint32_t)0x0F) << pos;
     550:	fdc42783          	lw	a5,-36(s0)
     554:	473d                	li	a4,15
     556:	00f717b3          	sll	a5,a4,a5
     55a:	fcf42c23          	sw	a5,-40(s0)
C:/Users/Accepted/Documents/smart_car/Seekfree_CH32V103R8T6_Opensource_Library/Libraries/wch_Libraries/Peripheral/ch32v10x_gpio.c:144
        tmpreg &= ~pinmask;
     55e:	fd842783          	lw	a5,-40(s0)
     562:	fff7c793          	not	a5,a5
     566:	fe442703          	lw	a4,-28(s0)
     56a:	8ff9                	and	a5,a5,a4
     56c:	fef42223          	sw	a5,-28(s0)
C:/Users/Accepted/Documents/smart_car/Seekfree_CH32V103R8T6_Opensource_Library/Libraries/wch_Libraries/Peripheral/ch32v10x_gpio.c:145
        tmpreg |= (currentmode << pos);
     570:	fdc42783          	lw	a5,-36(s0)
     574:	fec42703          	lw	a4,-20(s0)
     578:	00f717b3          	sll	a5,a4,a5
     57c:	fe442703          	lw	a4,-28(s0)
     580:	8fd9                	or	a5,a5,a4
     582:	fef42223          	sw	a5,-28(s0)
C:/Users/Accepted/Documents/smart_car/Seekfree_CH32V103R8T6_Opensource_Library/Libraries/wch_Libraries/Peripheral/ch32v10x_gpio.c:147

        if (GPIO_InitStruct->GPIO_Mode == GPIO_Mode_IPD)
     586:	fc842783          	lw	a5,-56(s0)
     58a:	4798                	lw	a4,8(a5)
     58c:	02800793          	li	a5,40
     590:	00f71b63          	bne	a4,a5,5a6 <GPIO_Init+0x1e4>
C:/Users/Accepted/Documents/smart_car/Seekfree_CH32V103R8T6_Opensource_Library/Libraries/wch_Libraries/Peripheral/ch32v10x_gpio.c:149
        {
          GPIOx->BCR = (((uint32_t)0x01) << (pinpos + 0x08));
     594:	fe842783          	lw	a5,-24(s0)
     598:	07a1                	addi	a5,a5,8
     59a:	4705                	li	a4,1
     59c:	00f71733          	sll	a4,a4,a5
     5a0:	fcc42783          	lw	a5,-52(s0)
     5a4:	cbd8                	sw	a4,20(a5)
C:/Users/Accepted/Documents/smart_car/Seekfree_CH32V103R8T6_Opensource_Library/Libraries/wch_Libraries/Peripheral/ch32v10x_gpio.c:152
        }

        if (GPIO_InitStruct->GPIO_Mode == GPIO_Mode_IPU)
     5a6:	fc842783          	lw	a5,-56(s0)
     5aa:	4798                	lw	a4,8(a5)
     5ac:	04800793          	li	a5,72
     5b0:	00f71b63          	bne	a4,a5,5c6 <GPIO_Init+0x204>
C:/Users/Accepted/Documents/smart_car/Seekfree_CH32V103R8T6_Opensource_Library/Libraries/wch_Libraries/Peripheral/ch32v10x_gpio.c:154
        {
          GPIOx->BSHR = (((uint32_t)0x01) << (pinpos + 0x08));
     5b4:	fe842783          	lw	a5,-24(s0)
     5b8:	07a1                	addi	a5,a5,8
     5ba:	4705                	li	a4,1
     5bc:	00f71733          	sll	a4,a4,a5
     5c0:	fcc42783          	lw	a5,-52(s0)
     5c4:	cb98                	sw	a4,16(a5)
C:/Users/Accepted/Documents/smart_car/Seekfree_CH32V103R8T6_Opensource_Library/Libraries/wch_Libraries/Peripheral/ch32v10x_gpio.c:135 (discriminator 2)
    for (pinpos = 0x00; pinpos < 0x08; pinpos++)
     5c6:	fe842783          	lw	a5,-24(s0)
     5ca:	0785                	addi	a5,a5,1
     5cc:	fef42423          	sw	a5,-24(s0)
C:/Users/Accepted/Documents/smart_car/Seekfree_CH32V103R8T6_Opensource_Library/Libraries/wch_Libraries/Peripheral/ch32v10x_gpio.c:135 (discriminator 1)
     5d0:	fe842703          	lw	a4,-24(s0)
     5d4:	479d                	li	a5,7
     5d6:	f4e7f0e3          	bgeu	a5,a4,516 <GPIO_Init+0x154>
C:/Users/Accepted/Documents/smart_car/Seekfree_CH32V103R8T6_Opensource_Library/Libraries/wch_Libraries/Peripheral/ch32v10x_gpio.c:158
        }
      }
    }
    GPIOx->CFGHR = tmpreg;
     5da:	fcc42783          	lw	a5,-52(s0)
     5de:	fe442703          	lw	a4,-28(s0)
     5e2:	c3d8                	sw	a4,4(a5)
C:/Users/Accepted/Documents/smart_car/Seekfree_CH32V103R8T6_Opensource_Library/Libraries/wch_Libraries/Peripheral/ch32v10x_gpio.c:160
  }
}
     5e4:	0001                	nop
     5e6:	5472                	lw	s0,60(sp)
     5e8:	6121                	addi	sp,sp,64
     5ea:	8082                	ret

000005ec <GPIO_WriteBit>:
GPIO_WriteBit():
C:/Users/Accepted/Documents/smart_car/Seekfree_CH32V103R8T6_Opensource_Library/Libraries/wch_Libraries/Peripheral/ch32v10x_gpio.c:282
*                    Bit_SetL: to clear the port pin.
*                    Bit_SetH: to set the port pin.                  
* Return         : None
*******************************************************************************/
void GPIO_WriteBit(GPIO_TypeDef* GPIOx, uint16_t GPIO_Pin, BitAction BitVal)
{
     5ec:	1101                	addi	sp,sp,-32
     5ee:	ce22                	sw	s0,28(sp)
     5f0:	1000                	addi	s0,sp,32
     5f2:	fea42623          	sw	a0,-20(s0)
     5f6:	87ae                	mv	a5,a1
     5f8:	fec42223          	sw	a2,-28(s0)
     5fc:	fef41523          	sh	a5,-22(s0)
C:/Users/Accepted/Documents/smart_car/Seekfree_CH32V103R8T6_Opensource_Library/Libraries/wch_Libraries/Peripheral/ch32v10x_gpio.c:283
  if (BitVal != Bit_RESET)
     600:	fe442783          	lw	a5,-28(s0)
     604:	c799                	beqz	a5,612 <GPIO_WriteBit+0x26>
C:/Users/Accepted/Documents/smart_car/Seekfree_CH32V103R8T6_Opensource_Library/Libraries/wch_Libraries/Peripheral/ch32v10x_gpio.c:285
  {
    GPIOx->BSHR = GPIO_Pin;
     606:	fea45703          	lhu	a4,-22(s0)
     60a:	fec42783          	lw	a5,-20(s0)
     60e:	cb98                	sw	a4,16(a5)
C:/Users/Accepted/Documents/smart_car/Seekfree_CH32V103R8T6_Opensource_Library/Libraries/wch_Libraries/Peripheral/ch32v10x_gpio.c:291
  }
  else
  {
    GPIOx->BCR = GPIO_Pin;
  }
}
     610:	a031                	j	61c <GPIO_WriteBit+0x30>
C:/Users/Accepted/Documents/smart_car/Seekfree_CH32V103R8T6_Opensource_Library/Libraries/wch_Libraries/Peripheral/ch32v10x_gpio.c:289
    GPIOx->BCR = GPIO_Pin;
     612:	fea45703          	lhu	a4,-22(s0)
     616:	fec42783          	lw	a5,-20(s0)
     61a:	cbd8                	sw	a4,20(a5)
C:/Users/Accepted/Documents/smart_car/Seekfree_CH32V103R8T6_Opensource_Library/Libraries/wch_Libraries/Peripheral/ch32v10x_gpio.c:291
}
     61c:	0001                	nop
     61e:	4472                	lw	s0,28(sp)
     620:	6105                	addi	sp,sp,32
     622:	8082                	ret

00000624 <GPIO_PinRemapConfig>:
GPIO_PinRemapConfig():
C:/Users/Accepted/Documents/smart_car/Seekfree_CH32V103R8T6_Opensource_Library/Libraries/wch_Libraries/Peripheral/ch32v10x_gpio.c:402
*      only for High density Value line devices)     
*                  NewState: ENABLE or DISABLE.             
* Return         : None
*******************************************************************************/
void GPIO_PinRemapConfig(uint32_t GPIO_Remap, FunctionalState NewState)
{
     624:	7179                	addi	sp,sp,-48
     626:	d622                	sw	s0,44(sp)
     628:	1800                	addi	s0,sp,48
     62a:	fca42e23          	sw	a0,-36(s0)
     62e:	fcb42c23          	sw	a1,-40(s0)
C:/Users/Accepted/Documents/smart_car/Seekfree_CH32V103R8T6_Opensource_Library/Libraries/wch_Libraries/Peripheral/ch32v10x_gpio.c:403
  uint32_t tmp = 0x00, tmp1 = 0x00, tmpreg = 0x00, tmpmask = 0x00;
     632:	fe042423          	sw	zero,-24(s0)
     636:	fe042223          	sw	zero,-28(s0)
     63a:	fe042623          	sw	zero,-20(s0)
     63e:	fe042023          	sw	zero,-32(s0)
C:/Users/Accepted/Documents/smart_car/Seekfree_CH32V103R8T6_Opensource_Library/Libraries/wch_Libraries/Peripheral/ch32v10x_gpio.c:405

  if((GPIO_Remap & 0x80000000) == 0x80000000)
     642:	fdc42783          	lw	a5,-36(s0)
     646:	0007d863          	bgez	a5,656 <GPIO_PinRemapConfig+0x32>
C:/Users/Accepted/Documents/smart_car/Seekfree_CH32V103R8T6_Opensource_Library/Libraries/wch_Libraries/Peripheral/ch32v10x_gpio.c:407
  {
    tmpreg = AFIO->PCFR2;
     64a:	400107b7          	lui	a5,0x40010
     64e:	4fdc                	lw	a5,28(a5)
     650:	fef42623          	sw	a5,-20(s0)
     654:	a031                	j	660 <GPIO_PinRemapConfig+0x3c>
C:/Users/Accepted/Documents/smart_car/Seekfree_CH32V103R8T6_Opensource_Library/Libraries/wch_Libraries/Peripheral/ch32v10x_gpio.c:411
  }
  else
  {
    tmpreg = AFIO->PCFR1;
     656:	400107b7          	lui	a5,0x40010
     65a:	43dc                	lw	a5,4(a5)
     65c:	fef42623          	sw	a5,-20(s0)
C:/Users/Accepted/Documents/smart_car/Seekfree_CH32V103R8T6_Opensource_Library/Libraries/wch_Libraries/Peripheral/ch32v10x_gpio.c:414
  }

  tmpmask = (GPIO_Remap & DBGAFR_POSITION_MASK) >> 0x10;
     660:	fdc42783          	lw	a5,-36(s0)
     664:	83c1                	srli	a5,a5,0x10
     666:	8bbd                	andi	a5,a5,15
     668:	fef42023          	sw	a5,-32(s0)
C:/Users/Accepted/Documents/smart_car/Seekfree_CH32V103R8T6_Opensource_Library/Libraries/wch_Libraries/Peripheral/ch32v10x_gpio.c:415
  tmp = GPIO_Remap & LSB_MASK;
     66c:	fdc42703          	lw	a4,-36(s0)
     670:	67c1                	lui	a5,0x10
     672:	17fd                	addi	a5,a5,-1
     674:	8ff9                	and	a5,a5,a4
     676:	fef42423          	sw	a5,-24(s0)
C:/Users/Accepted/Documents/smart_car/Seekfree_CH32V103R8T6_Opensource_Library/Libraries/wch_Libraries/Peripheral/ch32v10x_gpio.c:417

  if ((GPIO_Remap & (DBGAFR_LOCATION_MASK | DBGAFR_NUMBITS_MASK)) == (DBGAFR_LOCATION_MASK | DBGAFR_NUMBITS_MASK))
     67a:	fdc42703          	lw	a4,-36(s0)
     67e:	003007b7          	lui	a5,0x300
     682:	8f7d                	and	a4,a4,a5
     684:	003007b7          	lui	a5,0x300
     688:	02f71563          	bne	a4,a5,6b2 <GPIO_PinRemapConfig+0x8e>
C:/Users/Accepted/Documents/smart_car/Seekfree_CH32V103R8T6_Opensource_Library/Libraries/wch_Libraries/Peripheral/ch32v10x_gpio.c:419
  {
    tmpreg &= DBGAFR_SWJCFG_MASK;
     68c:	fec42703          	lw	a4,-20(s0)
     690:	f10007b7          	lui	a5,0xf1000
     694:	17fd                	addi	a5,a5,-1
     696:	8ff9                	and	a5,a5,a4
     698:	fef42623          	sw	a5,-20(s0)
C:/Users/Accepted/Documents/smart_car/Seekfree_CH32V103R8T6_Opensource_Library/Libraries/wch_Libraries/Peripheral/ch32v10x_gpio.c:420
    AFIO->PCFR1 &= DBGAFR_SWJCFG_MASK;
     69c:	400107b7          	lui	a5,0x40010
     6a0:	43d4                	lw	a3,4(a5)
     6a2:	400107b7          	lui	a5,0x40010
     6a6:	f1000737          	lui	a4,0xf1000
     6aa:	177d                	addi	a4,a4,-1
     6ac:	8f75                	and	a4,a4,a3
     6ae:	c3d8                	sw	a4,4(a5)
     6b0:	a0ad                	j	71a <GPIO_PinRemapConfig+0xf6>
C:/Users/Accepted/Documents/smart_car/Seekfree_CH32V103R8T6_Opensource_Library/Libraries/wch_Libraries/Peripheral/ch32v10x_gpio.c:422
  }
  else if ((GPIO_Remap & DBGAFR_NUMBITS_MASK) == DBGAFR_NUMBITS_MASK)
     6b2:	fdc42703          	lw	a4,-36(s0)
     6b6:	001007b7          	lui	a5,0x100
     6ba:	8ff9                	and	a5,a5,a4
     6bc:	cb8d                	beqz	a5,6ee <GPIO_PinRemapConfig+0xca>
C:/Users/Accepted/Documents/smart_car/Seekfree_CH32V103R8T6_Opensource_Library/Libraries/wch_Libraries/Peripheral/ch32v10x_gpio.c:424
  {
    tmp1 = ((uint32_t)0x03) << tmpmask;
     6be:	fe042783          	lw	a5,-32(s0)
     6c2:	470d                	li	a4,3
     6c4:	00f717b3          	sll	a5,a4,a5
     6c8:	fef42223          	sw	a5,-28(s0)
C:/Users/Accepted/Documents/smart_car/Seekfree_CH32V103R8T6_Opensource_Library/Libraries/wch_Libraries/Peripheral/ch32v10x_gpio.c:425
    tmpreg &= ~tmp1;
     6cc:	fe442783          	lw	a5,-28(s0)
     6d0:	fff7c793          	not	a5,a5
     6d4:	fec42703          	lw	a4,-20(s0)
     6d8:	8ff9                	and	a5,a5,a4
     6da:	fef42623          	sw	a5,-20(s0)
C:/Users/Accepted/Documents/smart_car/Seekfree_CH32V103R8T6_Opensource_Library/Libraries/wch_Libraries/Peripheral/ch32v10x_gpio.c:426
    tmpreg |= ~DBGAFR_SWJCFG_MASK;
     6de:	fec42703          	lw	a4,-20(s0)
     6e2:	0f0007b7          	lui	a5,0xf000
     6e6:	8fd9                	or	a5,a5,a4
     6e8:	fef42623          	sw	a5,-20(s0)
     6ec:	a03d                	j	71a <GPIO_PinRemapConfig+0xf6>
C:/Users/Accepted/Documents/smart_car/Seekfree_CH32V103R8T6_Opensource_Library/Libraries/wch_Libraries/Peripheral/ch32v10x_gpio.c:430
  }
  else
  {
    tmpreg &= ~(tmp << ((GPIO_Remap >> 0x15)*0x10));
     6ee:	fdc42783          	lw	a5,-36(s0)
     6f2:	83d5                	srli	a5,a5,0x15
     6f4:	0792                	slli	a5,a5,0x4
     6f6:	fe842703          	lw	a4,-24(s0)
     6fa:	00f717b3          	sll	a5,a4,a5
     6fe:	fff7c793          	not	a5,a5
     702:	fec42703          	lw	a4,-20(s0)
     706:	8ff9                	and	a5,a5,a4
     708:	fef42623          	sw	a5,-20(s0)
C:/Users/Accepted/Documents/smart_car/Seekfree_CH32V103R8T6_Opensource_Library/Libraries/wch_Libraries/Peripheral/ch32v10x_gpio.c:431
    tmpreg |= ~DBGAFR_SWJCFG_MASK;
     70c:	fec42703          	lw	a4,-20(s0)
     710:	0f0007b7          	lui	a5,0xf000
     714:	8fd9                	or	a5,a5,a4
     716:	fef42623          	sw	a5,-20(s0)
C:/Users/Accepted/Documents/smart_car/Seekfree_CH32V103R8T6_Opensource_Library/Libraries/wch_Libraries/Peripheral/ch32v10x_gpio.c:434
  }

  if (NewState != DISABLE)
     71a:	fd842783          	lw	a5,-40(s0)
     71e:	cf91                	beqz	a5,73a <GPIO_PinRemapConfig+0x116>
C:/Users/Accepted/Documents/smart_car/Seekfree_CH32V103R8T6_Opensource_Library/Libraries/wch_Libraries/Peripheral/ch32v10x_gpio.c:436
  {
    tmpreg |= (tmp << ((GPIO_Remap >> 0x15)*0x10));
     720:	fdc42783          	lw	a5,-36(s0)
     724:	83d5                	srli	a5,a5,0x15
     726:	0792                	slli	a5,a5,0x4
     728:	fe842703          	lw	a4,-24(s0)
     72c:	00f717b3          	sll	a5,a4,a5
     730:	fec42703          	lw	a4,-20(s0)
     734:	8fd9                	or	a5,a5,a4
     736:	fef42623          	sw	a5,-20(s0)
C:/Users/Accepted/Documents/smart_car/Seekfree_CH32V103R8T6_Opensource_Library/Libraries/wch_Libraries/Peripheral/ch32v10x_gpio.c:439
  }

  if((GPIO_Remap & 0x80000000) == 0x80000000)
     73a:	fdc42783          	lw	a5,-36(s0)
     73e:	0007d863          	bgez	a5,74e <GPIO_PinRemapConfig+0x12a>
C:/Users/Accepted/Documents/smart_car/Seekfree_CH32V103R8T6_Opensource_Library/Libraries/wch_Libraries/Peripheral/ch32v10x_gpio.c:441
  {
    AFIO->PCFR2 = tmpreg;
     742:	400107b7          	lui	a5,0x40010
     746:	fec42703          	lw	a4,-20(s0)
     74a:	cfd8                	sw	a4,28(a5)
C:/Users/Accepted/Documents/smart_car/Seekfree_CH32V103R8T6_Opensource_Library/Libraries/wch_Libraries/Peripheral/ch32v10x_gpio.c:447
  }
  else
  {
    AFIO->PCFR1 = tmpreg;
  }  
}
     74c:	a031                	j	758 <GPIO_PinRemapConfig+0x134>
C:/Users/Accepted/Documents/smart_car/Seekfree_CH32V103R8T6_Opensource_Library/Libraries/wch_Libraries/Peripheral/ch32v10x_gpio.c:445
    AFIO->PCFR1 = tmpreg;
     74e:	400107b7          	lui	a5,0x40010
     752:	fec42703          	lw	a4,-20(s0)
     756:	c3d8                	sw	a4,4(a5)
C:/Users/Accepted/Documents/smart_car/Seekfree_CH32V103R8T6_Opensource_Library/Libraries/wch_Libraries/Peripheral/ch32v10x_gpio.c:447
}
     758:	0001                	nop
     75a:	5432                	lw	s0,44(sp)
     75c:	6145                	addi	sp,sp,48
     75e:	8082                	ret

00000760 <RCC_GetClocksFreq>:
RCC_GetClocksFreq():
C:/Users/Accepted/Documents/smart_car/Seekfree_CH32V103R8T6_Opensource_Library/Libraries/wch_Libraries/Peripheral/ch32v10x_rcc.c:469
* Input          : The result of this function could be not correct when using
*      fractional value for HSE crystal.
* Return         : None
********************************************************************************/
void RCC_GetClocksFreq(RCC_ClocksTypeDef* RCC_Clocks)
{
     760:	7179                	addi	sp,sp,-48
     762:	d622                	sw	s0,44(sp)
     764:	1800                	addi	s0,sp,48
     766:	fca42e23          	sw	a0,-36(s0)
C:/Users/Accepted/Documents/smart_car/Seekfree_CH32V103R8T6_Opensource_Library/Libraries/wch_Libraries/Peripheral/ch32v10x_rcc.c:470
  uint32_t tmp = 0, pllmull = 0, pllsource = 0, presc = 0;
     76a:	fe042623          	sw	zero,-20(s0)
     76e:	fe042423          	sw	zero,-24(s0)
     772:	fe042223          	sw	zero,-28(s0)
     776:	fe042023          	sw	zero,-32(s0)
C:/Users/Accepted/Documents/smart_car/Seekfree_CH32V103R8T6_Opensource_Library/Libraries/wch_Libraries/Peripheral/ch32v10x_rcc.c:472
  
  tmp = RCC->CFGR0 & CFGR0_SWS_Mask;
     77a:	400217b7          	lui	a5,0x40021
     77e:	43dc                	lw	a5,4(a5)
     780:	8bb1                	andi	a5,a5,12
     782:	fef42623          	sw	a5,-20(s0)
     786:	fec42703          	lw	a4,-20(s0)
     78a:	4791                	li	a5,4
     78c:	02f70263          	beq	a4,a5,7b0 <RCC_GetClocksFreq+0x50>
     790:	fec42703          	lw	a4,-20(s0)
     794:	47a1                	li	a5,8
     796:	02f70563          	beq	a4,a5,7c0 <RCC_GetClocksFreq+0x60>
     79a:	fec42783          	lw	a5,-20(s0)
     79e:	e7c5                	bnez	a5,846 <__stack_size+0x46>
C:/Users/Accepted/Documents/smart_car/Seekfree_CH32V103R8T6_Opensource_Library/Libraries/wch_Libraries/Peripheral/ch32v10x_rcc.c:477
  
  switch (tmp)
  {
    case 0x00: 
      RCC_Clocks->SYSCLK_Frequency = HSI_VALUE;
     7a0:	fdc42783          	lw	a5,-36(s0)
     7a4:	007a1737          	lui	a4,0x7a1
     7a8:	20070713          	addi	a4,a4,512 # 7a1200 <_data_lma+0x79d024>
     7ac:	c398                	sw	a4,0(a5)
C:/Users/Accepted/Documents/smart_car/Seekfree_CH32V103R8T6_Opensource_Library/Libraries/wch_Libraries/Peripheral/ch32v10x_rcc.c:478
      break;
     7ae:	a065                	j	856 <__stack_size+0x56>
C:/Users/Accepted/Documents/smart_car/Seekfree_CH32V103R8T6_Opensource_Library/Libraries/wch_Libraries/Peripheral/ch32v10x_rcc.c:481
		
    case 0x04:
      RCC_Clocks->SYSCLK_Frequency = HSE_VALUE;
     7b0:	fdc42783          	lw	a5,-36(s0)
     7b4:	007a1737          	lui	a4,0x7a1
     7b8:	20070713          	addi	a4,a4,512 # 7a1200 <_data_lma+0x79d024>
     7bc:	c398                	sw	a4,0(a5)
C:/Users/Accepted/Documents/smart_car/Seekfree_CH32V103R8T6_Opensource_Library/Libraries/wch_Libraries/Peripheral/ch32v10x_rcc.c:482
      break;
     7be:	a861                	j	856 <__stack_size+0x56>
C:/Users/Accepted/Documents/smart_car/Seekfree_CH32V103R8T6_Opensource_Library/Libraries/wch_Libraries/Peripheral/ch32v10x_rcc.c:485
		
    case 0x08:
      pllmull = RCC->CFGR0 & CFGR0_PLLMull_Mask;
     7c0:	400217b7          	lui	a5,0x40021
     7c4:	43d8                	lw	a4,4(a5)
     7c6:	003c07b7          	lui	a5,0x3c0
     7ca:	8ff9                	and	a5,a5,a4
     7cc:	fef42423          	sw	a5,-24(s0)
C:/Users/Accepted/Documents/smart_car/Seekfree_CH32V103R8T6_Opensource_Library/Libraries/wch_Libraries/Peripheral/ch32v10x_rcc.c:486
      pllsource = RCC->CFGR0 & CFGR0_PLLSRC_Mask;    
     7d0:	400217b7          	lui	a5,0x40021
     7d4:	43d8                	lw	a4,4(a5)
     7d6:	67c1                	lui	a5,0x10
     7d8:	8ff9                	and	a5,a5,a4
     7da:	fef42223          	sw	a5,-28(s0)
C:/Users/Accepted/Documents/smart_car/Seekfree_CH32V103R8T6_Opensource_Library/Libraries/wch_Libraries/Peripheral/ch32v10x_rcc.c:487
      pllmull = ( pllmull >> 18) + 2;
     7de:	fe842783          	lw	a5,-24(s0)
     7e2:	83c9                	srli	a5,a5,0x12
     7e4:	0789                	addi	a5,a5,2
     7e6:	fef42423          	sw	a5,-24(s0)
C:/Users/Accepted/Documents/smart_car/Seekfree_CH32V103R8T6_Opensource_Library/Libraries/wch_Libraries/Peripheral/ch32v10x_rcc.c:489
      
      if (pllsource == 0x00)
     7ea:	fe442783          	lw	a5,-28(s0)
     7ee:	ef89                	bnez	a5,808 <__stack_size+0x8>
C:/Users/Accepted/Documents/smart_car/Seekfree_CH32V103R8T6_Opensource_Library/Libraries/wch_Libraries/Peripheral/ch32v10x_rcc.c:491
      {
        RCC_Clocks->SYSCLK_Frequency = (HSI_VALUE >> 1) * pllmull;
     7f0:	fe842703          	lw	a4,-24(s0)
     7f4:	003d17b7          	lui	a5,0x3d1
     7f8:	90078793          	addi	a5,a5,-1792 # 3d0900 <_data_lma+0x3cc724>
     7fc:	02f70733          	mul	a4,a4,a5
     800:	fdc42783          	lw	a5,-36(s0)
     804:	c398                	sw	a4,0(a5)
C:/Users/Accepted/Documents/smart_car/Seekfree_CH32V103R8T6_Opensource_Library/Libraries/wch_Libraries/Peripheral/ch32v10x_rcc.c:504
        else
        {
          RCC_Clocks->SYSCLK_Frequency = HSE_VALUE * pllmull;
        }
      } 
      break;
     806:	a881                	j	856 <__stack_size+0x56>
C:/Users/Accepted/Documents/smart_car/Seekfree_CH32V103R8T6_Opensource_Library/Libraries/wch_Libraries/Peripheral/ch32v10x_rcc.c:495
        if ((RCC->CFGR0 & CFGR0_PLLXTPRE_Mask) != (uint32_t)RESET)
     808:	400217b7          	lui	a5,0x40021
     80c:	43d8                	lw	a4,4(a5)
     80e:	000207b7          	lui	a5,0x20
     812:	8ff9                	and	a5,a5,a4
     814:	cf89                	beqz	a5,82e <__stack_size+0x2e>
C:/Users/Accepted/Documents/smart_car/Seekfree_CH32V103R8T6_Opensource_Library/Libraries/wch_Libraries/Peripheral/ch32v10x_rcc.c:497
          RCC_Clocks->SYSCLK_Frequency = (HSE_VALUE >> 1) * pllmull;
     816:	fe842703          	lw	a4,-24(s0)
     81a:	003d17b7          	lui	a5,0x3d1
     81e:	90078793          	addi	a5,a5,-1792 # 3d0900 <_data_lma+0x3cc724>
     822:	02f70733          	mul	a4,a4,a5
     826:	fdc42783          	lw	a5,-36(s0)
     82a:	c398                	sw	a4,0(a5)
C:/Users/Accepted/Documents/smart_car/Seekfree_CH32V103R8T6_Opensource_Library/Libraries/wch_Libraries/Peripheral/ch32v10x_rcc.c:504
      break;
     82c:	a02d                	j	856 <__stack_size+0x56>
C:/Users/Accepted/Documents/smart_car/Seekfree_CH32V103R8T6_Opensource_Library/Libraries/wch_Libraries/Peripheral/ch32v10x_rcc.c:501
          RCC_Clocks->SYSCLK_Frequency = HSE_VALUE * pllmull;
     82e:	fe842703          	lw	a4,-24(s0)
     832:	007a17b7          	lui	a5,0x7a1
     836:	20078793          	addi	a5,a5,512 # 7a1200 <_data_lma+0x79d024>
     83a:	02f70733          	mul	a4,a4,a5
     83e:	fdc42783          	lw	a5,-36(s0)
     842:	c398                	sw	a4,0(a5)
C:/Users/Accepted/Documents/smart_car/Seekfree_CH32V103R8T6_Opensource_Library/Libraries/wch_Libraries/Peripheral/ch32v10x_rcc.c:504
      break;
     844:	a809                	j	856 <__stack_size+0x56>
C:/Users/Accepted/Documents/smart_car/Seekfree_CH32V103R8T6_Opensource_Library/Libraries/wch_Libraries/Peripheral/ch32v10x_rcc.c:507

    default:
      RCC_Clocks->SYSCLK_Frequency = HSI_VALUE;
     846:	fdc42783          	lw	a5,-36(s0)
     84a:	007a1737          	lui	a4,0x7a1
     84e:	20070713          	addi	a4,a4,512 # 7a1200 <_data_lma+0x79d024>
     852:	c398                	sw	a4,0(a5)
C:/Users/Accepted/Documents/smart_car/Seekfree_CH32V103R8T6_Opensource_Library/Libraries/wch_Libraries/Peripheral/ch32v10x_rcc.c:508
      break;
     854:	0001                	nop
C:/Users/Accepted/Documents/smart_car/Seekfree_CH32V103R8T6_Opensource_Library/Libraries/wch_Libraries/Peripheral/ch32v10x_rcc.c:511
  }

  tmp = RCC->CFGR0 & CFGR0_HPRE_Set_Mask;
     856:	400217b7          	lui	a5,0x40021
     85a:	43dc                	lw	a5,4(a5)
     85c:	0f07f793          	andi	a5,a5,240
     860:	fef42623          	sw	a5,-20(s0)
C:/Users/Accepted/Documents/smart_car/Seekfree_CH32V103R8T6_Opensource_Library/Libraries/wch_Libraries/Peripheral/ch32v10x_rcc.c:512
  tmp = tmp >> 4;
     864:	fec42783          	lw	a5,-20(s0)
     868:	8391                	srli	a5,a5,0x4
     86a:	fef42623          	sw	a5,-20(s0)
C:/Users/Accepted/Documents/smart_car/Seekfree_CH32V103R8T6_Opensource_Library/Libraries/wch_Libraries/Peripheral/ch32v10x_rcc.c:513
  presc = APBAHBPrescTable[tmp];
     86e:	200007b7          	lui	a5,0x20000
     872:	00078713          	mv	a4,a5
     876:	fec42783          	lw	a5,-20(s0)
     87a:	97ba                	add	a5,a5,a4
     87c:	0007c783          	lbu	a5,0(a5) # 20000000 <_data_vma>
     880:	0ff7f793          	andi	a5,a5,255
     884:	fef42023          	sw	a5,-32(s0)
C:/Users/Accepted/Documents/smart_car/Seekfree_CH32V103R8T6_Opensource_Library/Libraries/wch_Libraries/Peripheral/ch32v10x_rcc.c:514
  RCC_Clocks->HCLK_Frequency = RCC_Clocks->SYSCLK_Frequency >> presc;
     888:	fdc42783          	lw	a5,-36(s0)
     88c:	4398                	lw	a4,0(a5)
     88e:	fe042783          	lw	a5,-32(s0)
     892:	00f75733          	srl	a4,a4,a5
     896:	fdc42783          	lw	a5,-36(s0)
     89a:	c3d8                	sw	a4,4(a5)
C:/Users/Accepted/Documents/smart_car/Seekfree_CH32V103R8T6_Opensource_Library/Libraries/wch_Libraries/Peripheral/ch32v10x_rcc.c:515
  tmp = RCC->CFGR0 & CFGR0_PPRE1_Set_Mask;
     89c:	400217b7          	lui	a5,0x40021
     8a0:	43dc                	lw	a5,4(a5)
     8a2:	7007f793          	andi	a5,a5,1792
     8a6:	fef42623          	sw	a5,-20(s0)
C:/Users/Accepted/Documents/smart_car/Seekfree_CH32V103R8T6_Opensource_Library/Libraries/wch_Libraries/Peripheral/ch32v10x_rcc.c:516
  tmp = tmp >> 8;
     8aa:	fec42783          	lw	a5,-20(s0)
     8ae:	83a1                	srli	a5,a5,0x8
     8b0:	fef42623          	sw	a5,-20(s0)
C:/Users/Accepted/Documents/smart_car/Seekfree_CH32V103R8T6_Opensource_Library/Libraries/wch_Libraries/Peripheral/ch32v10x_rcc.c:517
  presc = APBAHBPrescTable[tmp];
     8b4:	200007b7          	lui	a5,0x20000
     8b8:	00078713          	mv	a4,a5
     8bc:	fec42783          	lw	a5,-20(s0)
     8c0:	97ba                	add	a5,a5,a4
     8c2:	0007c783          	lbu	a5,0(a5) # 20000000 <_data_vma>
     8c6:	0ff7f793          	andi	a5,a5,255
     8ca:	fef42023          	sw	a5,-32(s0)
C:/Users/Accepted/Documents/smart_car/Seekfree_CH32V103R8T6_Opensource_Library/Libraries/wch_Libraries/Peripheral/ch32v10x_rcc.c:518
  RCC_Clocks->PCLK1_Frequency = RCC_Clocks->HCLK_Frequency >> presc;
     8ce:	fdc42783          	lw	a5,-36(s0)
     8d2:	43d8                	lw	a4,4(a5)
     8d4:	fe042783          	lw	a5,-32(s0)
     8d8:	00f75733          	srl	a4,a4,a5
     8dc:	fdc42783          	lw	a5,-36(s0)
     8e0:	c798                	sw	a4,8(a5)
C:/Users/Accepted/Documents/smart_car/Seekfree_CH32V103R8T6_Opensource_Library/Libraries/wch_Libraries/Peripheral/ch32v10x_rcc.c:519
  tmp = RCC->CFGR0 & CFGR0_PPRE2_Set_Mask;
     8e2:	400217b7          	lui	a5,0x40021
     8e6:	43d8                	lw	a4,4(a5)
     8e8:	6791                	lui	a5,0x4
     8ea:	80078793          	addi	a5,a5,-2048 # 3800 <TIM1_UP_IRQHandler+0x2>
     8ee:	8ff9                	and	a5,a5,a4
     8f0:	fef42623          	sw	a5,-20(s0)
C:/Users/Accepted/Documents/smart_car/Seekfree_CH32V103R8T6_Opensource_Library/Libraries/wch_Libraries/Peripheral/ch32v10x_rcc.c:520
  tmp = tmp >> 11;
     8f4:	fec42783          	lw	a5,-20(s0)
     8f8:	83ad                	srli	a5,a5,0xb
     8fa:	fef42623          	sw	a5,-20(s0)
C:/Users/Accepted/Documents/smart_car/Seekfree_CH32V103R8T6_Opensource_Library/Libraries/wch_Libraries/Peripheral/ch32v10x_rcc.c:521
  presc = APBAHBPrescTable[tmp];
     8fe:	200007b7          	lui	a5,0x20000
     902:	00078713          	mv	a4,a5
     906:	fec42783          	lw	a5,-20(s0)
     90a:	97ba                	add	a5,a5,a4
     90c:	0007c783          	lbu	a5,0(a5) # 20000000 <_data_vma>
     910:	0ff7f793          	andi	a5,a5,255
     914:	fef42023          	sw	a5,-32(s0)
C:/Users/Accepted/Documents/smart_car/Seekfree_CH32V103R8T6_Opensource_Library/Libraries/wch_Libraries/Peripheral/ch32v10x_rcc.c:522
  RCC_Clocks->PCLK2_Frequency = RCC_Clocks->HCLK_Frequency >> presc;
     918:	fdc42783          	lw	a5,-36(s0)
     91c:	43d8                	lw	a4,4(a5)
     91e:	fe042783          	lw	a5,-32(s0)
     922:	00f75733          	srl	a4,a4,a5
     926:	fdc42783          	lw	a5,-36(s0)
     92a:	c7d8                	sw	a4,12(a5)
C:/Users/Accepted/Documents/smart_car/Seekfree_CH32V103R8T6_Opensource_Library/Libraries/wch_Libraries/Peripheral/ch32v10x_rcc.c:523
  tmp = RCC->CFGR0 & CFGR0_ADCPRE_Set_Mask;
     92c:	400217b7          	lui	a5,0x40021
     930:	43d8                	lw	a4,4(a5)
     932:	67b1                	lui	a5,0xc
     934:	8ff9                	and	a5,a5,a4
     936:	fef42623          	sw	a5,-20(s0)
C:/Users/Accepted/Documents/smart_car/Seekfree_CH32V103R8T6_Opensource_Library/Libraries/wch_Libraries/Peripheral/ch32v10x_rcc.c:524
  tmp = tmp >> 14;
     93a:	fec42783          	lw	a5,-20(s0)
     93e:	83b9                	srli	a5,a5,0xe
     940:	fef42623          	sw	a5,-20(s0)
C:/Users/Accepted/Documents/smart_car/Seekfree_CH32V103R8T6_Opensource_Library/Libraries/wch_Libraries/Peripheral/ch32v10x_rcc.c:525
  presc = ADCPrescTable[tmp];
     944:	200007b7          	lui	a5,0x20000
     948:	01078713          	addi	a4,a5,16 # 20000010 <ADCPrescTable>
     94c:	fec42783          	lw	a5,-20(s0)
     950:	97ba                	add	a5,a5,a4
     952:	0007c783          	lbu	a5,0(a5)
     956:	0ff7f793          	andi	a5,a5,255
     95a:	fef42023          	sw	a5,-32(s0)
C:/Users/Accepted/Documents/smart_car/Seekfree_CH32V103R8T6_Opensource_Library/Libraries/wch_Libraries/Peripheral/ch32v10x_rcc.c:526
  RCC_Clocks->ADCCLK_Frequency = RCC_Clocks->PCLK2_Frequency / presc;
     95e:	fdc42783          	lw	a5,-36(s0)
     962:	47d8                	lw	a4,12(a5)
     964:	fe042783          	lw	a5,-32(s0)
     968:	02f75733          	divu	a4,a4,a5
     96c:	fdc42783          	lw	a5,-36(s0)
     970:	cb98                	sw	a4,16(a5)
C:/Users/Accepted/Documents/smart_car/Seekfree_CH32V103R8T6_Opensource_Library/Libraries/wch_Libraries/Peripheral/ch32v10x_rcc.c:527
}
     972:	0001                	nop
     974:	5432                	lw	s0,44(sp)
     976:	6145                	addi	sp,sp,48
     978:	8082                	ret

0000097a <RCC_APB2PeriphClockCmd>:
RCC_APB2PeriphClockCmd():
C:/Users/Accepted/Documents/smart_car/Seekfree_CH32V103R8T6_Opensource_Library/Libraries/wch_Libraries/Peripheral/ch32v10x_rcc.c:570
*                    RCC_APB2Periph_USART1.
*                  NewState: ENABLE or DISABLE
* Return         : None
*******************************************************************************/	
void RCC_APB2PeriphClockCmd(uint32_t RCC_APB2Periph, FunctionalState NewState)
{
     97a:	1101                	addi	sp,sp,-32
     97c:	ce22                	sw	s0,28(sp)
     97e:	1000                	addi	s0,sp,32
     980:	fea42623          	sw	a0,-20(s0)
     984:	feb42423          	sw	a1,-24(s0)
C:/Users/Accepted/Documents/smart_car/Seekfree_CH32V103R8T6_Opensource_Library/Libraries/wch_Libraries/Peripheral/ch32v10x_rcc.c:571
  if (NewState != DISABLE)
     988:	fe842783          	lw	a5,-24(s0)
     98c:	cb99                	beqz	a5,9a2 <RCC_APB2PeriphClockCmd+0x28>
C:/Users/Accepted/Documents/smart_car/Seekfree_CH32V103R8T6_Opensource_Library/Libraries/wch_Libraries/Peripheral/ch32v10x_rcc.c:573
  {
    RCC->APB2PCENR |= RCC_APB2Periph;
     98e:	400217b7          	lui	a5,0x40021
     992:	4f94                	lw	a3,24(a5)
     994:	400217b7          	lui	a5,0x40021
     998:	fec42703          	lw	a4,-20(s0)
     99c:	8f55                	or	a4,a4,a3
     99e:	cf98                	sw	a4,24(a5)
C:/Users/Accepted/Documents/smart_car/Seekfree_CH32V103R8T6_Opensource_Library/Libraries/wch_Libraries/Peripheral/ch32v10x_rcc.c:579
  }
  else
  {
    RCC->APB2PCENR &= ~RCC_APB2Periph;
  }
}
     9a0:	a821                	j	9b8 <RCC_APB2PeriphClockCmd+0x3e>
C:/Users/Accepted/Documents/smart_car/Seekfree_CH32V103R8T6_Opensource_Library/Libraries/wch_Libraries/Peripheral/ch32v10x_rcc.c:577
    RCC->APB2PCENR &= ~RCC_APB2Periph;
     9a2:	400217b7          	lui	a5,0x40021
     9a6:	4f94                	lw	a3,24(a5)
     9a8:	fec42783          	lw	a5,-20(s0)
     9ac:	fff7c713          	not	a4,a5
     9b0:	400217b7          	lui	a5,0x40021
     9b4:	8f75                	and	a4,a4,a3
     9b6:	cf98                	sw	a4,24(a5)
C:/Users/Accepted/Documents/smart_car/Seekfree_CH32V103R8T6_Opensource_Library/Libraries/wch_Libraries/Peripheral/ch32v10x_rcc.c:579
}
     9b8:	0001                	nop
     9ba:	4472                	lw	s0,28(sp)
     9bc:	6105                	addi	sp,sp,32
     9be:	8082                	ret

000009c0 <RCC_APB1PeriphClockCmd>:
RCC_APB1PeriphClockCmd():
C:/Users/Accepted/Documents/smart_car/Seekfree_CH32V103R8T6_Opensource_Library/Libraries/wch_Libraries/Peripheral/ch32v10x_rcc.c:603
*                    RCC_APB1Periph_DAC.                
*                  NewState: ENABLE or DISABLE.
* Return         : None
*******************************************************************************/	
void RCC_APB1PeriphClockCmd(uint32_t RCC_APB1Periph, FunctionalState NewState)
{
     9c0:	1101                	addi	sp,sp,-32
     9c2:	ce22                	sw	s0,28(sp)
     9c4:	1000                	addi	s0,sp,32
     9c6:	fea42623          	sw	a0,-20(s0)
     9ca:	feb42423          	sw	a1,-24(s0)
C:/Users/Accepted/Documents/smart_car/Seekfree_CH32V103R8T6_Opensource_Library/Libraries/wch_Libraries/Peripheral/ch32v10x_rcc.c:604
  if (NewState != DISABLE)
     9ce:	fe842783          	lw	a5,-24(s0)
     9d2:	cb99                	beqz	a5,9e8 <RCC_APB1PeriphClockCmd+0x28>
C:/Users/Accepted/Documents/smart_car/Seekfree_CH32V103R8T6_Opensource_Library/Libraries/wch_Libraries/Peripheral/ch32v10x_rcc.c:606
  {
    RCC->APB1PCENR |= RCC_APB1Periph;
     9d4:	400217b7          	lui	a5,0x40021
     9d8:	4fd4                	lw	a3,28(a5)
     9da:	400217b7          	lui	a5,0x40021
     9de:	fec42703          	lw	a4,-20(s0)
     9e2:	8f55                	or	a4,a4,a3
     9e4:	cfd8                	sw	a4,28(a5)
C:/Users/Accepted/Documents/smart_car/Seekfree_CH32V103R8T6_Opensource_Library/Libraries/wch_Libraries/Peripheral/ch32v10x_rcc.c:612
  }
  else
  {
    RCC->APB1PCENR &= ~RCC_APB1Periph;
  }
}
     9e6:	a821                	j	9fe <RCC_APB1PeriphClockCmd+0x3e>
C:/Users/Accepted/Documents/smart_car/Seekfree_CH32V103R8T6_Opensource_Library/Libraries/wch_Libraries/Peripheral/ch32v10x_rcc.c:610
    RCC->APB1PCENR &= ~RCC_APB1Periph;
     9e8:	400217b7          	lui	a5,0x40021
     9ec:	4fd4                	lw	a3,28(a5)
     9ee:	fec42783          	lw	a5,-20(s0)
     9f2:	fff7c713          	not	a4,a5
     9f6:	400217b7          	lui	a5,0x40021
     9fa:	8f75                	and	a4,a4,a3
     9fc:	cfd8                	sw	a4,28(a5)
C:/Users/Accepted/Documents/smart_car/Seekfree_CH32V103R8T6_Opensource_Library/Libraries/wch_Libraries/Peripheral/ch32v10x_rcc.c:612
}
     9fe:	0001                	nop
     a00:	4472                	lw	s0,28(sp)
     a02:	6105                	addi	sp,sp,32
     a04:	8082                	ret

00000a06 <RCC_APB2PeriphResetCmd>:
RCC_APB2PeriphResetCmd():
C:/Users/Accepted/Documents/smart_car/Seekfree_CH32V103R8T6_Opensource_Library/Libraries/wch_Libraries/Peripheral/ch32v10x_rcc.c:631
*                    RCC_APB2Periph_USART1.                
*                  NewState: ENABLE or DISABLE.
* Return         : None
*******************************************************************************/	
void RCC_APB2PeriphResetCmd(uint32_t RCC_APB2Periph, FunctionalState NewState)
{
     a06:	1101                	addi	sp,sp,-32
     a08:	ce22                	sw	s0,28(sp)
     a0a:	1000                	addi	s0,sp,32
     a0c:	fea42623          	sw	a0,-20(s0)
     a10:	feb42423          	sw	a1,-24(s0)
C:/Users/Accepted/Documents/smart_car/Seekfree_CH32V103R8T6_Opensource_Library/Libraries/wch_Libraries/Peripheral/ch32v10x_rcc.c:632
  if (NewState != DISABLE)
     a14:	fe842783          	lw	a5,-24(s0)
     a18:	cb99                	beqz	a5,a2e <RCC_APB2PeriphResetCmd+0x28>
C:/Users/Accepted/Documents/smart_car/Seekfree_CH32V103R8T6_Opensource_Library/Libraries/wch_Libraries/Peripheral/ch32v10x_rcc.c:634
  {
    RCC->APB2PRSTR |= RCC_APB2Periph;
     a1a:	400217b7          	lui	a5,0x40021
     a1e:	47d4                	lw	a3,12(a5)
     a20:	400217b7          	lui	a5,0x40021
     a24:	fec42703          	lw	a4,-20(s0)
     a28:	8f55                	or	a4,a4,a3
     a2a:	c7d8                	sw	a4,12(a5)
C:/Users/Accepted/Documents/smart_car/Seekfree_CH32V103R8T6_Opensource_Library/Libraries/wch_Libraries/Peripheral/ch32v10x_rcc.c:640
  }
  else
  {
    RCC->APB2PRSTR &= ~RCC_APB2Periph;
  }
}
     a2c:	a821                	j	a44 <RCC_APB2PeriphResetCmd+0x3e>
C:/Users/Accepted/Documents/smart_car/Seekfree_CH32V103R8T6_Opensource_Library/Libraries/wch_Libraries/Peripheral/ch32v10x_rcc.c:638
    RCC->APB2PRSTR &= ~RCC_APB2Periph;
     a2e:	400217b7          	lui	a5,0x40021
     a32:	47d4                	lw	a3,12(a5)
     a34:	fec42783          	lw	a5,-20(s0)
     a38:	fff7c713          	not	a4,a5
     a3c:	400217b7          	lui	a5,0x40021
     a40:	8f75                	and	a4,a4,a3
     a42:	c7d8                	sw	a4,12(a5)
C:/Users/Accepted/Documents/smart_car/Seekfree_CH32V103R8T6_Opensource_Library/Libraries/wch_Libraries/Peripheral/ch32v10x_rcc.c:640
}
     a44:	0001                	nop
     a46:	4472                	lw	s0,28(sp)
     a48:	6105                	addi	sp,sp,32
     a4a:	8082                	ret

00000a4c <TIM_TimeBaseInit>:
TIM_TimeBaseInit():
C:/Users/Accepted/Documents/smart_car/Seekfree_CH32V103R8T6_Opensource_Library/Libraries/wch_Libraries/Peripheral/ch32v10x_tim.c:67
*                  TIM_TimeBaseInitStruct: pointer to a TIM_TimeBaseInitTypeDef
*      structure.
* Return         : None
*******************************************************************************/
void TIM_TimeBaseInit(TIM_TypeDef* TIMx, TIM_TimeBaseInitTypeDef* TIM_TimeBaseInitStruct)
{
     a4c:	7179                	addi	sp,sp,-48
     a4e:	d622                	sw	s0,44(sp)
     a50:	1800                	addi	s0,sp,48
     a52:	fca42e23          	sw	a0,-36(s0)
     a56:	fcb42c23          	sw	a1,-40(s0)
C:/Users/Accepted/Documents/smart_car/Seekfree_CH32V103R8T6_Opensource_Library/Libraries/wch_Libraries/Peripheral/ch32v10x_tim.c:68
  uint16_t tmpcr1 = 0;
     a5a:	fe041723          	sh	zero,-18(s0)
C:/Users/Accepted/Documents/smart_car/Seekfree_CH32V103R8T6_Opensource_Library/Libraries/wch_Libraries/Peripheral/ch32v10x_tim.c:70

  tmpcr1 = TIMx->CTLR1;  
     a5e:	fdc42783          	lw	a5,-36(s0)
     a62:	0007d783          	lhu	a5,0(a5) # 40021000 <_eusrstack+0x2001c000>
     a66:	fef41723          	sh	a5,-18(s0)
C:/Users/Accepted/Documents/smart_car/Seekfree_CH32V103R8T6_Opensource_Library/Libraries/wch_Libraries/Peripheral/ch32v10x_tim.c:72

  if((TIMx == TIM1) || (TIMx == TIM2) || (TIMx == TIM3)|| (TIMx == TIM4)) 
     a6a:	fdc42703          	lw	a4,-36(s0)
     a6e:	400137b7          	lui	a5,0x40013
     a72:	c0078793          	addi	a5,a5,-1024 # 40012c00 <_eusrstack+0x2000dc00>
     a76:	02f70863          	beq	a4,a5,aa6 <TIM_TimeBaseInit+0x5a>
C:/Users/Accepted/Documents/smart_car/Seekfree_CH32V103R8T6_Opensource_Library/Libraries/wch_Libraries/Peripheral/ch32v10x_tim.c:72 (discriminator 1)
     a7a:	fdc42703          	lw	a4,-36(s0)
     a7e:	400007b7          	lui	a5,0x40000
     a82:	02f70263          	beq	a4,a5,aa6 <TIM_TimeBaseInit+0x5a>
C:/Users/Accepted/Documents/smart_car/Seekfree_CH32V103R8T6_Opensource_Library/Libraries/wch_Libraries/Peripheral/ch32v10x_tim.c:72 (discriminator 2)
     a86:	fdc42703          	lw	a4,-36(s0)
     a8a:	400007b7          	lui	a5,0x40000
     a8e:	40078793          	addi	a5,a5,1024 # 40000400 <_eusrstack+0x1fffb400>
     a92:	00f70a63          	beq	a4,a5,aa6 <TIM_TimeBaseInit+0x5a>
C:/Users/Accepted/Documents/smart_car/Seekfree_CH32V103R8T6_Opensource_Library/Libraries/wch_Libraries/Peripheral/ch32v10x_tim.c:72 (discriminator 3)
     a96:	fdc42703          	lw	a4,-36(s0)
     a9a:	400017b7          	lui	a5,0x40001
     a9e:	80078793          	addi	a5,a5,-2048 # 40000800 <_eusrstack+0x1fffb800>
     aa2:	02f71163          	bne	a4,a5,ac4 <TIM_TimeBaseInit+0x78>
C:/Users/Accepted/Documents/smart_car/Seekfree_CH32V103R8T6_Opensource_Library/Libraries/wch_Libraries/Peripheral/ch32v10x_tim.c:74
  {
    tmpcr1 &= (uint16_t)(~((uint16_t)(TIM_DIR | TIM_CMS)));
     aa6:	fee45783          	lhu	a5,-18(s0)
     aaa:	f8f7f793          	andi	a5,a5,-113
     aae:	fef41723          	sh	a5,-18(s0)
C:/Users/Accepted/Documents/smart_car/Seekfree_CH32V103R8T6_Opensource_Library/Libraries/wch_Libraries/Peripheral/ch32v10x_tim.c:75
    tmpcr1 |= (uint32_t)TIM_TimeBaseInitStruct->TIM_CounterMode;
     ab2:	fd842783          	lw	a5,-40(s0)
     ab6:	0027d703          	lhu	a4,2(a5)
     aba:	fee45783          	lhu	a5,-18(s0)
     abe:	8fd9                	or	a5,a5,a4
     ac0:	fef41723          	sh	a5,-18(s0)
C:/Users/Accepted/Documents/smart_car/Seekfree_CH32V103R8T6_Opensource_Library/Libraries/wch_Libraries/Peripheral/ch32v10x_tim.c:78
  }

  tmpcr1 &= (uint16_t)(~((uint16_t)TIM_CTLR1_CKD));
     ac4:	fee45783          	lhu	a5,-18(s0)
     ac8:	cff7f793          	andi	a5,a5,-769
     acc:	fef41723          	sh	a5,-18(s0)
C:/Users/Accepted/Documents/smart_car/Seekfree_CH32V103R8T6_Opensource_Library/Libraries/wch_Libraries/Peripheral/ch32v10x_tim.c:79
  tmpcr1 |= (uint32_t)TIM_TimeBaseInitStruct->TIM_ClockDivision;
     ad0:	fd842783          	lw	a5,-40(s0)
     ad4:	0067d703          	lhu	a4,6(a5)
     ad8:	fee45783          	lhu	a5,-18(s0)
     adc:	8fd9                	or	a5,a5,a4
     ade:	fef41723          	sh	a5,-18(s0)
C:/Users/Accepted/Documents/smart_car/Seekfree_CH32V103R8T6_Opensource_Library/Libraries/wch_Libraries/Peripheral/ch32v10x_tim.c:81

  TIMx->CTLR1 = tmpcr1;
     ae2:	fdc42783          	lw	a5,-36(s0)
     ae6:	fee45703          	lhu	a4,-18(s0)
     aea:	00e79023          	sh	a4,0(a5)
C:/Users/Accepted/Documents/smart_car/Seekfree_CH32V103R8T6_Opensource_Library/Libraries/wch_Libraries/Peripheral/ch32v10x_tim.c:82
  TIMx->ATRLR = TIM_TimeBaseInitStruct->TIM_Period ;
     aee:	fd842783          	lw	a5,-40(s0)
     af2:	0047d703          	lhu	a4,4(a5)
     af6:	fdc42783          	lw	a5,-36(s0)
     afa:	02e79623          	sh	a4,44(a5)
C:/Users/Accepted/Documents/smart_car/Seekfree_CH32V103R8T6_Opensource_Library/Libraries/wch_Libraries/Peripheral/ch32v10x_tim.c:83
  TIMx->PSC = TIM_TimeBaseInitStruct->TIM_Prescaler;
     afe:	fd842783          	lw	a5,-40(s0)
     b02:	0007d703          	lhu	a4,0(a5)
     b06:	fdc42783          	lw	a5,-36(s0)
     b0a:	02e79423          	sh	a4,40(a5)
C:/Users/Accepted/Documents/smart_car/Seekfree_CH32V103R8T6_Opensource_Library/Libraries/wch_Libraries/Peripheral/ch32v10x_tim.c:85
    
  if (TIMx == TIM1)  
     b0e:	fdc42703          	lw	a4,-36(s0)
     b12:	400137b7          	lui	a5,0x40013
     b16:	c0078793          	addi	a5,a5,-1024 # 40012c00 <_eusrstack+0x2000dc00>
     b1a:	00f71d63          	bne	a4,a5,b34 <TIM_TimeBaseInit+0xe8>
C:/Users/Accepted/Documents/smart_car/Seekfree_CH32V103R8T6_Opensource_Library/Libraries/wch_Libraries/Peripheral/ch32v10x_tim.c:87
  {
    TIMx->RPTCR = TIM_TimeBaseInitStruct->TIM_RepetitionCounter;
     b1e:	fd842783          	lw	a5,-40(s0)
     b22:	0087c783          	lbu	a5,8(a5)
     b26:	01079713          	slli	a4,a5,0x10
     b2a:	8341                	srli	a4,a4,0x10
     b2c:	fdc42783          	lw	a5,-36(s0)
     b30:	02e79823          	sh	a4,48(a5)
C:/Users/Accepted/Documents/smart_car/Seekfree_CH32V103R8T6_Opensource_Library/Libraries/wch_Libraries/Peripheral/ch32v10x_tim.c:90
  }

  TIMx->SWEVGR = TIM_PSCReloadMode_Immediate;           
     b34:	fdc42783          	lw	a5,-36(s0)
     b38:	4705                	li	a4,1
     b3a:	00e79a23          	sh	a4,20(a5)
C:/Users/Accepted/Documents/smart_car/Seekfree_CH32V103R8T6_Opensource_Library/Libraries/wch_Libraries/Peripheral/ch32v10x_tim.c:91
}
     b3e:	0001                	nop
     b40:	5432                	lw	s0,44(sp)
     b42:	6145                	addi	sp,sp,48
     b44:	8082                	ret

00000b46 <TIM_OC1Init>:
TIM_OC1Init():
C:/Users/Accepted/Documents/smart_car/Seekfree_CH32V103R8T6_Opensource_Library/Libraries/wch_Libraries/Peripheral/ch32v10x_tim.c:102
* Input          : TIMx: where x can be 1 to 4 to select the TIM peripheral.
*                  TIM_OCInitStruct: pointer to a TIM_OCInitTypeDef structure.
* Return         : None
*******************************************************************************/
void TIM_OC1Init(TIM_TypeDef* TIMx, TIM_OCInitTypeDef* TIM_OCInitStruct)
{
     b46:	7179                	addi	sp,sp,-48
     b48:	d622                	sw	s0,44(sp)
     b4a:	1800                	addi	s0,sp,48
     b4c:	fca42e23          	sw	a0,-36(s0)
     b50:	fcb42c23          	sw	a1,-40(s0)
C:/Users/Accepted/Documents/smart_car/Seekfree_CH32V103R8T6_Opensource_Library/Libraries/wch_Libraries/Peripheral/ch32v10x_tim.c:103
  uint16_t tmpccmrx = 0, tmpccer = 0, tmpcr2 = 0;
     b54:	fe041523          	sh	zero,-22(s0)
     b58:	fe041723          	sh	zero,-18(s0)
     b5c:	fe041623          	sh	zero,-20(s0)
C:/Users/Accepted/Documents/smart_car/Seekfree_CH32V103R8T6_Opensource_Library/Libraries/wch_Libraries/Peripheral/ch32v10x_tim.c:105
     
  TIMx->CCER &= (uint16_t)(~(uint16_t)TIM_CC1E);
     b60:	fdc42783          	lw	a5,-36(s0)
     b64:	0207d783          	lhu	a5,32(a5)
     b68:	07c2                	slli	a5,a5,0x10
     b6a:	83c1                	srli	a5,a5,0x10
     b6c:	9bf9                	andi	a5,a5,-2
     b6e:	01079713          	slli	a4,a5,0x10
     b72:	8341                	srli	a4,a4,0x10
     b74:	fdc42783          	lw	a5,-36(s0)
     b78:	02e79023          	sh	a4,32(a5)
C:/Users/Accepted/Documents/smart_car/Seekfree_CH32V103R8T6_Opensource_Library/Libraries/wch_Libraries/Peripheral/ch32v10x_tim.c:106
  tmpccer = TIMx->CCER;
     b7c:	fdc42783          	lw	a5,-36(s0)
     b80:	0207d783          	lhu	a5,32(a5)
     b84:	fef41723          	sh	a5,-18(s0)
C:/Users/Accepted/Documents/smart_car/Seekfree_CH32V103R8T6_Opensource_Library/Libraries/wch_Libraries/Peripheral/ch32v10x_tim.c:107
  tmpcr2 =  TIMx->CTLR2;
     b88:	fdc42783          	lw	a5,-36(s0)
     b8c:	0047d783          	lhu	a5,4(a5)
     b90:	fef41623          	sh	a5,-20(s0)
C:/Users/Accepted/Documents/smart_car/Seekfree_CH32V103R8T6_Opensource_Library/Libraries/wch_Libraries/Peripheral/ch32v10x_tim.c:108
  tmpccmrx = TIMx->CHCTLR1;
     b94:	fdc42783          	lw	a5,-36(s0)
     b98:	0187d783          	lhu	a5,24(a5)
     b9c:	fef41523          	sh	a5,-22(s0)
C:/Users/Accepted/Documents/smart_car/Seekfree_CH32V103R8T6_Opensource_Library/Libraries/wch_Libraries/Peripheral/ch32v10x_tim.c:109
  tmpccmrx &= (uint16_t)(~((uint16_t)TIM_OC1M));
     ba0:	fea45783          	lhu	a5,-22(s0)
     ba4:	f8f7f793          	andi	a5,a5,-113
     ba8:	fef41523          	sh	a5,-22(s0)
C:/Users/Accepted/Documents/smart_car/Seekfree_CH32V103R8T6_Opensource_Library/Libraries/wch_Libraries/Peripheral/ch32v10x_tim.c:110
  tmpccmrx &= (uint16_t)(~((uint16_t)TIM_CC1S));
     bac:	fea45783          	lhu	a5,-22(s0)
     bb0:	9bf1                	andi	a5,a5,-4
     bb2:	fef41523          	sh	a5,-22(s0)
C:/Users/Accepted/Documents/smart_car/Seekfree_CH32V103R8T6_Opensource_Library/Libraries/wch_Libraries/Peripheral/ch32v10x_tim.c:111
  tmpccmrx |= TIM_OCInitStruct->TIM_OCMode;
     bb6:	fd842783          	lw	a5,-40(s0)
     bba:	0007d703          	lhu	a4,0(a5)
     bbe:	fea45783          	lhu	a5,-22(s0)
     bc2:	8fd9                	or	a5,a5,a4
     bc4:	fef41523          	sh	a5,-22(s0)
C:/Users/Accepted/Documents/smart_car/Seekfree_CH32V103R8T6_Opensource_Library/Libraries/wch_Libraries/Peripheral/ch32v10x_tim.c:112
  tmpccer &= (uint16_t)(~((uint16_t)TIM_CC1P));
     bc8:	fee45783          	lhu	a5,-18(s0)
     bcc:	9bf5                	andi	a5,a5,-3
     bce:	fef41723          	sh	a5,-18(s0)
C:/Users/Accepted/Documents/smart_car/Seekfree_CH32V103R8T6_Opensource_Library/Libraries/wch_Libraries/Peripheral/ch32v10x_tim.c:113
  tmpccer |= TIM_OCInitStruct->TIM_OCPolarity;
     bd2:	fd842783          	lw	a5,-40(s0)
     bd6:	0087d703          	lhu	a4,8(a5)
     bda:	fee45783          	lhu	a5,-18(s0)
     bde:	8fd9                	or	a5,a5,a4
     be0:	fef41723          	sh	a5,-18(s0)
C:/Users/Accepted/Documents/smart_car/Seekfree_CH32V103R8T6_Opensource_Library/Libraries/wch_Libraries/Peripheral/ch32v10x_tim.c:114
  tmpccer |= TIM_OCInitStruct->TIM_OutputState;
     be4:	fd842783          	lw	a5,-40(s0)
     be8:	0027d703          	lhu	a4,2(a5)
     bec:	fee45783          	lhu	a5,-18(s0)
     bf0:	8fd9                	or	a5,a5,a4
     bf2:	fef41723          	sh	a5,-18(s0)
C:/Users/Accepted/Documents/smart_car/Seekfree_CH32V103R8T6_Opensource_Library/Libraries/wch_Libraries/Peripheral/ch32v10x_tim.c:116
    
  if(TIMx == TIM1)
     bf6:	fdc42703          	lw	a4,-36(s0)
     bfa:	400137b7          	lui	a5,0x40013
     bfe:	c0078793          	addi	a5,a5,-1024 # 40012c00 <_eusrstack+0x2000dc00>
     c02:	06f71c63          	bne	a4,a5,c7a <TIM_OC1Init+0x134>
C:/Users/Accepted/Documents/smart_car/Seekfree_CH32V103R8T6_Opensource_Library/Libraries/wch_Libraries/Peripheral/ch32v10x_tim.c:118
  {
    tmpccer &= (uint16_t)(~((uint16_t)TIM_CC1NP));
     c06:	fee45783          	lhu	a5,-18(s0)
     c0a:	9bdd                	andi	a5,a5,-9
     c0c:	fef41723          	sh	a5,-18(s0)
C:/Users/Accepted/Documents/smart_car/Seekfree_CH32V103R8T6_Opensource_Library/Libraries/wch_Libraries/Peripheral/ch32v10x_tim.c:119
    tmpccer |= TIM_OCInitStruct->TIM_OCNPolarity;
     c10:	fd842783          	lw	a5,-40(s0)
     c14:	00a7d703          	lhu	a4,10(a5)
     c18:	fee45783          	lhu	a5,-18(s0)
     c1c:	8fd9                	or	a5,a5,a4
     c1e:	fef41723          	sh	a5,-18(s0)
C:/Users/Accepted/Documents/smart_car/Seekfree_CH32V103R8T6_Opensource_Library/Libraries/wch_Libraries/Peripheral/ch32v10x_tim.c:121
 
    tmpccer &= (uint16_t)(~((uint16_t)TIM_CC1NE));    
     c22:	fee45783          	lhu	a5,-18(s0)
     c26:	9bed                	andi	a5,a5,-5
     c28:	fef41723          	sh	a5,-18(s0)
C:/Users/Accepted/Documents/smart_car/Seekfree_CH32V103R8T6_Opensource_Library/Libraries/wch_Libraries/Peripheral/ch32v10x_tim.c:122
    tmpccer |= TIM_OCInitStruct->TIM_OutputNState;
     c2c:	fd842783          	lw	a5,-40(s0)
     c30:	0047d703          	lhu	a4,4(a5)
     c34:	fee45783          	lhu	a5,-18(s0)
     c38:	8fd9                	or	a5,a5,a4
     c3a:	fef41723          	sh	a5,-18(s0)
C:/Users/Accepted/Documents/smart_car/Seekfree_CH32V103R8T6_Opensource_Library/Libraries/wch_Libraries/Peripheral/ch32v10x_tim.c:124
    
    tmpcr2 &= (uint16_t)(~((uint16_t)TIM_OIS1));
     c3e:	fec45783          	lhu	a5,-20(s0)
     c42:	eff7f793          	andi	a5,a5,-257
     c46:	fef41623          	sh	a5,-20(s0)
C:/Users/Accepted/Documents/smart_car/Seekfree_CH32V103R8T6_Opensource_Library/Libraries/wch_Libraries/Peripheral/ch32v10x_tim.c:125
    tmpcr2 &= (uint16_t)(~((uint16_t)TIM_OIS1N));
     c4a:	fec45783          	lhu	a5,-20(s0)
     c4e:	dff7f793          	andi	a5,a5,-513
     c52:	fef41623          	sh	a5,-20(s0)
C:/Users/Accepted/Documents/smart_car/Seekfree_CH32V103R8T6_Opensource_Library/Libraries/wch_Libraries/Peripheral/ch32v10x_tim.c:127
    
    tmpcr2 |= TIM_OCInitStruct->TIM_OCIdleState;
     c56:	fd842783          	lw	a5,-40(s0)
     c5a:	00c7d703          	lhu	a4,12(a5)
     c5e:	fec45783          	lhu	a5,-20(s0)
     c62:	8fd9                	or	a5,a5,a4
     c64:	fef41623          	sh	a5,-20(s0)
C:/Users/Accepted/Documents/smart_car/Seekfree_CH32V103R8T6_Opensource_Library/Libraries/wch_Libraries/Peripheral/ch32v10x_tim.c:128
    tmpcr2 |= TIM_OCInitStruct->TIM_OCNIdleState;
     c68:	fd842783          	lw	a5,-40(s0)
     c6c:	00e7d703          	lhu	a4,14(a5)
     c70:	fec45783          	lhu	a5,-20(s0)
     c74:	8fd9                	or	a5,a5,a4
     c76:	fef41623          	sh	a5,-20(s0)
C:/Users/Accepted/Documents/smart_car/Seekfree_CH32V103R8T6_Opensource_Library/Libraries/wch_Libraries/Peripheral/ch32v10x_tim.c:131
  }

  TIMx->CTLR2 = tmpcr2;
     c7a:	fdc42783          	lw	a5,-36(s0)
     c7e:	fec45703          	lhu	a4,-20(s0)
     c82:	00e79223          	sh	a4,4(a5)
C:/Users/Accepted/Documents/smart_car/Seekfree_CH32V103R8T6_Opensource_Library/Libraries/wch_Libraries/Peripheral/ch32v10x_tim.c:132
  TIMx->CHCTLR1 = tmpccmrx;
     c86:	fdc42783          	lw	a5,-36(s0)
     c8a:	fea45703          	lhu	a4,-22(s0)
     c8e:	00e79c23          	sh	a4,24(a5)
C:/Users/Accepted/Documents/smart_car/Seekfree_CH32V103R8T6_Opensource_Library/Libraries/wch_Libraries/Peripheral/ch32v10x_tim.c:133
  TIMx->CH1CVR = TIM_OCInitStruct->TIM_Pulse; 
     c92:	fd842783          	lw	a5,-40(s0)
     c96:	0067d703          	lhu	a4,6(a5)
     c9a:	fdc42783          	lw	a5,-36(s0)
     c9e:	02e79a23          	sh	a4,52(a5)
C:/Users/Accepted/Documents/smart_car/Seekfree_CH32V103R8T6_Opensource_Library/Libraries/wch_Libraries/Peripheral/ch32v10x_tim.c:134
  TIMx->CCER = tmpccer;
     ca2:	fdc42783          	lw	a5,-36(s0)
     ca6:	fee45703          	lhu	a4,-18(s0)
     caa:	02e79023          	sh	a4,32(a5)
C:/Users/Accepted/Documents/smart_car/Seekfree_CH32V103R8T6_Opensource_Library/Libraries/wch_Libraries/Peripheral/ch32v10x_tim.c:135
}
     cae:	0001                	nop
     cb0:	5432                	lw	s0,44(sp)
     cb2:	6145                	addi	sp,sp,48
     cb4:	8082                	ret

00000cb6 <TIM_OC2Init>:
TIM_OC2Init():
C:/Users/Accepted/Documents/smart_car/Seekfree_CH32V103R8T6_Opensource_Library/Libraries/wch_Libraries/Peripheral/ch32v10x_tim.c:146
* Input          : TIMx: where x can be 1 to 4 to select the TIM peripheral.
*                  TIM_OCInitStruct: pointer to a TIM_OCInitTypeDef structure.
* Return         : None
*******************************************************************************/
void TIM_OC2Init(TIM_TypeDef* TIMx, TIM_OCInitTypeDef* TIM_OCInitStruct)
{
     cb6:	7179                	addi	sp,sp,-48
     cb8:	d622                	sw	s0,44(sp)
     cba:	1800                	addi	s0,sp,48
     cbc:	fca42e23          	sw	a0,-36(s0)
     cc0:	fcb42c23          	sw	a1,-40(s0)
C:/Users/Accepted/Documents/smart_car/Seekfree_CH32V103R8T6_Opensource_Library/Libraries/wch_Libraries/Peripheral/ch32v10x_tim.c:147
  uint16_t tmpccmrx = 0, tmpccer = 0, tmpcr2 = 0;
     cc4:	fe041523          	sh	zero,-22(s0)
     cc8:	fe041723          	sh	zero,-18(s0)
     ccc:	fe041623          	sh	zero,-20(s0)
C:/Users/Accepted/Documents/smart_car/Seekfree_CH32V103R8T6_Opensource_Library/Libraries/wch_Libraries/Peripheral/ch32v10x_tim.c:149
   
  TIMx->CCER &= (uint16_t)(~((uint16_t)TIM_CC2E)); 
     cd0:	fdc42783          	lw	a5,-36(s0)
     cd4:	0207d783          	lhu	a5,32(a5)
     cd8:	07c2                	slli	a5,a5,0x10
     cda:	83c1                	srli	a5,a5,0x10
     cdc:	9bbd                	andi	a5,a5,-17
     cde:	01079713          	slli	a4,a5,0x10
     ce2:	8341                	srli	a4,a4,0x10
     ce4:	fdc42783          	lw	a5,-36(s0)
     ce8:	02e79023          	sh	a4,32(a5)
C:/Users/Accepted/Documents/smart_car/Seekfree_CH32V103R8T6_Opensource_Library/Libraries/wch_Libraries/Peripheral/ch32v10x_tim.c:150
  tmpccer = TIMx->CCER;
     cec:	fdc42783          	lw	a5,-36(s0)
     cf0:	0207d783          	lhu	a5,32(a5)
     cf4:	fef41723          	sh	a5,-18(s0)
C:/Users/Accepted/Documents/smart_car/Seekfree_CH32V103R8T6_Opensource_Library/Libraries/wch_Libraries/Peripheral/ch32v10x_tim.c:151
  tmpcr2 =  TIMx->CTLR2;
     cf8:	fdc42783          	lw	a5,-36(s0)
     cfc:	0047d783          	lhu	a5,4(a5)
     d00:	fef41623          	sh	a5,-20(s0)
C:/Users/Accepted/Documents/smart_car/Seekfree_CH32V103R8T6_Opensource_Library/Libraries/wch_Libraries/Peripheral/ch32v10x_tim.c:152
  tmpccmrx = TIMx->CHCTLR1;
     d04:	fdc42783          	lw	a5,-36(s0)
     d08:	0187d783          	lhu	a5,24(a5)
     d0c:	fef41523          	sh	a5,-22(s0)
C:/Users/Accepted/Documents/smart_car/Seekfree_CH32V103R8T6_Opensource_Library/Libraries/wch_Libraries/Peripheral/ch32v10x_tim.c:153
  tmpccmrx &= (uint16_t)(~((uint16_t)TIM_OC2M));
     d10:	fea45703          	lhu	a4,-22(s0)
     d14:	77e5                	lui	a5,0xffff9
     d16:	17fd                	addi	a5,a5,-1
     d18:	8ff9                	and	a5,a5,a4
     d1a:	fef41523          	sh	a5,-22(s0)
C:/Users/Accepted/Documents/smart_car/Seekfree_CH32V103R8T6_Opensource_Library/Libraries/wch_Libraries/Peripheral/ch32v10x_tim.c:154
  tmpccmrx &= (uint16_t)(~((uint16_t)TIM_CC2S));
     d1e:	fea45783          	lhu	a5,-22(s0)
     d22:	cff7f793          	andi	a5,a5,-769
     d26:	fef41523          	sh	a5,-22(s0)
C:/Users/Accepted/Documents/smart_car/Seekfree_CH32V103R8T6_Opensource_Library/Libraries/wch_Libraries/Peripheral/ch32v10x_tim.c:155
  tmpccmrx |= (uint16_t)(TIM_OCInitStruct->TIM_OCMode << 8);
     d2a:	fd842783          	lw	a5,-40(s0)
     d2e:	0007d783          	lhu	a5,0(a5) # ffff9000 <_eusrstack+0xdfff4000>
     d32:	07a2                	slli	a5,a5,0x8
     d34:	01079713          	slli	a4,a5,0x10
     d38:	8341                	srli	a4,a4,0x10
     d3a:	fea45783          	lhu	a5,-22(s0)
     d3e:	8fd9                	or	a5,a5,a4
     d40:	fef41523          	sh	a5,-22(s0)
C:/Users/Accepted/Documents/smart_car/Seekfree_CH32V103R8T6_Opensource_Library/Libraries/wch_Libraries/Peripheral/ch32v10x_tim.c:156
  tmpccer &= (uint16_t)(~((uint16_t)TIM_CC2P));
     d44:	fee45783          	lhu	a5,-18(s0)
     d48:	fdf7f793          	andi	a5,a5,-33
     d4c:	fef41723          	sh	a5,-18(s0)
C:/Users/Accepted/Documents/smart_car/Seekfree_CH32V103R8T6_Opensource_Library/Libraries/wch_Libraries/Peripheral/ch32v10x_tim.c:157
  tmpccer |= (uint16_t)(TIM_OCInitStruct->TIM_OCPolarity << 4);
     d50:	fd842783          	lw	a5,-40(s0)
     d54:	0087d783          	lhu	a5,8(a5)
     d58:	0792                	slli	a5,a5,0x4
     d5a:	01079713          	slli	a4,a5,0x10
     d5e:	8341                	srli	a4,a4,0x10
     d60:	fee45783          	lhu	a5,-18(s0)
     d64:	8fd9                	or	a5,a5,a4
     d66:	fef41723          	sh	a5,-18(s0)
C:/Users/Accepted/Documents/smart_car/Seekfree_CH32V103R8T6_Opensource_Library/Libraries/wch_Libraries/Peripheral/ch32v10x_tim.c:158
  tmpccer |= (uint16_t)(TIM_OCInitStruct->TIM_OutputState << 4);
     d6a:	fd842783          	lw	a5,-40(s0)
     d6e:	0027d783          	lhu	a5,2(a5)
     d72:	0792                	slli	a5,a5,0x4
     d74:	01079713          	slli	a4,a5,0x10
     d78:	8341                	srli	a4,a4,0x10
     d7a:	fee45783          	lhu	a5,-18(s0)
     d7e:	8fd9                	or	a5,a5,a4
     d80:	fef41723          	sh	a5,-18(s0)
C:/Users/Accepted/Documents/smart_car/Seekfree_CH32V103R8T6_Opensource_Library/Libraries/wch_Libraries/Peripheral/ch32v10x_tim.c:160
    
  if(TIMx == TIM1)
     d84:	fdc42703          	lw	a4,-36(s0)
     d88:	400137b7          	lui	a5,0x40013
     d8c:	c0078793          	addi	a5,a5,-1024 # 40012c00 <_eusrstack+0x2000dc00>
     d90:	0af71063          	bne	a4,a5,e30 <TIM_OC2Init+0x17a>
C:/Users/Accepted/Documents/smart_car/Seekfree_CH32V103R8T6_Opensource_Library/Libraries/wch_Libraries/Peripheral/ch32v10x_tim.c:162
  {
    tmpccer &= (uint16_t)(~((uint16_t)TIM_CC2NP));
     d94:	fee45783          	lhu	a5,-18(s0)
     d98:	f7f7f793          	andi	a5,a5,-129
     d9c:	fef41723          	sh	a5,-18(s0)
C:/Users/Accepted/Documents/smart_car/Seekfree_CH32V103R8T6_Opensource_Library/Libraries/wch_Libraries/Peripheral/ch32v10x_tim.c:163
    tmpccer |= (uint16_t)(TIM_OCInitStruct->TIM_OCNPolarity << 4);
     da0:	fd842783          	lw	a5,-40(s0)
     da4:	00a7d783          	lhu	a5,10(a5)
     da8:	0792                	slli	a5,a5,0x4
     daa:	01079713          	slli	a4,a5,0x10
     dae:	8341                	srli	a4,a4,0x10
     db0:	fee45783          	lhu	a5,-18(s0)
     db4:	8fd9                	or	a5,a5,a4
     db6:	fef41723          	sh	a5,-18(s0)
C:/Users/Accepted/Documents/smart_car/Seekfree_CH32V103R8T6_Opensource_Library/Libraries/wch_Libraries/Peripheral/ch32v10x_tim.c:164
    tmpccer &= (uint16_t)(~((uint16_t)TIM_CC2NE));    
     dba:	fee45783          	lhu	a5,-18(s0)
     dbe:	fbf7f793          	andi	a5,a5,-65
     dc2:	fef41723          	sh	a5,-18(s0)
C:/Users/Accepted/Documents/smart_car/Seekfree_CH32V103R8T6_Opensource_Library/Libraries/wch_Libraries/Peripheral/ch32v10x_tim.c:165
    tmpccer |= (uint16_t)(TIM_OCInitStruct->TIM_OutputNState << 4);
     dc6:	fd842783          	lw	a5,-40(s0)
     dca:	0047d783          	lhu	a5,4(a5)
     dce:	0792                	slli	a5,a5,0x4
     dd0:	01079713          	slli	a4,a5,0x10
     dd4:	8341                	srli	a4,a4,0x10
     dd6:	fee45783          	lhu	a5,-18(s0)
     dda:	8fd9                	or	a5,a5,a4
     ddc:	fef41723          	sh	a5,-18(s0)
C:/Users/Accepted/Documents/smart_car/Seekfree_CH32V103R8T6_Opensource_Library/Libraries/wch_Libraries/Peripheral/ch32v10x_tim.c:167
    
    tmpcr2 &= (uint16_t)(~((uint16_t)TIM_OIS2));
     de0:	fec45783          	lhu	a5,-20(s0)
     de4:	bff7f793          	andi	a5,a5,-1025
     de8:	fef41623          	sh	a5,-20(s0)
C:/Users/Accepted/Documents/smart_car/Seekfree_CH32V103R8T6_Opensource_Library/Libraries/wch_Libraries/Peripheral/ch32v10x_tim.c:168
    tmpcr2 &= (uint16_t)(~((uint16_t)TIM_OIS2N));
     dec:	fec45703          	lhu	a4,-20(s0)
     df0:	77fd                	lui	a5,0xfffff
     df2:	7ff78793          	addi	a5,a5,2047 # fffff7ff <_eusrstack+0xdfffa7ff>
     df6:	8ff9                	and	a5,a5,a4
     df8:	fef41623          	sh	a5,-20(s0)
C:/Users/Accepted/Documents/smart_car/Seekfree_CH32V103R8T6_Opensource_Library/Libraries/wch_Libraries/Peripheral/ch32v10x_tim.c:169
    tmpcr2 |= (uint16_t)(TIM_OCInitStruct->TIM_OCIdleState << 2);
     dfc:	fd842783          	lw	a5,-40(s0)
     e00:	00c7d783          	lhu	a5,12(a5)
     e04:	078a                	slli	a5,a5,0x2
     e06:	01079713          	slli	a4,a5,0x10
     e0a:	8341                	srli	a4,a4,0x10
     e0c:	fec45783          	lhu	a5,-20(s0)
     e10:	8fd9                	or	a5,a5,a4
     e12:	fef41623          	sh	a5,-20(s0)
C:/Users/Accepted/Documents/smart_car/Seekfree_CH32V103R8T6_Opensource_Library/Libraries/wch_Libraries/Peripheral/ch32v10x_tim.c:170
    tmpcr2 |= (uint16_t)(TIM_OCInitStruct->TIM_OCNIdleState << 2);
     e16:	fd842783          	lw	a5,-40(s0)
     e1a:	00e7d783          	lhu	a5,14(a5)
     e1e:	078a                	slli	a5,a5,0x2
     e20:	01079713          	slli	a4,a5,0x10
     e24:	8341                	srli	a4,a4,0x10
     e26:	fec45783          	lhu	a5,-20(s0)
     e2a:	8fd9                	or	a5,a5,a4
     e2c:	fef41623          	sh	a5,-20(s0)
C:/Users/Accepted/Documents/smart_car/Seekfree_CH32V103R8T6_Opensource_Library/Libraries/wch_Libraries/Peripheral/ch32v10x_tim.c:173
  }

  TIMx->CTLR2 = tmpcr2;
     e30:	fdc42783          	lw	a5,-36(s0)
     e34:	fec45703          	lhu	a4,-20(s0)
     e38:	00e79223          	sh	a4,4(a5)
C:/Users/Accepted/Documents/smart_car/Seekfree_CH32V103R8T6_Opensource_Library/Libraries/wch_Libraries/Peripheral/ch32v10x_tim.c:174
  TIMx->CHCTLR1 = tmpccmrx;
     e3c:	fdc42783          	lw	a5,-36(s0)
     e40:	fea45703          	lhu	a4,-22(s0)
     e44:	00e79c23          	sh	a4,24(a5)
C:/Users/Accepted/Documents/smart_car/Seekfree_CH32V103R8T6_Opensource_Library/Libraries/wch_Libraries/Peripheral/ch32v10x_tim.c:175
  TIMx->CH2CVR = TIM_OCInitStruct->TIM_Pulse;
     e48:	fd842783          	lw	a5,-40(s0)
     e4c:	0067d703          	lhu	a4,6(a5)
     e50:	fdc42783          	lw	a5,-36(s0)
     e54:	02e79c23          	sh	a4,56(a5)
C:/Users/Accepted/Documents/smart_car/Seekfree_CH32V103R8T6_Opensource_Library/Libraries/wch_Libraries/Peripheral/ch32v10x_tim.c:176
  TIMx->CCER = tmpccer;
     e58:	fdc42783          	lw	a5,-36(s0)
     e5c:	fee45703          	lhu	a4,-18(s0)
     e60:	02e79023          	sh	a4,32(a5)
C:/Users/Accepted/Documents/smart_car/Seekfree_CH32V103R8T6_Opensource_Library/Libraries/wch_Libraries/Peripheral/ch32v10x_tim.c:177
}
     e64:	0001                	nop
     e66:	5432                	lw	s0,44(sp)
     e68:	6145                	addi	sp,sp,48
     e6a:	8082                	ret

00000e6c <TIM_OC3Init>:
TIM_OC3Init():
C:/Users/Accepted/Documents/smart_car/Seekfree_CH32V103R8T6_Opensource_Library/Libraries/wch_Libraries/Peripheral/ch32v10x_tim.c:188
* Input          : TIMx: where x can be 1 to 4 to select the TIM peripheral.
*                  TIM_OCInitStruct: pointer to a TIM_OCInitTypeDef structure.
* Return         : None
*******************************************************************************/
void TIM_OC3Init(TIM_TypeDef* TIMx, TIM_OCInitTypeDef* TIM_OCInitStruct)
{
     e6c:	7179                	addi	sp,sp,-48
     e6e:	d622                	sw	s0,44(sp)
     e70:	1800                	addi	s0,sp,48
     e72:	fca42e23          	sw	a0,-36(s0)
     e76:	fcb42c23          	sw	a1,-40(s0)
C:/Users/Accepted/Documents/smart_car/Seekfree_CH32V103R8T6_Opensource_Library/Libraries/wch_Libraries/Peripheral/ch32v10x_tim.c:189
  uint16_t tmpccmrx = 0, tmpccer = 0, tmpcr2 = 0;
     e7a:	fe041523          	sh	zero,-22(s0)
     e7e:	fe041723          	sh	zero,-18(s0)
     e82:	fe041623          	sh	zero,-20(s0)
C:/Users/Accepted/Documents/smart_car/Seekfree_CH32V103R8T6_Opensource_Library/Libraries/wch_Libraries/Peripheral/ch32v10x_tim.c:191
   
  TIMx->CCER &= (uint16_t)(~((uint16_t)TIM_CC3E));
     e86:	fdc42783          	lw	a5,-36(s0)
     e8a:	0207d783          	lhu	a5,32(a5)
     e8e:	07c2                	slli	a5,a5,0x10
     e90:	83c1                	srli	a5,a5,0x10
     e92:	eff7f793          	andi	a5,a5,-257
     e96:	01079713          	slli	a4,a5,0x10
     e9a:	8341                	srli	a4,a4,0x10
     e9c:	fdc42783          	lw	a5,-36(s0)
     ea0:	02e79023          	sh	a4,32(a5)
C:/Users/Accepted/Documents/smart_car/Seekfree_CH32V103R8T6_Opensource_Library/Libraries/wch_Libraries/Peripheral/ch32v10x_tim.c:192
  tmpccer = TIMx->CCER;
     ea4:	fdc42783          	lw	a5,-36(s0)
     ea8:	0207d783          	lhu	a5,32(a5)
     eac:	fef41723          	sh	a5,-18(s0)
C:/Users/Accepted/Documents/smart_car/Seekfree_CH32V103R8T6_Opensource_Library/Libraries/wch_Libraries/Peripheral/ch32v10x_tim.c:193
  tmpcr2 =  TIMx->CTLR2;
     eb0:	fdc42783          	lw	a5,-36(s0)
     eb4:	0047d783          	lhu	a5,4(a5)
     eb8:	fef41623          	sh	a5,-20(s0)
C:/Users/Accepted/Documents/smart_car/Seekfree_CH32V103R8T6_Opensource_Library/Libraries/wch_Libraries/Peripheral/ch32v10x_tim.c:194
  tmpccmrx = TIMx->CHCTLR2;
     ebc:	fdc42783          	lw	a5,-36(s0)
     ec0:	01c7d783          	lhu	a5,28(a5)
     ec4:	fef41523          	sh	a5,-22(s0)
C:/Users/Accepted/Documents/smart_car/Seekfree_CH32V103R8T6_Opensource_Library/Libraries/wch_Libraries/Peripheral/ch32v10x_tim.c:195
  tmpccmrx &= (uint16_t)(~((uint16_t)TIM_OC3M));
     ec8:	fea45783          	lhu	a5,-22(s0)
     ecc:	f8f7f793          	andi	a5,a5,-113
     ed0:	fef41523          	sh	a5,-22(s0)
C:/Users/Accepted/Documents/smart_car/Seekfree_CH32V103R8T6_Opensource_Library/Libraries/wch_Libraries/Peripheral/ch32v10x_tim.c:196
  tmpccmrx &= (uint16_t)(~((uint16_t)TIM_CC3S));  
     ed4:	fea45783          	lhu	a5,-22(s0)
     ed8:	9bf1                	andi	a5,a5,-4
     eda:	fef41523          	sh	a5,-22(s0)
C:/Users/Accepted/Documents/smart_car/Seekfree_CH32V103R8T6_Opensource_Library/Libraries/wch_Libraries/Peripheral/ch32v10x_tim.c:197
  tmpccmrx |= TIM_OCInitStruct->TIM_OCMode;
     ede:	fd842783          	lw	a5,-40(s0)
     ee2:	0007d703          	lhu	a4,0(a5)
     ee6:	fea45783          	lhu	a5,-22(s0)
     eea:	8fd9                	or	a5,a5,a4
     eec:	fef41523          	sh	a5,-22(s0)
C:/Users/Accepted/Documents/smart_car/Seekfree_CH32V103R8T6_Opensource_Library/Libraries/wch_Libraries/Peripheral/ch32v10x_tim.c:198
  tmpccer &= (uint16_t)(~((uint16_t)TIM_CC3P));
     ef0:	fee45783          	lhu	a5,-18(s0)
     ef4:	dff7f793          	andi	a5,a5,-513
     ef8:	fef41723          	sh	a5,-18(s0)
C:/Users/Accepted/Documents/smart_car/Seekfree_CH32V103R8T6_Opensource_Library/Libraries/wch_Libraries/Peripheral/ch32v10x_tim.c:199
  tmpccer |= (uint16_t)(TIM_OCInitStruct->TIM_OCPolarity << 8);
     efc:	fd842783          	lw	a5,-40(s0)
     f00:	0087d783          	lhu	a5,8(a5)
     f04:	07a2                	slli	a5,a5,0x8
     f06:	01079713          	slli	a4,a5,0x10
     f0a:	8341                	srli	a4,a4,0x10
     f0c:	fee45783          	lhu	a5,-18(s0)
     f10:	8fd9                	or	a5,a5,a4
     f12:	fef41723          	sh	a5,-18(s0)
C:/Users/Accepted/Documents/smart_car/Seekfree_CH32V103R8T6_Opensource_Library/Libraries/wch_Libraries/Peripheral/ch32v10x_tim.c:200
  tmpccer |= (uint16_t)(TIM_OCInitStruct->TIM_OutputState << 8);
     f16:	fd842783          	lw	a5,-40(s0)
     f1a:	0027d783          	lhu	a5,2(a5)
     f1e:	07a2                	slli	a5,a5,0x8
     f20:	01079713          	slli	a4,a5,0x10
     f24:	8341                	srli	a4,a4,0x10
     f26:	fee45783          	lhu	a5,-18(s0)
     f2a:	8fd9                	or	a5,a5,a4
     f2c:	fef41723          	sh	a5,-18(s0)
C:/Users/Accepted/Documents/smart_car/Seekfree_CH32V103R8T6_Opensource_Library/Libraries/wch_Libraries/Peripheral/ch32v10x_tim.c:202
    
  if(TIMx == TIM1)
     f30:	fdc42703          	lw	a4,-36(s0)
     f34:	400137b7          	lui	a5,0x40013
     f38:	c0078793          	addi	a5,a5,-1024 # 40012c00 <_eusrstack+0x2000dc00>
     f3c:	0af71263          	bne	a4,a5,fe0 <TIM_OC3Init+0x174>
C:/Users/Accepted/Documents/smart_car/Seekfree_CH32V103R8T6_Opensource_Library/Libraries/wch_Libraries/Peripheral/ch32v10x_tim.c:204
  {
    tmpccer &= (uint16_t)(~((uint16_t)TIM_CC3NP));
     f40:	fee45703          	lhu	a4,-18(s0)
     f44:	77fd                	lui	a5,0xfffff
     f46:	7ff78793          	addi	a5,a5,2047 # fffff7ff <_eusrstack+0xdfffa7ff>
     f4a:	8ff9                	and	a5,a5,a4
     f4c:	fef41723          	sh	a5,-18(s0)
C:/Users/Accepted/Documents/smart_car/Seekfree_CH32V103R8T6_Opensource_Library/Libraries/wch_Libraries/Peripheral/ch32v10x_tim.c:205
    tmpccer |= (uint16_t)(TIM_OCInitStruct->TIM_OCNPolarity << 8);
     f50:	fd842783          	lw	a5,-40(s0)
     f54:	00a7d783          	lhu	a5,10(a5)
     f58:	07a2                	slli	a5,a5,0x8
     f5a:	01079713          	slli	a4,a5,0x10
     f5e:	8341                	srli	a4,a4,0x10
     f60:	fee45783          	lhu	a5,-18(s0)
     f64:	8fd9                	or	a5,a5,a4
     f66:	fef41723          	sh	a5,-18(s0)
C:/Users/Accepted/Documents/smart_car/Seekfree_CH32V103R8T6_Opensource_Library/Libraries/wch_Libraries/Peripheral/ch32v10x_tim.c:206
    tmpccer &= (uint16_t)(~((uint16_t)TIM_CC3NE));
     f6a:	fee45783          	lhu	a5,-18(s0)
     f6e:	bff7f793          	andi	a5,a5,-1025
     f72:	fef41723          	sh	a5,-18(s0)
C:/Users/Accepted/Documents/smart_car/Seekfree_CH32V103R8T6_Opensource_Library/Libraries/wch_Libraries/Peripheral/ch32v10x_tim.c:207
    tmpccer |= (uint16_t)(TIM_OCInitStruct->TIM_OutputNState << 8);
     f76:	fd842783          	lw	a5,-40(s0)
     f7a:	0047d783          	lhu	a5,4(a5)
     f7e:	07a2                	slli	a5,a5,0x8
     f80:	01079713          	slli	a4,a5,0x10
     f84:	8341                	srli	a4,a4,0x10
     f86:	fee45783          	lhu	a5,-18(s0)
     f8a:	8fd9                	or	a5,a5,a4
     f8c:	fef41723          	sh	a5,-18(s0)
C:/Users/Accepted/Documents/smart_car/Seekfree_CH32V103R8T6_Opensource_Library/Libraries/wch_Libraries/Peripheral/ch32v10x_tim.c:208
    tmpcr2 &= (uint16_t)(~((uint16_t)TIM_OIS3));
     f90:	fec45703          	lhu	a4,-20(s0)
     f94:	77fd                	lui	a5,0xfffff
     f96:	17fd                	addi	a5,a5,-1
     f98:	8ff9                	and	a5,a5,a4
     f9a:	fef41623          	sh	a5,-20(s0)
C:/Users/Accepted/Documents/smart_car/Seekfree_CH32V103R8T6_Opensource_Library/Libraries/wch_Libraries/Peripheral/ch32v10x_tim.c:209
    tmpcr2 &= (uint16_t)(~((uint16_t)TIM_OIS3N));
     f9e:	fec45703          	lhu	a4,-20(s0)
     fa2:	77f9                	lui	a5,0xffffe
     fa4:	17fd                	addi	a5,a5,-1
     fa6:	8ff9                	and	a5,a5,a4
     fa8:	fef41623          	sh	a5,-20(s0)
C:/Users/Accepted/Documents/smart_car/Seekfree_CH32V103R8T6_Opensource_Library/Libraries/wch_Libraries/Peripheral/ch32v10x_tim.c:210
    tmpcr2 |= (uint16_t)(TIM_OCInitStruct->TIM_OCIdleState << 4);
     fac:	fd842783          	lw	a5,-40(s0)
     fb0:	00c7d783          	lhu	a5,12(a5) # ffffe00c <_eusrstack+0xdfff900c>
     fb4:	0792                	slli	a5,a5,0x4
     fb6:	01079713          	slli	a4,a5,0x10
     fba:	8341                	srli	a4,a4,0x10
     fbc:	fec45783          	lhu	a5,-20(s0)
     fc0:	8fd9                	or	a5,a5,a4
     fc2:	fef41623          	sh	a5,-20(s0)
C:/Users/Accepted/Documents/smart_car/Seekfree_CH32V103R8T6_Opensource_Library/Libraries/wch_Libraries/Peripheral/ch32v10x_tim.c:211
    tmpcr2 |= (uint16_t)(TIM_OCInitStruct->TIM_OCNIdleState << 4);
     fc6:	fd842783          	lw	a5,-40(s0)
     fca:	00e7d783          	lhu	a5,14(a5)
     fce:	0792                	slli	a5,a5,0x4
     fd0:	01079713          	slli	a4,a5,0x10
     fd4:	8341                	srli	a4,a4,0x10
     fd6:	fec45783          	lhu	a5,-20(s0)
     fda:	8fd9                	or	a5,a5,a4
     fdc:	fef41623          	sh	a5,-20(s0)
C:/Users/Accepted/Documents/smart_car/Seekfree_CH32V103R8T6_Opensource_Library/Libraries/wch_Libraries/Peripheral/ch32v10x_tim.c:214
  }

  TIMx->CTLR2 = tmpcr2;
     fe0:	fdc42783          	lw	a5,-36(s0)
     fe4:	fec45703          	lhu	a4,-20(s0)
     fe8:	00e79223          	sh	a4,4(a5)
C:/Users/Accepted/Documents/smart_car/Seekfree_CH32V103R8T6_Opensource_Library/Libraries/wch_Libraries/Peripheral/ch32v10x_tim.c:215
  TIMx->CHCTLR2 = tmpccmrx;
     fec:	fdc42783          	lw	a5,-36(s0)
     ff0:	fea45703          	lhu	a4,-22(s0)
     ff4:	00e79e23          	sh	a4,28(a5)
C:/Users/Accepted/Documents/smart_car/Seekfree_CH32V103R8T6_Opensource_Library/Libraries/wch_Libraries/Peripheral/ch32v10x_tim.c:216
  TIMx->CH3CVR = TIM_OCInitStruct->TIM_Pulse;
     ff8:	fd842783          	lw	a5,-40(s0)
     ffc:	0067d703          	lhu	a4,6(a5)
    1000:	fdc42783          	lw	a5,-36(s0)
    1004:	02e79e23          	sh	a4,60(a5)
C:/Users/Accepted/Documents/smart_car/Seekfree_CH32V103R8T6_Opensource_Library/Libraries/wch_Libraries/Peripheral/ch32v10x_tim.c:217
  TIMx->CCER = tmpccer;
    1008:	fdc42783          	lw	a5,-36(s0)
    100c:	fee45703          	lhu	a4,-18(s0)
    1010:	02e79023          	sh	a4,32(a5)
C:/Users/Accepted/Documents/smart_car/Seekfree_CH32V103R8T6_Opensource_Library/Libraries/wch_Libraries/Peripheral/ch32v10x_tim.c:218
}
    1014:	0001                	nop
    1016:	5432                	lw	s0,44(sp)
    1018:	6145                	addi	sp,sp,48
    101a:	8082                	ret

0000101c <TIM_OC4Init>:
TIM_OC4Init():
C:/Users/Accepted/Documents/smart_car/Seekfree_CH32V103R8T6_Opensource_Library/Libraries/wch_Libraries/Peripheral/ch32v10x_tim.c:229
* Input          : TIMx: where x can be 1 to 4 to select the TIM peripheral.
*                  TIM_OCInitStruct: pointer to a TIM_OCInitTypeDef structure.
* Return         : None
*******************************************************************************/
void TIM_OC4Init(TIM_TypeDef* TIMx, TIM_OCInitTypeDef* TIM_OCInitStruct)
{
    101c:	7179                	addi	sp,sp,-48
    101e:	d622                	sw	s0,44(sp)
    1020:	1800                	addi	s0,sp,48
    1022:	fca42e23          	sw	a0,-36(s0)
    1026:	fcb42c23          	sw	a1,-40(s0)
C:/Users/Accepted/Documents/smart_car/Seekfree_CH32V103R8T6_Opensource_Library/Libraries/wch_Libraries/Peripheral/ch32v10x_tim.c:230
  uint16_t tmpccmrx = 0, tmpccer = 0, tmpcr2 = 0;
    102a:	fe041623          	sh	zero,-20(s0)
    102e:	fe041523          	sh	zero,-22(s0)
    1032:	fe041723          	sh	zero,-18(s0)
C:/Users/Accepted/Documents/smart_car/Seekfree_CH32V103R8T6_Opensource_Library/Libraries/wch_Libraries/Peripheral/ch32v10x_tim.c:232

  TIMx->CCER &= (uint16_t)(~((uint16_t)TIM_CC4E));
    1036:	fdc42783          	lw	a5,-36(s0)
    103a:	0207d783          	lhu	a5,32(a5)
    103e:	01079713          	slli	a4,a5,0x10
    1042:	8341                	srli	a4,a4,0x10
    1044:	77fd                	lui	a5,0xfffff
    1046:	17fd                	addi	a5,a5,-1
    1048:	8ff9                	and	a5,a5,a4
    104a:	01079713          	slli	a4,a5,0x10
    104e:	8341                	srli	a4,a4,0x10
    1050:	fdc42783          	lw	a5,-36(s0)
    1054:	02e79023          	sh	a4,32(a5) # fffff020 <_eusrstack+0xdfffa020>
C:/Users/Accepted/Documents/smart_car/Seekfree_CH32V103R8T6_Opensource_Library/Libraries/wch_Libraries/Peripheral/ch32v10x_tim.c:233
  tmpccer = TIMx->CCER;
    1058:	fdc42783          	lw	a5,-36(s0)
    105c:	0207d783          	lhu	a5,32(a5)
    1060:	fef41523          	sh	a5,-22(s0)
C:/Users/Accepted/Documents/smart_car/Seekfree_CH32V103R8T6_Opensource_Library/Libraries/wch_Libraries/Peripheral/ch32v10x_tim.c:234
  tmpcr2 =  TIMx->CTLR2;
    1064:	fdc42783          	lw	a5,-36(s0)
    1068:	0047d783          	lhu	a5,4(a5)
    106c:	fef41723          	sh	a5,-18(s0)
C:/Users/Accepted/Documents/smart_car/Seekfree_CH32V103R8T6_Opensource_Library/Libraries/wch_Libraries/Peripheral/ch32v10x_tim.c:235
  tmpccmrx = TIMx->CHCTLR2;
    1070:	fdc42783          	lw	a5,-36(s0)
    1074:	01c7d783          	lhu	a5,28(a5)
    1078:	fef41623          	sh	a5,-20(s0)
C:/Users/Accepted/Documents/smart_car/Seekfree_CH32V103R8T6_Opensource_Library/Libraries/wch_Libraries/Peripheral/ch32v10x_tim.c:236
  tmpccmrx &= (uint16_t)(~((uint16_t)TIM_OC4M));
    107c:	fec45703          	lhu	a4,-20(s0)
    1080:	77e5                	lui	a5,0xffff9
    1082:	17fd                	addi	a5,a5,-1
    1084:	8ff9                	and	a5,a5,a4
    1086:	fef41623          	sh	a5,-20(s0)
C:/Users/Accepted/Documents/smart_car/Seekfree_CH32V103R8T6_Opensource_Library/Libraries/wch_Libraries/Peripheral/ch32v10x_tim.c:237
  tmpccmrx &= (uint16_t)(~((uint16_t)TIM_CC4S));
    108a:	fec45783          	lhu	a5,-20(s0)
    108e:	cff7f793          	andi	a5,a5,-769
    1092:	fef41623          	sh	a5,-20(s0)
C:/Users/Accepted/Documents/smart_car/Seekfree_CH32V103R8T6_Opensource_Library/Libraries/wch_Libraries/Peripheral/ch32v10x_tim.c:238
  tmpccmrx |= (uint16_t)(TIM_OCInitStruct->TIM_OCMode << 8);
    1096:	fd842783          	lw	a5,-40(s0)
    109a:	0007d783          	lhu	a5,0(a5) # ffff9000 <_eusrstack+0xdfff4000>
    109e:	07a2                	slli	a5,a5,0x8
    10a0:	01079713          	slli	a4,a5,0x10
    10a4:	8341                	srli	a4,a4,0x10
    10a6:	fec45783          	lhu	a5,-20(s0)
    10aa:	8fd9                	or	a5,a5,a4
    10ac:	fef41623          	sh	a5,-20(s0)
C:/Users/Accepted/Documents/smart_car/Seekfree_CH32V103R8T6_Opensource_Library/Libraries/wch_Libraries/Peripheral/ch32v10x_tim.c:239
  tmpccer &= (uint16_t)(~((uint16_t)TIM_CC4P));
    10b0:	fea45703          	lhu	a4,-22(s0)
    10b4:	77f9                	lui	a5,0xffffe
    10b6:	17fd                	addi	a5,a5,-1
    10b8:	8ff9                	and	a5,a5,a4
    10ba:	fef41523          	sh	a5,-22(s0)
C:/Users/Accepted/Documents/smart_car/Seekfree_CH32V103R8T6_Opensource_Library/Libraries/wch_Libraries/Peripheral/ch32v10x_tim.c:240
  tmpccer |= (uint16_t)(TIM_OCInitStruct->TIM_OCPolarity << 12);
    10be:	fd842783          	lw	a5,-40(s0)
    10c2:	0087d783          	lhu	a5,8(a5) # ffffe008 <_eusrstack+0xdfff9008>
    10c6:	07b2                	slli	a5,a5,0xc
    10c8:	01079713          	slli	a4,a5,0x10
    10cc:	8341                	srli	a4,a4,0x10
    10ce:	fea45783          	lhu	a5,-22(s0)
    10d2:	8fd9                	or	a5,a5,a4
    10d4:	fef41523          	sh	a5,-22(s0)
C:/Users/Accepted/Documents/smart_car/Seekfree_CH32V103R8T6_Opensource_Library/Libraries/wch_Libraries/Peripheral/ch32v10x_tim.c:241
  tmpccer |= (uint16_t)(TIM_OCInitStruct->TIM_OutputState << 12);
    10d8:	fd842783          	lw	a5,-40(s0)
    10dc:	0027d783          	lhu	a5,2(a5)
    10e0:	07b2                	slli	a5,a5,0xc
    10e2:	01079713          	slli	a4,a5,0x10
    10e6:	8341                	srli	a4,a4,0x10
    10e8:	fea45783          	lhu	a5,-22(s0)
    10ec:	8fd9                	or	a5,a5,a4
    10ee:	fef41523          	sh	a5,-22(s0)
C:/Users/Accepted/Documents/smart_car/Seekfree_CH32V103R8T6_Opensource_Library/Libraries/wch_Libraries/Peripheral/ch32v10x_tim.c:243
    
  if(TIMx == TIM1)
    10f2:	fdc42703          	lw	a4,-36(s0)
    10f6:	400137b7          	lui	a5,0x40013
    10fa:	c0078793          	addi	a5,a5,-1024 # 40012c00 <_eusrstack+0x2000dc00>
    10fe:	02f71663          	bne	a4,a5,112a <TIM_OC4Init+0x10e>
C:/Users/Accepted/Documents/smart_car/Seekfree_CH32V103R8T6_Opensource_Library/Libraries/wch_Libraries/Peripheral/ch32v10x_tim.c:245
  {
    tmpcr2 &= (uint16_t)(~((uint16_t)TIM_OIS4));
    1102:	fee45703          	lhu	a4,-18(s0)
    1106:	77f1                	lui	a5,0xffffc
    1108:	17fd                	addi	a5,a5,-1
    110a:	8ff9                	and	a5,a5,a4
    110c:	fef41723          	sh	a5,-18(s0)
C:/Users/Accepted/Documents/smart_car/Seekfree_CH32V103R8T6_Opensource_Library/Libraries/wch_Libraries/Peripheral/ch32v10x_tim.c:246
    tmpcr2 |= (uint16_t)(TIM_OCInitStruct->TIM_OCIdleState << 6);
    1110:	fd842783          	lw	a5,-40(s0)
    1114:	00c7d783          	lhu	a5,12(a5) # ffffc00c <_eusrstack+0xdfff700c>
    1118:	079a                	slli	a5,a5,0x6
    111a:	01079713          	slli	a4,a5,0x10
    111e:	8341                	srli	a4,a4,0x10
    1120:	fee45783          	lhu	a5,-18(s0)
    1124:	8fd9                	or	a5,a5,a4
    1126:	fef41723          	sh	a5,-18(s0)
C:/Users/Accepted/Documents/smart_car/Seekfree_CH32V103R8T6_Opensource_Library/Libraries/wch_Libraries/Peripheral/ch32v10x_tim.c:249
  }

  TIMx->CTLR2 = tmpcr2; 
    112a:	fdc42783          	lw	a5,-36(s0)
    112e:	fee45703          	lhu	a4,-18(s0)
    1132:	00e79223          	sh	a4,4(a5)
C:/Users/Accepted/Documents/smart_car/Seekfree_CH32V103R8T6_Opensource_Library/Libraries/wch_Libraries/Peripheral/ch32v10x_tim.c:250
  TIMx->CHCTLR2 = tmpccmrx;
    1136:	fdc42783          	lw	a5,-36(s0)
    113a:	fec45703          	lhu	a4,-20(s0)
    113e:	00e79e23          	sh	a4,28(a5)
C:/Users/Accepted/Documents/smart_car/Seekfree_CH32V103R8T6_Opensource_Library/Libraries/wch_Libraries/Peripheral/ch32v10x_tim.c:251
  TIMx->CH4CVR = TIM_OCInitStruct->TIM_Pulse;
    1142:	fd842783          	lw	a5,-40(s0)
    1146:	0067d703          	lhu	a4,6(a5)
    114a:	fdc42783          	lw	a5,-36(s0)
    114e:	04e79023          	sh	a4,64(a5)
C:/Users/Accepted/Documents/smart_car/Seekfree_CH32V103R8T6_Opensource_Library/Libraries/wch_Libraries/Peripheral/ch32v10x_tim.c:252
  TIMx->CCER = tmpccer;
    1152:	fdc42783          	lw	a5,-36(s0)
    1156:	fea45703          	lhu	a4,-22(s0)
    115a:	02e79023          	sh	a4,32(a5)
C:/Users/Accepted/Documents/smart_car/Seekfree_CH32V103R8T6_Opensource_Library/Libraries/wch_Libraries/Peripheral/ch32v10x_tim.c:253
}
    115e:	0001                	nop
    1160:	5432                	lw	s0,44(sp)
    1162:	6145                	addi	sp,sp,48
    1164:	8082                	ret

00001166 <TIM_BDTRConfig>:
TIM_BDTRConfig():
C:/Users/Accepted/Documents/smart_car/Seekfree_CH32V103R8T6_Opensource_Library/Libraries/wch_Libraries/Peripheral/ch32v10x_tim.c:353
* Input          : TIMx: where x can be 1 to 4 to select the TIM peripheral.
*                  TIM_BDTRInitStruct: pointer to a TIM_BDTRInitTypeDef structure.
* Return         : None
*******************************************************************************/
void TIM_BDTRConfig(TIM_TypeDef* TIMx, TIM_BDTRInitTypeDef *TIM_BDTRInitStruct)
{
    1166:	1101                	addi	sp,sp,-32
    1168:	ce22                	sw	s0,28(sp)
    116a:	1000                	addi	s0,sp,32
    116c:	fea42623          	sw	a0,-20(s0)
    1170:	feb42423          	sw	a1,-24(s0)
C:/Users/Accepted/Documents/smart_car/Seekfree_CH32V103R8T6_Opensource_Library/Libraries/wch_Libraries/Peripheral/ch32v10x_tim.c:354
  TIMx->BDTR = (uint32_t)TIM_BDTRInitStruct->TIM_OSSRState | TIM_BDTRInitStruct->TIM_OSSIState |
    1174:	fe842783          	lw	a5,-24(s0)
    1178:	0007d703          	lhu	a4,0(a5)
    117c:	fe842783          	lw	a5,-24(s0)
    1180:	0027d783          	lhu	a5,2(a5)
    1184:	8fd9                	or	a5,a5,a4
    1186:	01079713          	slli	a4,a5,0x10
    118a:	8341                	srli	a4,a4,0x10
C:/Users/Accepted/Documents/smart_car/Seekfree_CH32V103R8T6_Opensource_Library/Libraries/wch_Libraries/Peripheral/ch32v10x_tim.c:355
             TIM_BDTRInitStruct->TIM_LOCKLevel | TIM_BDTRInitStruct->TIM_DeadTime |
    118c:	fe842783          	lw	a5,-24(s0)
    1190:	0047d783          	lhu	a5,4(a5)
C:/Users/Accepted/Documents/smart_car/Seekfree_CH32V103R8T6_Opensource_Library/Libraries/wch_Libraries/Peripheral/ch32v10x_tim.c:354
  TIMx->BDTR = (uint32_t)TIM_BDTRInitStruct->TIM_OSSRState | TIM_BDTRInitStruct->TIM_OSSIState |
    1194:	8fd9                	or	a5,a5,a4
    1196:	01079713          	slli	a4,a5,0x10
    119a:	8341                	srli	a4,a4,0x10
C:/Users/Accepted/Documents/smart_car/Seekfree_CH32V103R8T6_Opensource_Library/Libraries/wch_Libraries/Peripheral/ch32v10x_tim.c:355
             TIM_BDTRInitStruct->TIM_LOCKLevel | TIM_BDTRInitStruct->TIM_DeadTime |
    119c:	fe842783          	lw	a5,-24(s0)
    11a0:	0067d783          	lhu	a5,6(a5)
C:/Users/Accepted/Documents/smart_car/Seekfree_CH32V103R8T6_Opensource_Library/Libraries/wch_Libraries/Peripheral/ch32v10x_tim.c:354
  TIMx->BDTR = (uint32_t)TIM_BDTRInitStruct->TIM_OSSRState | TIM_BDTRInitStruct->TIM_OSSIState |
    11a4:	8fd9                	or	a5,a5,a4
    11a6:	01079713          	slli	a4,a5,0x10
    11aa:	8341                	srli	a4,a4,0x10
C:/Users/Accepted/Documents/smart_car/Seekfree_CH32V103R8T6_Opensource_Library/Libraries/wch_Libraries/Peripheral/ch32v10x_tim.c:356
             TIM_BDTRInitStruct->TIM_Break | TIM_BDTRInitStruct->TIM_BreakPolarity |
    11ac:	fe842783          	lw	a5,-24(s0)
    11b0:	0087d783          	lhu	a5,8(a5)
C:/Users/Accepted/Documents/smart_car/Seekfree_CH32V103R8T6_Opensource_Library/Libraries/wch_Libraries/Peripheral/ch32v10x_tim.c:354
  TIMx->BDTR = (uint32_t)TIM_BDTRInitStruct->TIM_OSSRState | TIM_BDTRInitStruct->TIM_OSSIState |
    11b4:	8fd9                	or	a5,a5,a4
    11b6:	01079713          	slli	a4,a5,0x10
    11ba:	8341                	srli	a4,a4,0x10
C:/Users/Accepted/Documents/smart_car/Seekfree_CH32V103R8T6_Opensource_Library/Libraries/wch_Libraries/Peripheral/ch32v10x_tim.c:356
             TIM_BDTRInitStruct->TIM_Break | TIM_BDTRInitStruct->TIM_BreakPolarity |
    11bc:	fe842783          	lw	a5,-24(s0)
    11c0:	00a7d783          	lhu	a5,10(a5)
C:/Users/Accepted/Documents/smart_car/Seekfree_CH32V103R8T6_Opensource_Library/Libraries/wch_Libraries/Peripheral/ch32v10x_tim.c:354
  TIMx->BDTR = (uint32_t)TIM_BDTRInitStruct->TIM_OSSRState | TIM_BDTRInitStruct->TIM_OSSIState |
    11c4:	8fd9                	or	a5,a5,a4
    11c6:	01079713          	slli	a4,a5,0x10
    11ca:	8341                	srli	a4,a4,0x10
C:/Users/Accepted/Documents/smart_car/Seekfree_CH32V103R8T6_Opensource_Library/Libraries/wch_Libraries/Peripheral/ch32v10x_tim.c:357
             TIM_BDTRInitStruct->TIM_AutomaticOutput;
    11cc:	fe842783          	lw	a5,-24(s0)
    11d0:	00c7d783          	lhu	a5,12(a5)
C:/Users/Accepted/Documents/smart_car/Seekfree_CH32V103R8T6_Opensource_Library/Libraries/wch_Libraries/Peripheral/ch32v10x_tim.c:354
  TIMx->BDTR = (uint32_t)TIM_BDTRInitStruct->TIM_OSSRState | TIM_BDTRInitStruct->TIM_OSSIState |
    11d4:	8fd9                	or	a5,a5,a4
    11d6:	01079713          	slli	a4,a5,0x10
    11da:	8341                	srli	a4,a4,0x10
    11dc:	fec42783          	lw	a5,-20(s0)
    11e0:	04e79223          	sh	a4,68(a5)
C:/Users/Accepted/Documents/smart_car/Seekfree_CH32V103R8T6_Opensource_Library/Libraries/wch_Libraries/Peripheral/ch32v10x_tim.c:358
}
    11e4:	0001                	nop
    11e6:	4472                	lw	s0,28(sp)
    11e8:	6105                	addi	sp,sp,32
    11ea:	8082                	ret

000011ec <TIM_Cmd>:
TIM_Cmd():
C:/Users/Accepted/Documents/smart_car/Seekfree_CH32V103R8T6_Opensource_Library/Libraries/wch_Libraries/Peripheral/ch32v10x_tim.c:433
* Input          : TIMx: where x can be 1 to 4 to select the TIM peripheral.
*                  NewState: ENABLE or DISABLE.
* Return         : None
*******************************************************************************/
void TIM_Cmd(TIM_TypeDef* TIMx, FunctionalState NewState)
{ 
    11ec:	1101                	addi	sp,sp,-32
    11ee:	ce22                	sw	s0,28(sp)
    11f0:	1000                	addi	s0,sp,32
    11f2:	fea42623          	sw	a0,-20(s0)
    11f6:	feb42423          	sw	a1,-24(s0)
C:/Users/Accepted/Documents/smart_car/Seekfree_CH32V103R8T6_Opensource_Library/Libraries/wch_Libraries/Peripheral/ch32v10x_tim.c:434
  if (NewState != DISABLE)
    11fa:	fe842783          	lw	a5,-24(s0)
    11fe:	c38d                	beqz	a5,1220 <TIM_Cmd+0x34>
C:/Users/Accepted/Documents/smart_car/Seekfree_CH32V103R8T6_Opensource_Library/Libraries/wch_Libraries/Peripheral/ch32v10x_tim.c:436
  {
    TIMx->CTLR1 |= TIM_CEN;
    1200:	fec42783          	lw	a5,-20(s0)
    1204:	0007d783          	lhu	a5,0(a5)
    1208:	07c2                	slli	a5,a5,0x10
    120a:	83c1                	srli	a5,a5,0x10
    120c:	0017e793          	ori	a5,a5,1
    1210:	01079713          	slli	a4,a5,0x10
    1214:	8341                	srli	a4,a4,0x10
    1216:	fec42783          	lw	a5,-20(s0)
    121a:	00e79023          	sh	a4,0(a5)
C:/Users/Accepted/Documents/smart_car/Seekfree_CH32V103R8T6_Opensource_Library/Libraries/wch_Libraries/Peripheral/ch32v10x_tim.c:442
  }
  else
  {
    TIMx->CTLR1 &= (uint16_t)(~((uint16_t)TIM_CEN));
  }
}
    121e:	a839                	j	123c <TIM_Cmd+0x50>
C:/Users/Accepted/Documents/smart_car/Seekfree_CH32V103R8T6_Opensource_Library/Libraries/wch_Libraries/Peripheral/ch32v10x_tim.c:440
    TIMx->CTLR1 &= (uint16_t)(~((uint16_t)TIM_CEN));
    1220:	fec42783          	lw	a5,-20(s0)
    1224:	0007d783          	lhu	a5,0(a5)
    1228:	07c2                	slli	a5,a5,0x10
    122a:	83c1                	srli	a5,a5,0x10
    122c:	9bf9                	andi	a5,a5,-2
    122e:	01079713          	slli	a4,a5,0x10
    1232:	8341                	srli	a4,a4,0x10
    1234:	fec42783          	lw	a5,-20(s0)
    1238:	00e79023          	sh	a4,0(a5)
C:/Users/Accepted/Documents/smart_car/Seekfree_CH32V103R8T6_Opensource_Library/Libraries/wch_Libraries/Peripheral/ch32v10x_tim.c:442
}
    123c:	0001                	nop
    123e:	4472                	lw	s0,28(sp)
    1240:	6105                	addi	sp,sp,32
    1242:	8082                	ret

00001244 <TIM_CtrlPWMOutputs>:
TIM_CtrlPWMOutputs():
C:/Users/Accepted/Documents/smart_car/Seekfree_CH32V103R8T6_Opensource_Library/Libraries/wch_Libraries/Peripheral/ch32v10x_tim.c:452
* Input          : TIMx: where x can be 1 to 4 to select the TIM peripheral.
*                  NewState: ENABLE or DISABLE.
* Return         : None
*******************************************************************************/
void TIM_CtrlPWMOutputs(TIM_TypeDef* TIMx, FunctionalState NewState)
{
    1244:	1101                	addi	sp,sp,-32
    1246:	ce22                	sw	s0,28(sp)
    1248:	1000                	addi	s0,sp,32
    124a:	fea42623          	sw	a0,-20(s0)
    124e:	feb42423          	sw	a1,-24(s0)
C:/Users/Accepted/Documents/smart_car/Seekfree_CH32V103R8T6_Opensource_Library/Libraries/wch_Libraries/Peripheral/ch32v10x_tim.c:453
  if (NewState != DISABLE)
    1252:	fe842783          	lw	a5,-24(s0)
    1256:	c395                	beqz	a5,127a <TIM_CtrlPWMOutputs+0x36>
C:/Users/Accepted/Documents/smart_car/Seekfree_CH32V103R8T6_Opensource_Library/Libraries/wch_Libraries/Peripheral/ch32v10x_tim.c:455
  {
    TIMx->BDTR |= TIM_MOE;
    1258:	fec42783          	lw	a5,-20(s0)
    125c:	0447d783          	lhu	a5,68(a5)
    1260:	01079713          	slli	a4,a5,0x10
    1264:	8341                	srli	a4,a4,0x10
    1266:	77e1                	lui	a5,0xffff8
    1268:	8fd9                	or	a5,a5,a4
    126a:	01079713          	slli	a4,a5,0x10
    126e:	8341                	srli	a4,a4,0x10
    1270:	fec42783          	lw	a5,-20(s0)
    1274:	04e79223          	sh	a4,68(a5) # ffff8044 <_eusrstack+0xdfff3044>
C:/Users/Accepted/Documents/smart_car/Seekfree_CH32V103R8T6_Opensource_Library/Libraries/wch_Libraries/Peripheral/ch32v10x_tim.c:461
  }
  else
  {
    TIMx->BDTR &= (uint16_t)(~((uint16_t)TIM_MOE));
  }  
}
    1278:	a015                	j	129c <TIM_CtrlPWMOutputs+0x58>
C:/Users/Accepted/Documents/smart_car/Seekfree_CH32V103R8T6_Opensource_Library/Libraries/wch_Libraries/Peripheral/ch32v10x_tim.c:459
    TIMx->BDTR &= (uint16_t)(~((uint16_t)TIM_MOE));
    127a:	fec42783          	lw	a5,-20(s0)
    127e:	0447d783          	lhu	a5,68(a5)
    1282:	01079713          	slli	a4,a5,0x10
    1286:	8341                	srli	a4,a4,0x10
    1288:	67a1                	lui	a5,0x8
    128a:	17fd                	addi	a5,a5,-1
    128c:	8ff9                	and	a5,a5,a4
    128e:	01079713          	slli	a4,a5,0x10
    1292:	8341                	srli	a4,a4,0x10
    1294:	fec42783          	lw	a5,-20(s0)
    1298:	04e79223          	sh	a4,68(a5) # 8044 <_data_lma+0x3e68>
C:/Users/Accepted/Documents/smart_car/Seekfree_CH32V103R8T6_Opensource_Library/Libraries/wch_Libraries/Peripheral/ch32v10x_tim.c:461
}
    129c:	0001                	nop
    129e:	4472                	lw	s0,28(sp)
    12a0:	6105                	addi	sp,sp,32
    12a2:	8082                	ret

000012a4 <TIM_ARRPreloadConfig>:
TIM_ARRPreloadConfig():
C:/Users/Accepted/Documents/smart_car/Seekfree_CH32V103R8T6_Opensource_Library/Libraries/wch_Libraries/Peripheral/ch32v10x_tim.c:903
* Input          : TIMx: where x can be 1 to 4 to select the TIM peripheral.
*                  NewState: ENABLE or DISABLE. 
* Return         : None
*******************************************************************************/
void TIM_ARRPreloadConfig(TIM_TypeDef* TIMx, FunctionalState NewState)
{
    12a4:	1101                	addi	sp,sp,-32
    12a6:	ce22                	sw	s0,28(sp)
    12a8:	1000                	addi	s0,sp,32
    12aa:	fea42623          	sw	a0,-20(s0)
    12ae:	feb42423          	sw	a1,-24(s0)
C:/Users/Accepted/Documents/smart_car/Seekfree_CH32V103R8T6_Opensource_Library/Libraries/wch_Libraries/Peripheral/ch32v10x_tim.c:904
  if (NewState != DISABLE)
    12b2:	fe842783          	lw	a5,-24(s0)
    12b6:	c38d                	beqz	a5,12d8 <TIM_ARRPreloadConfig+0x34>
C:/Users/Accepted/Documents/smart_car/Seekfree_CH32V103R8T6_Opensource_Library/Libraries/wch_Libraries/Peripheral/ch32v10x_tim.c:906
  {
    TIMx->CTLR1 |= TIM_ARPE;
    12b8:	fec42783          	lw	a5,-20(s0)
    12bc:	0007d783          	lhu	a5,0(a5)
    12c0:	07c2                	slli	a5,a5,0x10
    12c2:	83c1                	srli	a5,a5,0x10
    12c4:	0807e793          	ori	a5,a5,128
    12c8:	01079713          	slli	a4,a5,0x10
    12cc:	8341                	srli	a4,a4,0x10
    12ce:	fec42783          	lw	a5,-20(s0)
    12d2:	00e79023          	sh	a4,0(a5)
C:/Users/Accepted/Documents/smart_car/Seekfree_CH32V103R8T6_Opensource_Library/Libraries/wch_Libraries/Peripheral/ch32v10x_tim.c:912
  }
  else
  {
    TIMx->CTLR1 &= (uint16_t)~((uint16_t)TIM_ARPE);
  }
}
    12d6:	a005                	j	12f6 <TIM_ARRPreloadConfig+0x52>
C:/Users/Accepted/Documents/smart_car/Seekfree_CH32V103R8T6_Opensource_Library/Libraries/wch_Libraries/Peripheral/ch32v10x_tim.c:910
    TIMx->CTLR1 &= (uint16_t)~((uint16_t)TIM_ARPE);
    12d8:	fec42783          	lw	a5,-20(s0)
    12dc:	0007d783          	lhu	a5,0(a5)
    12e0:	07c2                	slli	a5,a5,0x10
    12e2:	83c1                	srli	a5,a5,0x10
    12e4:	f7f7f793          	andi	a5,a5,-129
    12e8:	01079713          	slli	a4,a5,0x10
    12ec:	8341                	srli	a4,a4,0x10
    12ee:	fec42783          	lw	a5,-20(s0)
    12f2:	00e79023          	sh	a4,0(a5)
C:/Users/Accepted/Documents/smart_car/Seekfree_CH32V103R8T6_Opensource_Library/Libraries/wch_Libraries/Peripheral/ch32v10x_tim.c:912
}
    12f6:	0001                	nop
    12f8:	4472                	lw	s0,28(sp)
    12fa:	6105                	addi	sp,sp,32
    12fc:	8082                	ret

000012fe <TIM_OC1PreloadConfig>:
TIM_OC1PreloadConfig():
C:/Users/Accepted/Documents/smart_car/Seekfree_CH32V103R8T6_Opensource_Library/Libraries/wch_Libraries/Peripheral/ch32v10x_tim.c:981
*                    TIM_OCPreload_Enable.
*                    TIM_OCPreload_Disable.
* Return         : None
*******************************************************************************/
void TIM_OC1PreloadConfig(TIM_TypeDef* TIMx, uint16_t TIM_OCPreload)
{
    12fe:	7179                	addi	sp,sp,-48
    1300:	d622                	sw	s0,44(sp)
    1302:	1800                	addi	s0,sp,48
    1304:	fca42e23          	sw	a0,-36(s0)
    1308:	87ae                	mv	a5,a1
    130a:	fcf41d23          	sh	a5,-38(s0)
C:/Users/Accepted/Documents/smart_car/Seekfree_CH32V103R8T6_Opensource_Library/Libraries/wch_Libraries/Peripheral/ch32v10x_tim.c:982
  uint16_t tmpccmr1 = 0;
    130e:	fe041723          	sh	zero,-18(s0)
C:/Users/Accepted/Documents/smart_car/Seekfree_CH32V103R8T6_Opensource_Library/Libraries/wch_Libraries/Peripheral/ch32v10x_tim.c:984

  tmpccmr1 = TIMx->CHCTLR1;
    1312:	fdc42783          	lw	a5,-36(s0)
    1316:	0187d783          	lhu	a5,24(a5)
    131a:	fef41723          	sh	a5,-18(s0)
C:/Users/Accepted/Documents/smart_car/Seekfree_CH32V103R8T6_Opensource_Library/Libraries/wch_Libraries/Peripheral/ch32v10x_tim.c:985
  tmpccmr1 &= (uint16_t)~((uint16_t)TIM_OC1PE);
    131e:	fee45783          	lhu	a5,-18(s0)
    1322:	9bdd                	andi	a5,a5,-9
    1324:	fef41723          	sh	a5,-18(s0)
C:/Users/Accepted/Documents/smart_car/Seekfree_CH32V103R8T6_Opensource_Library/Libraries/wch_Libraries/Peripheral/ch32v10x_tim.c:986
  tmpccmr1 |= TIM_OCPreload;
    1328:	fee45703          	lhu	a4,-18(s0)
    132c:	fda45783          	lhu	a5,-38(s0)
    1330:	8fd9                	or	a5,a5,a4
    1332:	fef41723          	sh	a5,-18(s0)
C:/Users/Accepted/Documents/smart_car/Seekfree_CH32V103R8T6_Opensource_Library/Libraries/wch_Libraries/Peripheral/ch32v10x_tim.c:987
  TIMx->CHCTLR1 = tmpccmr1;
    1336:	fdc42783          	lw	a5,-36(s0)
    133a:	fee45703          	lhu	a4,-18(s0)
    133e:	00e79c23          	sh	a4,24(a5)
C:/Users/Accepted/Documents/smart_car/Seekfree_CH32V103R8T6_Opensource_Library/Libraries/wch_Libraries/Peripheral/ch32v10x_tim.c:988
}
    1342:	0001                	nop
    1344:	5432                	lw	s0,44(sp)
    1346:	6145                	addi	sp,sp,48
    1348:	8082                	ret

0000134a <TIM_OC2PreloadConfig>:
TIM_OC2PreloadConfig():
C:/Users/Accepted/Documents/smart_car/Seekfree_CH32V103R8T6_Opensource_Library/Libraries/wch_Libraries/Peripheral/ch32v10x_tim.c:1000
*                    TIM_OCPreload_Enable.
*                    TIM_OCPreload_Disable.
* Return         : None
*******************************************************************************/
void TIM_OC2PreloadConfig(TIM_TypeDef* TIMx, uint16_t TIM_OCPreload)
{
    134a:	7179                	addi	sp,sp,-48
    134c:	d622                	sw	s0,44(sp)
    134e:	1800                	addi	s0,sp,48
    1350:	fca42e23          	sw	a0,-36(s0)
    1354:	87ae                	mv	a5,a1
    1356:	fcf41d23          	sh	a5,-38(s0)
C:/Users/Accepted/Documents/smart_car/Seekfree_CH32V103R8T6_Opensource_Library/Libraries/wch_Libraries/Peripheral/ch32v10x_tim.c:1001
  uint16_t tmpccmr1 = 0;
    135a:	fe041723          	sh	zero,-18(s0)
C:/Users/Accepted/Documents/smart_car/Seekfree_CH32V103R8T6_Opensource_Library/Libraries/wch_Libraries/Peripheral/ch32v10x_tim.c:1003

  tmpccmr1 = TIMx->CHCTLR1;
    135e:	fdc42783          	lw	a5,-36(s0)
    1362:	0187d783          	lhu	a5,24(a5)
    1366:	fef41723          	sh	a5,-18(s0)
C:/Users/Accepted/Documents/smart_car/Seekfree_CH32V103R8T6_Opensource_Library/Libraries/wch_Libraries/Peripheral/ch32v10x_tim.c:1004
  tmpccmr1 &= (uint16_t)~((uint16_t)TIM_OC2PE);
    136a:	fee45703          	lhu	a4,-18(s0)
    136e:	77fd                	lui	a5,0xfffff
    1370:	7ff78793          	addi	a5,a5,2047 # fffff7ff <_eusrstack+0xdfffa7ff>
    1374:	8ff9                	and	a5,a5,a4
    1376:	fef41723          	sh	a5,-18(s0)
C:/Users/Accepted/Documents/smart_car/Seekfree_CH32V103R8T6_Opensource_Library/Libraries/wch_Libraries/Peripheral/ch32v10x_tim.c:1005
  tmpccmr1 |= (uint16_t)(TIM_OCPreload << 8);	
    137a:	fda45783          	lhu	a5,-38(s0)
    137e:	07a2                	slli	a5,a5,0x8
    1380:	01079713          	slli	a4,a5,0x10
    1384:	8341                	srli	a4,a4,0x10
    1386:	fee45783          	lhu	a5,-18(s0)
    138a:	8fd9                	or	a5,a5,a4
    138c:	fef41723          	sh	a5,-18(s0)
C:/Users/Accepted/Documents/smart_car/Seekfree_CH32V103R8T6_Opensource_Library/Libraries/wch_Libraries/Peripheral/ch32v10x_tim.c:1006
  TIMx->CHCTLR1 = tmpccmr1;
    1390:	fdc42783          	lw	a5,-36(s0)
    1394:	fee45703          	lhu	a4,-18(s0)
    1398:	00e79c23          	sh	a4,24(a5)
C:/Users/Accepted/Documents/smart_car/Seekfree_CH32V103R8T6_Opensource_Library/Libraries/wch_Libraries/Peripheral/ch32v10x_tim.c:1007
}
    139c:	0001                	nop
    139e:	5432                	lw	s0,44(sp)
    13a0:	6145                	addi	sp,sp,48
    13a2:	8082                	ret

000013a4 <TIM_OC3PreloadConfig>:
TIM_OC3PreloadConfig():
C:/Users/Accepted/Documents/smart_car/Seekfree_CH32V103R8T6_Opensource_Library/Libraries/wch_Libraries/Peripheral/ch32v10x_tim.c:1019
*                    TIM_OCPreload_Enable.
*                    TIM_OCPreload_Disable.
* Return         : None
*******************************************************************************/
void TIM_OC3PreloadConfig(TIM_TypeDef* TIMx, uint16_t TIM_OCPreload)
{
    13a4:	7179                	addi	sp,sp,-48
    13a6:	d622                	sw	s0,44(sp)
    13a8:	1800                	addi	s0,sp,48
    13aa:	fca42e23          	sw	a0,-36(s0)
    13ae:	87ae                	mv	a5,a1
    13b0:	fcf41d23          	sh	a5,-38(s0)
C:/Users/Accepted/Documents/smart_car/Seekfree_CH32V103R8T6_Opensource_Library/Libraries/wch_Libraries/Peripheral/ch32v10x_tim.c:1020
  uint16_t tmpccmr2 = 0;
    13b4:	fe041723          	sh	zero,-18(s0)
C:/Users/Accepted/Documents/smart_car/Seekfree_CH32V103R8T6_Opensource_Library/Libraries/wch_Libraries/Peripheral/ch32v10x_tim.c:1022

  tmpccmr2 = TIMx->CHCTLR2;
    13b8:	fdc42783          	lw	a5,-36(s0)
    13bc:	01c7d783          	lhu	a5,28(a5)
    13c0:	fef41723          	sh	a5,-18(s0)
C:/Users/Accepted/Documents/smart_car/Seekfree_CH32V103R8T6_Opensource_Library/Libraries/wch_Libraries/Peripheral/ch32v10x_tim.c:1023
  tmpccmr2 &= (uint16_t)~((uint16_t)TIM_OC3PE);
    13c4:	fee45783          	lhu	a5,-18(s0)
    13c8:	9bdd                	andi	a5,a5,-9
    13ca:	fef41723          	sh	a5,-18(s0)
C:/Users/Accepted/Documents/smart_car/Seekfree_CH32V103R8T6_Opensource_Library/Libraries/wch_Libraries/Peripheral/ch32v10x_tim.c:1024
  tmpccmr2 |= TIM_OCPreload;
    13ce:	fee45703          	lhu	a4,-18(s0)
    13d2:	fda45783          	lhu	a5,-38(s0)
    13d6:	8fd9                	or	a5,a5,a4
    13d8:	fef41723          	sh	a5,-18(s0)
C:/Users/Accepted/Documents/smart_car/Seekfree_CH32V103R8T6_Opensource_Library/Libraries/wch_Libraries/Peripheral/ch32v10x_tim.c:1025
  TIMx->CHCTLR2 = tmpccmr2;
    13dc:	fdc42783          	lw	a5,-36(s0)
    13e0:	fee45703          	lhu	a4,-18(s0)
    13e4:	00e79e23          	sh	a4,28(a5)
C:/Users/Accepted/Documents/smart_car/Seekfree_CH32V103R8T6_Opensource_Library/Libraries/wch_Libraries/Peripheral/ch32v10x_tim.c:1026
}
    13e8:	0001                	nop
    13ea:	5432                	lw	s0,44(sp)
    13ec:	6145                	addi	sp,sp,48
    13ee:	8082                	ret

000013f0 <TIM_OC4PreloadConfig>:
TIM_OC4PreloadConfig():
C:/Users/Accepted/Documents/smart_car/Seekfree_CH32V103R8T6_Opensource_Library/Libraries/wch_Libraries/Peripheral/ch32v10x_tim.c:1038
*                    TIM_OCPreload_Enable.
*                    TIM_OCPreload_Disable.
* Return         : None
*******************************************************************************/
void TIM_OC4PreloadConfig(TIM_TypeDef* TIMx, uint16_t TIM_OCPreload)
{
    13f0:	7179                	addi	sp,sp,-48
    13f2:	d622                	sw	s0,44(sp)
    13f4:	1800                	addi	s0,sp,48
    13f6:	fca42e23          	sw	a0,-36(s0)
    13fa:	87ae                	mv	a5,a1
    13fc:	fcf41d23          	sh	a5,-38(s0)
C:/Users/Accepted/Documents/smart_car/Seekfree_CH32V103R8T6_Opensource_Library/Libraries/wch_Libraries/Peripheral/ch32v10x_tim.c:1039
  uint16_t tmpccmr2 = 0;
    1400:	fe041723          	sh	zero,-18(s0)
C:/Users/Accepted/Documents/smart_car/Seekfree_CH32V103R8T6_Opensource_Library/Libraries/wch_Libraries/Peripheral/ch32v10x_tim.c:1041

  tmpccmr2 = TIMx->CHCTLR2;
    1404:	fdc42783          	lw	a5,-36(s0)
    1408:	01c7d783          	lhu	a5,28(a5)
    140c:	fef41723          	sh	a5,-18(s0)
C:/Users/Accepted/Documents/smart_car/Seekfree_CH32V103R8T6_Opensource_Library/Libraries/wch_Libraries/Peripheral/ch32v10x_tim.c:1042
  tmpccmr2 &= (uint16_t)~((uint16_t)TIM_OC4PE);
    1410:	fee45703          	lhu	a4,-18(s0)
    1414:	77fd                	lui	a5,0xfffff
    1416:	7ff78793          	addi	a5,a5,2047 # fffff7ff <_eusrstack+0xdfffa7ff>
    141a:	8ff9                	and	a5,a5,a4
    141c:	fef41723          	sh	a5,-18(s0)
C:/Users/Accepted/Documents/smart_car/Seekfree_CH32V103R8T6_Opensource_Library/Libraries/wch_Libraries/Peripheral/ch32v10x_tim.c:1043
  tmpccmr2 |= (uint16_t)(TIM_OCPreload << 8);
    1420:	fda45783          	lhu	a5,-38(s0)
    1424:	07a2                	slli	a5,a5,0x8
    1426:	01079713          	slli	a4,a5,0x10
    142a:	8341                	srli	a4,a4,0x10
    142c:	fee45783          	lhu	a5,-18(s0)
    1430:	8fd9                	or	a5,a5,a4
    1432:	fef41723          	sh	a5,-18(s0)
C:/Users/Accepted/Documents/smart_car/Seekfree_CH32V103R8T6_Opensource_Library/Libraries/wch_Libraries/Peripheral/ch32v10x_tim.c:1044
  TIMx->CHCTLR2 = tmpccmr2;
    1436:	fdc42783          	lw	a5,-36(s0)
    143a:	fee45703          	lhu	a4,-18(s0)
    143e:	00e79e23          	sh	a4,28(a5)
C:/Users/Accepted/Documents/smart_car/Seekfree_CH32V103R8T6_Opensource_Library/Libraries/wch_Libraries/Peripheral/ch32v10x_tim.c:1045
}
    1442:	0001                	nop
    1444:	5432                	lw	s0,44(sp)
    1446:	6145                	addi	sp,sp,48
    1448:	8082                	ret

0000144a <TIM_OC1FastConfig>:
TIM_OC1FastConfig():
C:/Users/Accepted/Documents/smart_car/Seekfree_CH32V103R8T6_Opensource_Library/Libraries/wch_Libraries/Peripheral/ch32v10x_tim.c:1057
*                    TIM_OCFast_Enable: TIM output compare fast enable.
*                    TIM_OCFast_Disable: TIM output compare fast disable.
* Return         : None
*******************************************************************************/
void TIM_OC1FastConfig(TIM_TypeDef* TIMx, uint16_t TIM_OCFast)
{
    144a:	7179                	addi	sp,sp,-48
    144c:	d622                	sw	s0,44(sp)
    144e:	1800                	addi	s0,sp,48
    1450:	fca42e23          	sw	a0,-36(s0)
    1454:	87ae                	mv	a5,a1
    1456:	fcf41d23          	sh	a5,-38(s0)
C:/Users/Accepted/Documents/smart_car/Seekfree_CH32V103R8T6_Opensource_Library/Libraries/wch_Libraries/Peripheral/ch32v10x_tim.c:1058
  uint16_t tmpccmr1 = 0;
    145a:	fe041723          	sh	zero,-18(s0)
C:/Users/Accepted/Documents/smart_car/Seekfree_CH32V103R8T6_Opensource_Library/Libraries/wch_Libraries/Peripheral/ch32v10x_tim.c:1060

  tmpccmr1 = TIMx->CHCTLR1;
    145e:	fdc42783          	lw	a5,-36(s0)
    1462:	0187d783          	lhu	a5,24(a5)
    1466:	fef41723          	sh	a5,-18(s0)
C:/Users/Accepted/Documents/smart_car/Seekfree_CH32V103R8T6_Opensource_Library/Libraries/wch_Libraries/Peripheral/ch32v10x_tim.c:1061
  tmpccmr1 &= (uint16_t)~((uint16_t)TIM_OC1FE);
    146a:	fee45783          	lhu	a5,-18(s0)
    146e:	9bed                	andi	a5,a5,-5
    1470:	fef41723          	sh	a5,-18(s0)
C:/Users/Accepted/Documents/smart_car/Seekfree_CH32V103R8T6_Opensource_Library/Libraries/wch_Libraries/Peripheral/ch32v10x_tim.c:1062
  tmpccmr1 |= TIM_OCFast;
    1474:	fee45703          	lhu	a4,-18(s0)
    1478:	fda45783          	lhu	a5,-38(s0)
    147c:	8fd9                	or	a5,a5,a4
    147e:	fef41723          	sh	a5,-18(s0)
C:/Users/Accepted/Documents/smart_car/Seekfree_CH32V103R8T6_Opensource_Library/Libraries/wch_Libraries/Peripheral/ch32v10x_tim.c:1063
  TIMx->CHCTLR1 = tmpccmr1;
    1482:	fdc42783          	lw	a5,-36(s0)
    1486:	fee45703          	lhu	a4,-18(s0)
    148a:	00e79c23          	sh	a4,24(a5)
C:/Users/Accepted/Documents/smart_car/Seekfree_CH32V103R8T6_Opensource_Library/Libraries/wch_Libraries/Peripheral/ch32v10x_tim.c:1064
}
    148e:	0001                	nop
    1490:	5432                	lw	s0,44(sp)
    1492:	6145                	addi	sp,sp,48
    1494:	8082                	ret

00001496 <TIM_OC2FastConfig>:
TIM_OC2FastConfig():
C:/Users/Accepted/Documents/smart_car/Seekfree_CH32V103R8T6_Opensource_Library/Libraries/wch_Libraries/Peripheral/ch32v10x_tim.c:1076
*                    TIM_OCFast_Enable: TIM output compare fast enable.
*                    TIM_OCFast_Disable: TIM output compare fast disable.
* Return         : None
*******************************************************************************/
void TIM_OC2FastConfig(TIM_TypeDef* TIMx, uint16_t TIM_OCFast)
{
    1496:	7179                	addi	sp,sp,-48
    1498:	d622                	sw	s0,44(sp)
    149a:	1800                	addi	s0,sp,48
    149c:	fca42e23          	sw	a0,-36(s0)
    14a0:	87ae                	mv	a5,a1
    14a2:	fcf41d23          	sh	a5,-38(s0)
C:/Users/Accepted/Documents/smart_car/Seekfree_CH32V103R8T6_Opensource_Library/Libraries/wch_Libraries/Peripheral/ch32v10x_tim.c:1077
  uint16_t tmpccmr1 = 0;
    14a6:	fe041723          	sh	zero,-18(s0)
C:/Users/Accepted/Documents/smart_car/Seekfree_CH32V103R8T6_Opensource_Library/Libraries/wch_Libraries/Peripheral/ch32v10x_tim.c:1079

  tmpccmr1 = TIMx->CHCTLR1;
    14aa:	fdc42783          	lw	a5,-36(s0)
    14ae:	0187d783          	lhu	a5,24(a5)
    14b2:	fef41723          	sh	a5,-18(s0)
C:/Users/Accepted/Documents/smart_car/Seekfree_CH32V103R8T6_Opensource_Library/Libraries/wch_Libraries/Peripheral/ch32v10x_tim.c:1080
  tmpccmr1 &= (uint16_t)~((uint16_t)TIM_OC2FE);
    14b6:	fee45783          	lhu	a5,-18(s0)
    14ba:	bff7f793          	andi	a5,a5,-1025
    14be:	fef41723          	sh	a5,-18(s0)
C:/Users/Accepted/Documents/smart_car/Seekfree_CH32V103R8T6_Opensource_Library/Libraries/wch_Libraries/Peripheral/ch32v10x_tim.c:1081
  tmpccmr1 |= (uint16_t)(TIM_OCFast << 8);
    14c2:	fda45783          	lhu	a5,-38(s0)
    14c6:	07a2                	slli	a5,a5,0x8
    14c8:	01079713          	slli	a4,a5,0x10
    14cc:	8341                	srli	a4,a4,0x10
    14ce:	fee45783          	lhu	a5,-18(s0)
    14d2:	8fd9                	or	a5,a5,a4
    14d4:	fef41723          	sh	a5,-18(s0)
C:/Users/Accepted/Documents/smart_car/Seekfree_CH32V103R8T6_Opensource_Library/Libraries/wch_Libraries/Peripheral/ch32v10x_tim.c:1082
  TIMx->CHCTLR1 = tmpccmr1;
    14d8:	fdc42783          	lw	a5,-36(s0)
    14dc:	fee45703          	lhu	a4,-18(s0)
    14e0:	00e79c23          	sh	a4,24(a5)
C:/Users/Accepted/Documents/smart_car/Seekfree_CH32V103R8T6_Opensource_Library/Libraries/wch_Libraries/Peripheral/ch32v10x_tim.c:1083
}
    14e4:	0001                	nop
    14e6:	5432                	lw	s0,44(sp)
    14e8:	6145                	addi	sp,sp,48
    14ea:	8082                	ret

000014ec <TIM_OC3FastConfig>:
TIM_OC3FastConfig():
C:/Users/Accepted/Documents/smart_car/Seekfree_CH32V103R8T6_Opensource_Library/Libraries/wch_Libraries/Peripheral/ch32v10x_tim.c:1095
*                    TIM_OCFast_Enable: TIM output compare fast enable.
*                    TIM_OCFast_Disable: TIM output compare fast disable.
* Return         : None
*******************************************************************************/
void TIM_OC3FastConfig(TIM_TypeDef* TIMx, uint16_t TIM_OCFast)
{
    14ec:	7179                	addi	sp,sp,-48
    14ee:	d622                	sw	s0,44(sp)
    14f0:	1800                	addi	s0,sp,48
    14f2:	fca42e23          	sw	a0,-36(s0)
    14f6:	87ae                	mv	a5,a1
    14f8:	fcf41d23          	sh	a5,-38(s0)
C:/Users/Accepted/Documents/smart_car/Seekfree_CH32V103R8T6_Opensource_Library/Libraries/wch_Libraries/Peripheral/ch32v10x_tim.c:1096
  uint16_t tmpccmr2 = 0;
    14fc:	fe041723          	sh	zero,-18(s0)
C:/Users/Accepted/Documents/smart_car/Seekfree_CH32V103R8T6_Opensource_Library/Libraries/wch_Libraries/Peripheral/ch32v10x_tim.c:1098

  tmpccmr2 = TIMx->CHCTLR2;
    1500:	fdc42783          	lw	a5,-36(s0)
    1504:	01c7d783          	lhu	a5,28(a5)
    1508:	fef41723          	sh	a5,-18(s0)
C:/Users/Accepted/Documents/smart_car/Seekfree_CH32V103R8T6_Opensource_Library/Libraries/wch_Libraries/Peripheral/ch32v10x_tim.c:1099
  tmpccmr2 &= (uint16_t)~((uint16_t)TIM_OC3FE);
    150c:	fee45783          	lhu	a5,-18(s0)
    1510:	9bed                	andi	a5,a5,-5
    1512:	fef41723          	sh	a5,-18(s0)
C:/Users/Accepted/Documents/smart_car/Seekfree_CH32V103R8T6_Opensource_Library/Libraries/wch_Libraries/Peripheral/ch32v10x_tim.c:1100
  tmpccmr2 |= TIM_OCFast;	
    1516:	fee45703          	lhu	a4,-18(s0)
    151a:	fda45783          	lhu	a5,-38(s0)
    151e:	8fd9                	or	a5,a5,a4
    1520:	fef41723          	sh	a5,-18(s0)
C:/Users/Accepted/Documents/smart_car/Seekfree_CH32V103R8T6_Opensource_Library/Libraries/wch_Libraries/Peripheral/ch32v10x_tim.c:1101
  TIMx->CHCTLR2 = tmpccmr2;
    1524:	fdc42783          	lw	a5,-36(s0)
    1528:	fee45703          	lhu	a4,-18(s0)
    152c:	00e79e23          	sh	a4,28(a5)
C:/Users/Accepted/Documents/smart_car/Seekfree_CH32V103R8T6_Opensource_Library/Libraries/wch_Libraries/Peripheral/ch32v10x_tim.c:1102
}
    1530:	0001                	nop
    1532:	5432                	lw	s0,44(sp)
    1534:	6145                	addi	sp,sp,48
    1536:	8082                	ret

00001538 <TIM_OC4FastConfig>:
TIM_OC4FastConfig():
C:/Users/Accepted/Documents/smart_car/Seekfree_CH32V103R8T6_Opensource_Library/Libraries/wch_Libraries/Peripheral/ch32v10x_tim.c:1114
*                    TIM_OCFast_Enable: TIM output compare fast enable.
*                    TIM_OCFast_Disable: TIM output compare fast disable.
* Return         : None
*******************************************************************************/
void TIM_OC4FastConfig(TIM_TypeDef* TIMx, uint16_t TIM_OCFast)
{
    1538:	7179                	addi	sp,sp,-48
    153a:	d622                	sw	s0,44(sp)
    153c:	1800                	addi	s0,sp,48
    153e:	fca42e23          	sw	a0,-36(s0)
    1542:	87ae                	mv	a5,a1
    1544:	fcf41d23          	sh	a5,-38(s0)
C:/Users/Accepted/Documents/smart_car/Seekfree_CH32V103R8T6_Opensource_Library/Libraries/wch_Libraries/Peripheral/ch32v10x_tim.c:1115
  uint16_t tmpccmr2 = 0;
    1548:	fe041723          	sh	zero,-18(s0)
C:/Users/Accepted/Documents/smart_car/Seekfree_CH32V103R8T6_Opensource_Library/Libraries/wch_Libraries/Peripheral/ch32v10x_tim.c:1117

  tmpccmr2 = TIMx->CHCTLR2;
    154c:	fdc42783          	lw	a5,-36(s0)
    1550:	01c7d783          	lhu	a5,28(a5)
    1554:	fef41723          	sh	a5,-18(s0)
C:/Users/Accepted/Documents/smart_car/Seekfree_CH32V103R8T6_Opensource_Library/Libraries/wch_Libraries/Peripheral/ch32v10x_tim.c:1118
  tmpccmr2 &= (uint16_t)~((uint16_t)TIM_OC4FE);
    1558:	fee45783          	lhu	a5,-18(s0)
    155c:	bff7f793          	andi	a5,a5,-1025
    1560:	fef41723          	sh	a5,-18(s0)
C:/Users/Accepted/Documents/smart_car/Seekfree_CH32V103R8T6_Opensource_Library/Libraries/wch_Libraries/Peripheral/ch32v10x_tim.c:1119
  tmpccmr2 |= (uint16_t)(TIM_OCFast << 8);
    1564:	fda45783          	lhu	a5,-38(s0)
    1568:	07a2                	slli	a5,a5,0x8
    156a:	01079713          	slli	a4,a5,0x10
    156e:	8341                	srli	a4,a4,0x10
    1570:	fee45783          	lhu	a5,-18(s0)
    1574:	8fd9                	or	a5,a5,a4
    1576:	fef41723          	sh	a5,-18(s0)
C:/Users/Accepted/Documents/smart_car/Seekfree_CH32V103R8T6_Opensource_Library/Libraries/wch_Libraries/Peripheral/ch32v10x_tim.c:1120
  TIMx->CHCTLR2 = tmpccmr2;
    157a:	fdc42783          	lw	a5,-36(s0)
    157e:	fee45703          	lhu	a4,-18(s0)
    1582:	00e79e23          	sh	a4,28(a5)
C:/Users/Accepted/Documents/smart_car/Seekfree_CH32V103R8T6_Opensource_Library/Libraries/wch_Libraries/Peripheral/ch32v10x_tim.c:1121
}
    1586:	0001                	nop
    1588:	5432                	lw	s0,44(sp)
    158a:	6145                	addi	sp,sp,48
    158c:	8082                	ret

0000158e <TIM_GetITStatus>:
TIM_GetITStatus():
C:/Users/Accepted/Documents/smart_car/Seekfree_CH32V103R8T6_Opensource_Library/Libraries/wch_Libraries/Peripheral/ch32v10x_tim.c:1853
*                    TIM_IT_Trigger: TIM Trigger Interrupt source.
*                    TIM_IT_Break: TIM Break Interrupt source.
* Return         : bitstatus: SET or RESET.
*******************************************************************************/
ITStatus TIM_GetITStatus(TIM_TypeDef* TIMx, uint16_t TIM_IT)
{
    158e:	7179                	addi	sp,sp,-48
    1590:	d622                	sw	s0,44(sp)
    1592:	1800                	addi	s0,sp,48
    1594:	fca42e23          	sw	a0,-36(s0)
    1598:	87ae                	mv	a5,a1
    159a:	fcf41d23          	sh	a5,-38(s0)
C:/Users/Accepted/Documents/smart_car/Seekfree_CH32V103R8T6_Opensource_Library/Libraries/wch_Libraries/Peripheral/ch32v10x_tim.c:1854
  ITStatus bitstatus = RESET;  
    159e:	fe042623          	sw	zero,-20(s0)
C:/Users/Accepted/Documents/smart_car/Seekfree_CH32V103R8T6_Opensource_Library/Libraries/wch_Libraries/Peripheral/ch32v10x_tim.c:1855
  uint16_t itstatus = 0x0, itenable = 0x0;
    15a2:	fe041523          	sh	zero,-22(s0)
    15a6:	fe041423          	sh	zero,-24(s0)
C:/Users/Accepted/Documents/smart_car/Seekfree_CH32V103R8T6_Opensource_Library/Libraries/wch_Libraries/Peripheral/ch32v10x_tim.c:1857
   
  itstatus = TIMx->INTFR & TIM_IT;
    15aa:	fdc42783          	lw	a5,-36(s0)
    15ae:	0107d783          	lhu	a5,16(a5)
    15b2:	01079713          	slli	a4,a5,0x10
    15b6:	8341                	srli	a4,a4,0x10
    15b8:	fda45783          	lhu	a5,-38(s0)
    15bc:	8ff9                	and	a5,a5,a4
    15be:	fef41523          	sh	a5,-22(s0)
C:/Users/Accepted/Documents/smart_car/Seekfree_CH32V103R8T6_Opensource_Library/Libraries/wch_Libraries/Peripheral/ch32v10x_tim.c:1859
  
  itenable = TIMx->DMAINTENR & TIM_IT;
    15c2:	fdc42783          	lw	a5,-36(s0)
    15c6:	00c7d783          	lhu	a5,12(a5)
    15ca:	01079713          	slli	a4,a5,0x10
    15ce:	8341                	srli	a4,a4,0x10
    15d0:	fda45783          	lhu	a5,-38(s0)
    15d4:	8ff9                	and	a5,a5,a4
    15d6:	fef41423          	sh	a5,-24(s0)
C:/Users/Accepted/Documents/smart_car/Seekfree_CH32V103R8T6_Opensource_Library/Libraries/wch_Libraries/Peripheral/ch32v10x_tim.c:1860
  if ((itstatus != (uint16_t)RESET) && (itenable != (uint16_t)RESET))
    15da:	fea45783          	lhu	a5,-22(s0)
    15de:	cb81                	beqz	a5,15ee <TIM_GetITStatus+0x60>
C:/Users/Accepted/Documents/smart_car/Seekfree_CH32V103R8T6_Opensource_Library/Libraries/wch_Libraries/Peripheral/ch32v10x_tim.c:1860 (discriminator 1)
    15e0:	fe845783          	lhu	a5,-24(s0)
    15e4:	c789                	beqz	a5,15ee <TIM_GetITStatus+0x60>
C:/Users/Accepted/Documents/smart_car/Seekfree_CH32V103R8T6_Opensource_Library/Libraries/wch_Libraries/Peripheral/ch32v10x_tim.c:1862
  {
    bitstatus = SET;
    15e6:	4785                	li	a5,1
    15e8:	fef42623          	sw	a5,-20(s0)
    15ec:	a019                	j	15f2 <TIM_GetITStatus+0x64>
C:/Users/Accepted/Documents/smart_car/Seekfree_CH32V103R8T6_Opensource_Library/Libraries/wch_Libraries/Peripheral/ch32v10x_tim.c:1866
  }
  else
  {
    bitstatus = RESET;
    15ee:	fe042623          	sw	zero,-20(s0)
C:/Users/Accepted/Documents/smart_car/Seekfree_CH32V103R8T6_Opensource_Library/Libraries/wch_Libraries/Peripheral/ch32v10x_tim.c:1869
  }
	
  return bitstatus;
    15f2:	fec42783          	lw	a5,-20(s0)
C:/Users/Accepted/Documents/smart_car/Seekfree_CH32V103R8T6_Opensource_Library/Libraries/wch_Libraries/Peripheral/ch32v10x_tim.c:1870
}
    15f6:	853e                	mv	a0,a5
    15f8:	5432                	lw	s0,44(sp)
    15fa:	6145                	addi	sp,sp,48
    15fc:	8082                	ret

000015fe <TIM_ClearITPendingBit>:
TIM_ClearITPendingBit():
C:/Users/Accepted/Documents/smart_car/Seekfree_CH32V103R8T6_Opensource_Library/Libraries/wch_Libraries/Peripheral/ch32v10x_tim.c:1888
*                    TIM_IT_Trigger: TIM Trigger Interrupt source.
*                    TIM_IT_Break: TIM Break Interrupt source.
* Return         : None
*******************************************************************************/
void TIM_ClearITPendingBit(TIM_TypeDef* TIMx, uint16_t TIM_IT)
{
    15fe:	1101                	addi	sp,sp,-32
    1600:	ce22                	sw	s0,28(sp)
    1602:	1000                	addi	s0,sp,32
    1604:	fea42623          	sw	a0,-20(s0)
    1608:	87ae                	mv	a5,a1
    160a:	fef41523          	sh	a5,-22(s0)
C:/Users/Accepted/Documents/smart_car/Seekfree_CH32V103R8T6_Opensource_Library/Libraries/wch_Libraries/Peripheral/ch32v10x_tim.c:1889
  TIMx->INTFR = (uint16_t)~TIM_IT;
    160e:	fea45783          	lhu	a5,-22(s0)
    1612:	fff7c793          	not	a5,a5
    1616:	01079713          	slli	a4,a5,0x10
    161a:	8341                	srli	a4,a4,0x10
    161c:	fec42783          	lw	a5,-20(s0)
    1620:	00e79823          	sh	a4,16(a5)
C:/Users/Accepted/Documents/smart_car/Seekfree_CH32V103R8T6_Opensource_Library/Libraries/wch_Libraries/Peripheral/ch32v10x_tim.c:1890
}
    1624:	0001                	nop
    1626:	4472                	lw	s0,28(sp)
    1628:	6105                	addi	sp,sp,32
    162a:	8082                	ret

0000162c <USART_Init>:
USART_Init():
C:/Users/Accepted/Documents/smart_car/Seekfree_CH32V103R8T6_Opensource_Library/Libraries/wch_Libraries/Peripheral/ch32v10x_usart.c:105
*                  USART_InitStruct: pointer to a USART_InitTypeDef structure
*      that contains the configuration information for the specified USART peripheral. 
* Return         : None
*******************************************************************************/
void USART_Init(USART_TypeDef* USARTx, USART_InitTypeDef* USART_InitStruct)
{
    162c:	715d                	addi	sp,sp,-80
    162e:	c686                	sw	ra,76(sp)
    1630:	c4a2                	sw	s0,72(sp)
    1632:	0880                	addi	s0,sp,80
    1634:	faa42e23          	sw	a0,-68(s0)
    1638:	fab42c23          	sw	a1,-72(s0)
C:/Users/Accepted/Documents/smart_car/Seekfree_CH32V103R8T6_Opensource_Library/Libraries/wch_Libraries/Peripheral/ch32v10x_usart.c:106
  uint32_t tmpreg = 0x00, apbclock = 0x00;
    163c:	fe042623          	sw	zero,-20(s0)
    1640:	fe042423          	sw	zero,-24(s0)
C:/Users/Accepted/Documents/smart_car/Seekfree_CH32V103R8T6_Opensource_Library/Libraries/wch_Libraries/Peripheral/ch32v10x_usart.c:107
  uint32_t integerdivider = 0x00;
    1644:	fe042223          	sw	zero,-28(s0)
C:/Users/Accepted/Documents/smart_car/Seekfree_CH32V103R8T6_Opensource_Library/Libraries/wch_Libraries/Peripheral/ch32v10x_usart.c:108
  uint32_t fractionaldivider = 0x00;
    1648:	fe042023          	sw	zero,-32(s0)
C:/Users/Accepted/Documents/smart_car/Seekfree_CH32V103R8T6_Opensource_Library/Libraries/wch_Libraries/Peripheral/ch32v10x_usart.c:109
  uint32_t usartxbase = 0;
    164c:	fc042e23          	sw	zero,-36(s0)
C:/Users/Accepted/Documents/smart_car/Seekfree_CH32V103R8T6_Opensource_Library/Libraries/wch_Libraries/Peripheral/ch32v10x_usart.c:116

  if (USART_InitStruct->USART_HardwareFlowControl != USART_HardwareFlowControl_None)
  {
  }

  usartxbase = (uint32_t)USARTx;
    1650:	fbc42783          	lw	a5,-68(s0)
    1654:	fcf42e23          	sw	a5,-36(s0)
C:/Users/Accepted/Documents/smart_car/Seekfree_CH32V103R8T6_Opensource_Library/Libraries/wch_Libraries/Peripheral/ch32v10x_usart.c:117
  tmpreg = USARTx->CTLR2;
    1658:	fbc42783          	lw	a5,-68(s0)
    165c:	0107d783          	lhu	a5,16(a5)
    1660:	07c2                	slli	a5,a5,0x10
    1662:	83c1                	srli	a5,a5,0x10
    1664:	fef42623          	sw	a5,-20(s0)
C:/Users/Accepted/Documents/smart_car/Seekfree_CH32V103R8T6_Opensource_Library/Libraries/wch_Libraries/Peripheral/ch32v10x_usart.c:118
  tmpreg &= CTLR2_STOP_CLEAR_Mask;
    1668:	fec42703          	lw	a4,-20(s0)
    166c:	67b5                	lui	a5,0xd
    166e:	17fd                	addi	a5,a5,-1
    1670:	8ff9                	and	a5,a5,a4
    1672:	fef42623          	sw	a5,-20(s0)
C:/Users/Accepted/Documents/smart_car/Seekfree_CH32V103R8T6_Opensource_Library/Libraries/wch_Libraries/Peripheral/ch32v10x_usart.c:119
  tmpreg |= (uint32_t)USART_InitStruct->USART_StopBits;  
    1676:	fb842783          	lw	a5,-72(s0)
    167a:	0067d783          	lhu	a5,6(a5) # d006 <_data_lma+0x8e2a>
    167e:	873e                	mv	a4,a5
    1680:	fec42783          	lw	a5,-20(s0)
    1684:	8fd9                	or	a5,a5,a4
    1686:	fef42623          	sw	a5,-20(s0)
C:/Users/Accepted/Documents/smart_car/Seekfree_CH32V103R8T6_Opensource_Library/Libraries/wch_Libraries/Peripheral/ch32v10x_usart.c:121
	
  USARTx->CTLR2 = (uint16_t)tmpreg;
    168a:	fec42783          	lw	a5,-20(s0)
    168e:	01079713          	slli	a4,a5,0x10
    1692:	8341                	srli	a4,a4,0x10
    1694:	fbc42783          	lw	a5,-68(s0)
    1698:	00e79823          	sh	a4,16(a5)
C:/Users/Accepted/Documents/smart_car/Seekfree_CH32V103R8T6_Opensource_Library/Libraries/wch_Libraries/Peripheral/ch32v10x_usart.c:122
  tmpreg = USARTx->CTLR1;
    169c:	fbc42783          	lw	a5,-68(s0)
    16a0:	00c7d783          	lhu	a5,12(a5)
    16a4:	07c2                	slli	a5,a5,0x10
    16a6:	83c1                	srli	a5,a5,0x10
    16a8:	fef42623          	sw	a5,-20(s0)
C:/Users/Accepted/Documents/smart_car/Seekfree_CH32V103R8T6_Opensource_Library/Libraries/wch_Libraries/Peripheral/ch32v10x_usart.c:123
  tmpreg &= CTLR1_CLEAR_Mask;
    16ac:	fec42703          	lw	a4,-20(s0)
    16b0:	67bd                	lui	a5,0xf
    16b2:	9f378793          	addi	a5,a5,-1549 # e9f3 <_data_lma+0xa817>
    16b6:	8ff9                	and	a5,a5,a4
    16b8:	fef42623          	sw	a5,-20(s0)
C:/Users/Accepted/Documents/smart_car/Seekfree_CH32V103R8T6_Opensource_Library/Libraries/wch_Libraries/Peripheral/ch32v10x_usart.c:124
  tmpreg |= (uint32_t)USART_InitStruct->USART_WordLength | USART_InitStruct->USART_Parity |
    16bc:	fb842783          	lw	a5,-72(s0)
    16c0:	0047d703          	lhu	a4,4(a5)
    16c4:	fb842783          	lw	a5,-72(s0)
    16c8:	0087d783          	lhu	a5,8(a5)
    16cc:	8fd9                	or	a5,a5,a4
    16ce:	01079713          	slli	a4,a5,0x10
    16d2:	8341                	srli	a4,a4,0x10
C:/Users/Accepted/Documents/smart_car/Seekfree_CH32V103R8T6_Opensource_Library/Libraries/wch_Libraries/Peripheral/ch32v10x_usart.c:125
            USART_InitStruct->USART_Mode;
    16d4:	fb842783          	lw	a5,-72(s0)
    16d8:	00a7d783          	lhu	a5,10(a5)
C:/Users/Accepted/Documents/smart_car/Seekfree_CH32V103R8T6_Opensource_Library/Libraries/wch_Libraries/Peripheral/ch32v10x_usart.c:124
  tmpreg |= (uint32_t)USART_InitStruct->USART_WordLength | USART_InitStruct->USART_Parity |
    16dc:	8fd9                	or	a5,a5,a4
    16de:	07c2                	slli	a5,a5,0x10
    16e0:	83c1                	srli	a5,a5,0x10
    16e2:	873e                	mv	a4,a5
    16e4:	fec42783          	lw	a5,-20(s0)
    16e8:	8fd9                	or	a5,a5,a4
    16ea:	fef42623          	sw	a5,-20(s0)
C:/Users/Accepted/Documents/smart_car/Seekfree_CH32V103R8T6_Opensource_Library/Libraries/wch_Libraries/Peripheral/ch32v10x_usart.c:126
  USARTx->CTLR1 = (uint16_t)tmpreg;
    16ee:	fec42783          	lw	a5,-20(s0)
    16f2:	01079713          	slli	a4,a5,0x10
    16f6:	8341                	srli	a4,a4,0x10
    16f8:	fbc42783          	lw	a5,-68(s0)
    16fc:	00e79623          	sh	a4,12(a5)
C:/Users/Accepted/Documents/smart_car/Seekfree_CH32V103R8T6_Opensource_Library/Libraries/wch_Libraries/Peripheral/ch32v10x_usart.c:128
 
  tmpreg = USARTx->CTLR3;
    1700:	fbc42783          	lw	a5,-68(s0)
    1704:	0147d783          	lhu	a5,20(a5)
    1708:	07c2                	slli	a5,a5,0x10
    170a:	83c1                	srli	a5,a5,0x10
    170c:	fef42623          	sw	a5,-20(s0)
C:/Users/Accepted/Documents/smart_car/Seekfree_CH32V103R8T6_Opensource_Library/Libraries/wch_Libraries/Peripheral/ch32v10x_usart.c:129
  tmpreg &= CTLR3_CLEAR_Mask;
    1710:	fec42703          	lw	a4,-20(s0)
    1714:	67c1                	lui	a5,0x10
    1716:	cff78793          	addi	a5,a5,-769 # fcff <_data_lma+0xbb23>
    171a:	8ff9                	and	a5,a5,a4
    171c:	fef42623          	sw	a5,-20(s0)
C:/Users/Accepted/Documents/smart_car/Seekfree_CH32V103R8T6_Opensource_Library/Libraries/wch_Libraries/Peripheral/ch32v10x_usart.c:130
  tmpreg |= USART_InitStruct->USART_HardwareFlowControl;
    1720:	fb842783          	lw	a5,-72(s0)
    1724:	00c7d783          	lhu	a5,12(a5)
    1728:	873e                	mv	a4,a5
    172a:	fec42783          	lw	a5,-20(s0)
    172e:	8fd9                	or	a5,a5,a4
    1730:	fef42623          	sw	a5,-20(s0)
C:/Users/Accepted/Documents/smart_car/Seekfree_CH32V103R8T6_Opensource_Library/Libraries/wch_Libraries/Peripheral/ch32v10x_usart.c:131
  USARTx->CTLR3 = (uint16_t)tmpreg;
    1734:	fec42783          	lw	a5,-20(s0)
    1738:	01079713          	slli	a4,a5,0x10
    173c:	8341                	srli	a4,a4,0x10
    173e:	fbc42783          	lw	a5,-68(s0)
    1742:	00e79a23          	sh	a4,20(a5)
C:/Users/Accepted/Documents/smart_car/Seekfree_CH32V103R8T6_Opensource_Library/Libraries/wch_Libraries/Peripheral/ch32v10x_usart.c:133

  RCC_GetClocksFreq(&RCC_ClocksStatus);
    1746:	fc840793          	addi	a5,s0,-56
    174a:	853e                	mv	a0,a5
    174c:	814ff0ef          	jal	ra,760 <RCC_GetClocksFreq>
C:/Users/Accepted/Documents/smart_car/Seekfree_CH32V103R8T6_Opensource_Library/Libraries/wch_Libraries/Peripheral/ch32v10x_usart.c:135
	
  if (usartxbase == USART1_BASE)
    1750:	fdc42703          	lw	a4,-36(s0)
    1754:	400147b7          	lui	a5,0x40014
    1758:	80078793          	addi	a5,a5,-2048 # 40013800 <_eusrstack+0x2000e800>
    175c:	00f71763          	bne	a4,a5,176a <USART_Init+0x13e>
C:/Users/Accepted/Documents/smart_car/Seekfree_CH32V103R8T6_Opensource_Library/Libraries/wch_Libraries/Peripheral/ch32v10x_usart.c:137
  {
    apbclock = RCC_ClocksStatus.PCLK2_Frequency;
    1760:	fd442783          	lw	a5,-44(s0)
    1764:	fef42423          	sw	a5,-24(s0)
    1768:	a029                	j	1772 <USART_Init+0x146>
C:/Users/Accepted/Documents/smart_car/Seekfree_CH32V103R8T6_Opensource_Library/Libraries/wch_Libraries/Peripheral/ch32v10x_usart.c:141
  }
  else
  {
    apbclock = RCC_ClocksStatus.PCLK1_Frequency;
    176a:	fd042783          	lw	a5,-48(s0)
    176e:	fef42423          	sw	a5,-24(s0)
C:/Users/Accepted/Documents/smart_car/Seekfree_CH32V103R8T6_Opensource_Library/Libraries/wch_Libraries/Peripheral/ch32v10x_usart.c:144
  }
  
  if ((USARTx->CTLR1 & CTLR1_OVER8_Set) != 0)
    1772:	fbc42783          	lw	a5,-68(s0)
    1776:	00c7d783          	lhu	a5,12(a5)
    177a:	07c2                	slli	a5,a5,0x10
    177c:	83c1                	srli	a5,a5,0x10
    177e:	07c2                	slli	a5,a5,0x10
    1780:	87c1                	srai	a5,a5,0x10
    1782:	0207d263          	bgez	a5,17a6 <USART_Init+0x17a>
C:/Users/Accepted/Documents/smart_car/Seekfree_CH32V103R8T6_Opensource_Library/Libraries/wch_Libraries/Peripheral/ch32v10x_usart.c:146
  {
    integerdivider = ((25 * apbclock) / (2 * (USART_InitStruct->USART_BaudRate)));    
    1786:	fe842703          	lw	a4,-24(s0)
    178a:	87ba                	mv	a5,a4
    178c:	0786                	slli	a5,a5,0x1
    178e:	97ba                	add	a5,a5,a4
    1790:	078e                	slli	a5,a5,0x3
    1792:	973e                	add	a4,a4,a5
    1794:	fb842783          	lw	a5,-72(s0)
    1798:	439c                	lw	a5,0(a5)
    179a:	0786                	slli	a5,a5,0x1
    179c:	02f757b3          	divu	a5,a4,a5
    17a0:	fef42223          	sw	a5,-28(s0)
    17a4:	a005                	j	17c4 <USART_Init+0x198>
C:/Users/Accepted/Documents/smart_car/Seekfree_CH32V103R8T6_Opensource_Library/Libraries/wch_Libraries/Peripheral/ch32v10x_usart.c:150
  }
  else 
  {
    integerdivider = ((25 * apbclock) / (4 * (USART_InitStruct->USART_BaudRate)));    
    17a6:	fe842703          	lw	a4,-24(s0)
    17aa:	87ba                	mv	a5,a4
    17ac:	0786                	slli	a5,a5,0x1
    17ae:	97ba                	add	a5,a5,a4
    17b0:	078e                	slli	a5,a5,0x3
    17b2:	973e                	add	a4,a4,a5
    17b4:	fb842783          	lw	a5,-72(s0)
    17b8:	439c                	lw	a5,0(a5)
    17ba:	078a                	slli	a5,a5,0x2
    17bc:	02f757b3          	divu	a5,a4,a5
    17c0:	fef42223          	sw	a5,-28(s0)
C:/Users/Accepted/Documents/smart_car/Seekfree_CH32V103R8T6_Opensource_Library/Libraries/wch_Libraries/Peripheral/ch32v10x_usart.c:152
  }
  tmpreg = (integerdivider / 100) << 4;
    17c4:	fe442703          	lw	a4,-28(s0)
    17c8:	06400793          	li	a5,100
    17cc:	02f757b3          	divu	a5,a4,a5
    17d0:	0792                	slli	a5,a5,0x4
    17d2:	fef42623          	sw	a5,-20(s0)
C:/Users/Accepted/Documents/smart_car/Seekfree_CH32V103R8T6_Opensource_Library/Libraries/wch_Libraries/Peripheral/ch32v10x_usart.c:154

  fractionaldivider = integerdivider - (100 * (tmpreg >> 4));
    17d6:	fec42783          	lw	a5,-20(s0)
    17da:	0047d713          	srli	a4,a5,0x4
    17de:	06400793          	li	a5,100
    17e2:	02f707b3          	mul	a5,a4,a5
    17e6:	fe442703          	lw	a4,-28(s0)
    17ea:	40f707b3          	sub	a5,a4,a5
    17ee:	fef42023          	sw	a5,-32(s0)
C:/Users/Accepted/Documents/smart_car/Seekfree_CH32V103R8T6_Opensource_Library/Libraries/wch_Libraries/Peripheral/ch32v10x_usart.c:156

  if ((USARTx->CTLR1 & CTLR1_OVER8_Set) != 0)
    17f2:	fbc42783          	lw	a5,-68(s0)
    17f6:	00c7d783          	lhu	a5,12(a5)
    17fa:	07c2                	slli	a5,a5,0x10
    17fc:	83c1                	srli	a5,a5,0x10
    17fe:	07c2                	slli	a5,a5,0x10
    1800:	87c1                	srai	a5,a5,0x10
    1802:	0207d263          	bgez	a5,1826 <USART_Init+0x1fa>
C:/Users/Accepted/Documents/smart_car/Seekfree_CH32V103R8T6_Opensource_Library/Libraries/wch_Libraries/Peripheral/ch32v10x_usart.c:158
  {
    tmpreg |= ((((fractionaldivider * 8) + 50) / 100)) & ((uint8_t)0x07);
    1806:	fe042783          	lw	a5,-32(s0)
    180a:	078e                	slli	a5,a5,0x3
    180c:	03278713          	addi	a4,a5,50
    1810:	06400793          	li	a5,100
    1814:	02f757b3          	divu	a5,a4,a5
    1818:	8b9d                	andi	a5,a5,7
    181a:	fec42703          	lw	a4,-20(s0)
    181e:	8fd9                	or	a5,a5,a4
    1820:	fef42623          	sw	a5,-20(s0)
    1824:	a005                	j	1844 <USART_Init+0x218>
C:/Users/Accepted/Documents/smart_car/Seekfree_CH32V103R8T6_Opensource_Library/Libraries/wch_Libraries/Peripheral/ch32v10x_usart.c:162
  }
  else 
  {
    tmpreg |= ((((fractionaldivider * 16) + 50) / 100)) & ((uint8_t)0x0F);
    1826:	fe042783          	lw	a5,-32(s0)
    182a:	0792                	slli	a5,a5,0x4
    182c:	03278713          	addi	a4,a5,50
    1830:	06400793          	li	a5,100
    1834:	02f757b3          	divu	a5,a4,a5
    1838:	8bbd                	andi	a5,a5,15
    183a:	fec42703          	lw	a4,-20(s0)
    183e:	8fd9                	or	a5,a5,a4
    1840:	fef42623          	sw	a5,-20(s0)
C:/Users/Accepted/Documents/smart_car/Seekfree_CH32V103R8T6_Opensource_Library/Libraries/wch_Libraries/Peripheral/ch32v10x_usart.c:165
  }
  
  USARTx->BRR = (uint16_t)tmpreg;
    1844:	fec42783          	lw	a5,-20(s0)
    1848:	01079713          	slli	a4,a5,0x10
    184c:	8341                	srli	a4,a4,0x10
    184e:	fbc42783          	lw	a5,-68(s0)
    1852:	00e79423          	sh	a4,8(a5)
C:/Users/Accepted/Documents/smart_car/Seekfree_CH32V103R8T6_Opensource_Library/Libraries/wch_Libraries/Peripheral/ch32v10x_usart.c:166
}
    1856:	0001                	nop
    1858:	40b6                	lw	ra,76(sp)
    185a:	4426                	lw	s0,72(sp)
    185c:	6161                	addi	sp,sp,80
    185e:	8082                	ret

00001860 <USART_Cmd>:
USART_Cmd():
C:/Users/Accepted/Documents/smart_car/Seekfree_CH32V103R8T6_Opensource_Library/Libraries/wch_Libraries/Peripheral/ch32v10x_usart.c:229
* Input          : USARTx: where x can be 1, 2, 3 to select the USART peripheral.
*                  NewState: ENABLE or DISABLE.
* Return         : None
*******************************************************************************/
void USART_Cmd(USART_TypeDef* USARTx, FunctionalState NewState)
{
    1860:	1101                	addi	sp,sp,-32
    1862:	ce22                	sw	s0,28(sp)
    1864:	1000                	addi	s0,sp,32
    1866:	fea42623          	sw	a0,-20(s0)
    186a:	feb42423          	sw	a1,-24(s0)
C:/Users/Accepted/Documents/smart_car/Seekfree_CH32V103R8T6_Opensource_Library/Libraries/wch_Libraries/Peripheral/ch32v10x_usart.c:230
  if (NewState != DISABLE)
    186e:	fe842783          	lw	a5,-24(s0)
    1872:	c395                	beqz	a5,1896 <USART_Cmd+0x36>
C:/Users/Accepted/Documents/smart_car/Seekfree_CH32V103R8T6_Opensource_Library/Libraries/wch_Libraries/Peripheral/ch32v10x_usart.c:232
  {
    USARTx->CTLR1 |= CTLR1_UE_Set;
    1874:	fec42783          	lw	a5,-20(s0)
    1878:	00c7d783          	lhu	a5,12(a5)
    187c:	01079713          	slli	a4,a5,0x10
    1880:	8341                	srli	a4,a4,0x10
    1882:	6789                	lui	a5,0x2
    1884:	8fd9                	or	a5,a5,a4
    1886:	01079713          	slli	a4,a5,0x10
    188a:	8341                	srli	a4,a4,0x10
    188c:	fec42783          	lw	a5,-20(s0)
    1890:	00e79623          	sh	a4,12(a5) # 200c <gpio_init+0x162>
C:/Users/Accepted/Documents/smart_car/Seekfree_CH32V103R8T6_Opensource_Library/Libraries/wch_Libraries/Peripheral/ch32v10x_usart.c:238
  }
  else
  {
    USARTx->CTLR1 &= CTLR1_UE_Reset;
  }
}
    1894:	a015                	j	18b8 <USART_Cmd+0x58>
C:/Users/Accepted/Documents/smart_car/Seekfree_CH32V103R8T6_Opensource_Library/Libraries/wch_Libraries/Peripheral/ch32v10x_usart.c:236
    USARTx->CTLR1 &= CTLR1_UE_Reset;
    1896:	fec42783          	lw	a5,-20(s0)
    189a:	00c7d783          	lhu	a5,12(a5)
    189e:	01079713          	slli	a4,a5,0x10
    18a2:	8341                	srli	a4,a4,0x10
    18a4:	77f9                	lui	a5,0xffffe
    18a6:	17fd                	addi	a5,a5,-1
    18a8:	8ff9                	and	a5,a5,a4
    18aa:	01079713          	slli	a4,a5,0x10
    18ae:	8341                	srli	a4,a4,0x10
    18b0:	fec42783          	lw	a5,-20(s0)
    18b4:	00e79623          	sh	a4,12(a5) # ffffe00c <_eusrstack+0xdfff900c>
C:/Users/Accepted/Documents/smart_car/Seekfree_CH32V103R8T6_Opensource_Library/Libraries/wch_Libraries/Peripheral/ch32v10x_usart.c:238
}
    18b8:	0001                	nop
    18ba:	4472                	lw	s0,28(sp)
    18bc:	6105                	addi	sp,sp,32
    18be:	8082                	ret

000018c0 <USART_GetITStatus>:
USART_GetITStatus():
C:/Users/Accepted/Documents/smart_car/Seekfree_CH32V103R8T6_Opensource_Library/Libraries/wch_Libraries/Peripheral/ch32v10x_usart.c:660
*                    USART_IT_FE: Framing Error interrupt.
*                    USART_IT_PE: Parity Error interrupt.
* Return         : bitstatus: SET or RESET.
*******************************************************************************/
ITStatus USART_GetITStatus(USART_TypeDef* USARTx, uint16_t USART_IT)
{
    18c0:	7179                	addi	sp,sp,-48
    18c2:	d622                	sw	s0,44(sp)
    18c4:	1800                	addi	s0,sp,48
    18c6:	fca42e23          	sw	a0,-36(s0)
    18ca:	87ae                	mv	a5,a1
    18cc:	fcf41d23          	sh	a5,-38(s0)
C:/Users/Accepted/Documents/smart_car/Seekfree_CH32V103R8T6_Opensource_Library/Libraries/wch_Libraries/Peripheral/ch32v10x_usart.c:661
  uint32_t bitpos = 0x00, itmask = 0x00, usartreg = 0x00;
    18d0:	fe042223          	sw	zero,-28(s0)
    18d4:	fe042623          	sw	zero,-20(s0)
    18d8:	fe042023          	sw	zero,-32(s0)
C:/Users/Accepted/Documents/smart_car/Seekfree_CH32V103R8T6_Opensource_Library/Libraries/wch_Libraries/Peripheral/ch32v10x_usart.c:662
  ITStatus bitstatus = RESET;
    18dc:	fe042423          	sw	zero,-24(s0)
C:/Users/Accepted/Documents/smart_car/Seekfree_CH32V103R8T6_Opensource_Library/Libraries/wch_Libraries/Peripheral/ch32v10x_usart.c:668

  if (USART_IT == USART_IT_CTS)
  {
  }   
  
  usartreg = (((uint8_t)USART_IT) >> 0x05);
    18e0:	fda45783          	lhu	a5,-38(s0)
    18e4:	0ff7f793          	andi	a5,a5,255
    18e8:	8395                	srli	a5,a5,0x5
    18ea:	0ff7f793          	andi	a5,a5,255
    18ee:	fef42023          	sw	a5,-32(s0)
C:/Users/Accepted/Documents/smart_car/Seekfree_CH32V103R8T6_Opensource_Library/Libraries/wch_Libraries/Peripheral/ch32v10x_usart.c:669
  itmask = USART_IT & IT_Mask;
    18f2:	fda45783          	lhu	a5,-38(s0)
    18f6:	8bfd                	andi	a5,a5,31
    18f8:	fef42623          	sw	a5,-20(s0)
C:/Users/Accepted/Documents/smart_car/Seekfree_CH32V103R8T6_Opensource_Library/Libraries/wch_Libraries/Peripheral/ch32v10x_usart.c:670
  itmask = (uint32_t)0x01 << itmask;
    18fc:	fec42783          	lw	a5,-20(s0)
    1900:	4705                	li	a4,1
    1902:	00f717b3          	sll	a5,a4,a5
    1906:	fef42623          	sw	a5,-20(s0)
C:/Users/Accepted/Documents/smart_car/Seekfree_CH32V103R8T6_Opensource_Library/Libraries/wch_Libraries/Peripheral/ch32v10x_usart.c:672
  
  if (usartreg == 0x01) 
    190a:	fe042703          	lw	a4,-32(s0)
    190e:	4785                	li	a5,1
    1910:	00f71f63          	bne	a4,a5,192e <USART_GetITStatus+0x6e>
C:/Users/Accepted/Documents/smart_car/Seekfree_CH32V103R8T6_Opensource_Library/Libraries/wch_Libraries/Peripheral/ch32v10x_usart.c:674
  {
    itmask &= USARTx->CTLR1;
    1914:	fdc42783          	lw	a5,-36(s0)
    1918:	00c7d783          	lhu	a5,12(a5)
    191c:	07c2                	slli	a5,a5,0x10
    191e:	83c1                	srli	a5,a5,0x10
    1920:	873e                	mv	a4,a5
    1922:	fec42783          	lw	a5,-20(s0)
    1926:	8ff9                	and	a5,a5,a4
    1928:	fef42623          	sw	a5,-20(s0)
    192c:	a83d                	j	196a <USART_GetITStatus+0xaa>
C:/Users/Accepted/Documents/smart_car/Seekfree_CH32V103R8T6_Opensource_Library/Libraries/wch_Libraries/Peripheral/ch32v10x_usart.c:676
  }
  else if (usartreg == 0x02) 
    192e:	fe042703          	lw	a4,-32(s0)
    1932:	4789                	li	a5,2
    1934:	00f71f63          	bne	a4,a5,1952 <USART_GetITStatus+0x92>
C:/Users/Accepted/Documents/smart_car/Seekfree_CH32V103R8T6_Opensource_Library/Libraries/wch_Libraries/Peripheral/ch32v10x_usart.c:678
  {
    itmask &= USARTx->CTLR2;
    1938:	fdc42783          	lw	a5,-36(s0)
    193c:	0107d783          	lhu	a5,16(a5)
    1940:	07c2                	slli	a5,a5,0x10
    1942:	83c1                	srli	a5,a5,0x10
    1944:	873e                	mv	a4,a5
    1946:	fec42783          	lw	a5,-20(s0)
    194a:	8ff9                	and	a5,a5,a4
    194c:	fef42623          	sw	a5,-20(s0)
    1950:	a829                	j	196a <USART_GetITStatus+0xaa>
C:/Users/Accepted/Documents/smart_car/Seekfree_CH32V103R8T6_Opensource_Library/Libraries/wch_Libraries/Peripheral/ch32v10x_usart.c:682
  }
  else 
  {
    itmask &= USARTx->CTLR3;
    1952:	fdc42783          	lw	a5,-36(s0)
    1956:	0147d783          	lhu	a5,20(a5)
    195a:	07c2                	slli	a5,a5,0x10
    195c:	83c1                	srli	a5,a5,0x10
    195e:	873e                	mv	a4,a5
    1960:	fec42783          	lw	a5,-20(s0)
    1964:	8ff9                	and	a5,a5,a4
    1966:	fef42623          	sw	a5,-20(s0)
C:/Users/Accepted/Documents/smart_car/Seekfree_CH32V103R8T6_Opensource_Library/Libraries/wch_Libraries/Peripheral/ch32v10x_usart.c:685
  }
  
  bitpos = USART_IT >> 0x08;
    196a:	fda45783          	lhu	a5,-38(s0)
    196e:	83a1                	srli	a5,a5,0x8
    1970:	07c2                	slli	a5,a5,0x10
    1972:	83c1                	srli	a5,a5,0x10
    1974:	fef42223          	sw	a5,-28(s0)
C:/Users/Accepted/Documents/smart_car/Seekfree_CH32V103R8T6_Opensource_Library/Libraries/wch_Libraries/Peripheral/ch32v10x_usart.c:686
  bitpos = (uint32_t)0x01 << bitpos;
    1978:	fe442783          	lw	a5,-28(s0)
    197c:	4705                	li	a4,1
    197e:	00f717b3          	sll	a5,a4,a5
    1982:	fef42223          	sw	a5,-28(s0)
C:/Users/Accepted/Documents/smart_car/Seekfree_CH32V103R8T6_Opensource_Library/Libraries/wch_Libraries/Peripheral/ch32v10x_usart.c:687
  bitpos &= USARTx->STATR;
    1986:	fdc42783          	lw	a5,-36(s0)
    198a:	0007d783          	lhu	a5,0(a5)
    198e:	07c2                	slli	a5,a5,0x10
    1990:	83c1                	srli	a5,a5,0x10
    1992:	873e                	mv	a4,a5
    1994:	fe442783          	lw	a5,-28(s0)
    1998:	8ff9                	and	a5,a5,a4
    199a:	fef42223          	sw	a5,-28(s0)
C:/Users/Accepted/Documents/smart_car/Seekfree_CH32V103R8T6_Opensource_Library/Libraries/wch_Libraries/Peripheral/ch32v10x_usart.c:689
	
  if ((itmask != (uint16_t)RESET)&&(bitpos != (uint16_t)RESET))
    199e:	fec42783          	lw	a5,-20(s0)
    19a2:	cb81                	beqz	a5,19b2 <USART_GetITStatus+0xf2>
C:/Users/Accepted/Documents/smart_car/Seekfree_CH32V103R8T6_Opensource_Library/Libraries/wch_Libraries/Peripheral/ch32v10x_usart.c:689 (discriminator 1)
    19a4:	fe442783          	lw	a5,-28(s0)
    19a8:	c789                	beqz	a5,19b2 <USART_GetITStatus+0xf2>
C:/Users/Accepted/Documents/smart_car/Seekfree_CH32V103R8T6_Opensource_Library/Libraries/wch_Libraries/Peripheral/ch32v10x_usart.c:691
  {
    bitstatus = SET;
    19aa:	4785                	li	a5,1
    19ac:	fef42423          	sw	a5,-24(s0)
    19b0:	a019                	j	19b6 <USART_GetITStatus+0xf6>
C:/Users/Accepted/Documents/smart_car/Seekfree_CH32V103R8T6_Opensource_Library/Libraries/wch_Libraries/Peripheral/ch32v10x_usart.c:695
  }
  else
  {
    bitstatus = RESET;
    19b2:	fe042423          	sw	zero,-24(s0)
C:/Users/Accepted/Documents/smart_car/Seekfree_CH32V103R8T6_Opensource_Library/Libraries/wch_Libraries/Peripheral/ch32v10x_usart.c:698
  }
  
  return bitstatus;  
    19b6:	fe842783          	lw	a5,-24(s0)
C:/Users/Accepted/Documents/smart_car/Seekfree_CH32V103R8T6_Opensource_Library/Libraries/wch_Libraries/Peripheral/ch32v10x_usart.c:699
}
    19ba:	853e                	mv	a0,a5
    19bc:	5432                	lw	s0,44(sp)
    19be:	6145                	addi	sp,sp,48
    19c0:	8082                	ret

000019c2 <USART_ClearITPendingBit>:
USART_ClearITPendingBit():
C:/Users/Accepted/Documents/smart_car/Seekfree_CH32V103R8T6_Opensource_Library/Libraries/wch_Libraries/Peripheral/ch32v10x_usart.c:713
*                    USART_IT_TC:   Transmission complete interrupt.
*                    USART_IT_RXNE: Receive Data register not empty interrupt.
* Return         : None
*******************************************************************************/
void USART_ClearITPendingBit(USART_TypeDef* USARTx, uint16_t USART_IT)
{
    19c2:	7179                	addi	sp,sp,-48
    19c4:	d622                	sw	s0,44(sp)
    19c6:	1800                	addi	s0,sp,48
    19c8:	fca42e23          	sw	a0,-36(s0)
    19cc:	87ae                	mv	a5,a1
    19ce:	fcf41d23          	sh	a5,-38(s0)
C:/Users/Accepted/Documents/smart_car/Seekfree_CH32V103R8T6_Opensource_Library/Libraries/wch_Libraries/Peripheral/ch32v10x_usart.c:714
  uint16_t bitpos = 0x00, itmask = 0x00;
    19d2:	fe041723          	sh	zero,-18(s0)
    19d6:	fe041623          	sh	zero,-20(s0)
C:/Users/Accepted/Documents/smart_car/Seekfree_CH32V103R8T6_Opensource_Library/Libraries/wch_Libraries/Peripheral/ch32v10x_usart.c:720

  if (USART_IT == USART_IT_CTS)
  {
  }   
  
  bitpos = USART_IT >> 0x08;
    19da:	fda45783          	lhu	a5,-38(s0)
    19de:	83a1                	srli	a5,a5,0x8
    19e0:	fef41723          	sh	a5,-18(s0)
C:/Users/Accepted/Documents/smart_car/Seekfree_CH32V103R8T6_Opensource_Library/Libraries/wch_Libraries/Peripheral/ch32v10x_usart.c:721
  itmask = ((uint16_t)0x01 << (uint16_t)bitpos);
    19e4:	fee45783          	lhu	a5,-18(s0)
    19e8:	4705                	li	a4,1
    19ea:	00f717b3          	sll	a5,a4,a5
    19ee:	fef41623          	sh	a5,-20(s0)
C:/Users/Accepted/Documents/smart_car/Seekfree_CH32V103R8T6_Opensource_Library/Libraries/wch_Libraries/Peripheral/ch32v10x_usart.c:722
  USARTx->STATR = (uint16_t)~itmask;
    19f2:	fec45783          	lhu	a5,-20(s0)
    19f6:	fff7c793          	not	a5,a5
    19fa:	01079713          	slli	a4,a5,0x10
    19fe:	8341                	srli	a4,a4,0x10
    1a00:	fdc42783          	lw	a5,-36(s0)
    1a04:	00e79023          	sh	a4,0(a5)
C:/Users/Accepted/Documents/smart_car/Seekfree_CH32V103R8T6_Opensource_Library/Libraries/wch_Libraries/Peripheral/ch32v10x_usart.c:723
}
    1a08:	0001                	nop
    1a0a:	5432                	lw	s0,44(sp)
    1a0c:	6145                	addi	sp,sp,48
    1a0e:	8082                	ret

00001a10 <bluetooth_ch9141_uart_callback>:
bluetooth_ch9141_uart_callback():
C:/Users/Accepted/Documents/smart_car/Seekfree_CH32V103R8T6_Opensource_Library/Libraries/seekfree_peripheral/SEEKFREE_BLUETOOTH_CH9141.c:60
//  @since      v1.0
//  Sample usage:	
//  @note       该函数在ISR文件 串口8中断程序被调用
//-------------------------------------------------------------------------------------------------------------------
void bluetooth_ch9141_uart_callback()
{
    1a10:	1141                	addi	sp,sp,-16
    1a12:	c606                	sw	ra,12(sp)
    1a14:	c422                	sw	s0,8(sp)
    1a16:	0800                	addi	s0,sp,16
C:/Users/Accepted/Documents/smart_car/Seekfree_CH32V103R8T6_Opensource_Library/Libraries/seekfree_peripheral/SEEKFREE_BLUETOOTH_CH9141.c:62

    if(1 == at_mode)
    1a18:	81a1c783          	lbu	a5,-2022(gp) # 2000002a <at_mode>
    1a1c:	0ff7f713          	andi	a4,a5,255
    1a20:	4785                	li	a5,1
    1a22:	02f71e63          	bne	a4,a5,1a5e <bluetooth_ch9141_uart_callback+0x4e>
C:/Users/Accepted/Documents/smart_car/Seekfree_CH32V103R8T6_Opensource_Library/Libraries/seekfree_peripheral/SEEKFREE_BLUETOOTH_CH9141.c:65
    {
        //进入AT模式 接收应答信号 此处if语句内代码用户不要改动
        at_mode_data[at_mode_num++] = ((USART_TypeDef*)UARTN[BLUETOOTH_CH9141_UART])->DATAR & 0x01FF;;
    1a26:	6791                	lui	a5,0x4
    1a28:	0547a783          	lw	a5,84(a5) # 4054 <UARTN>
    1a2c:	0047d783          	lhu	a5,4(a5)
    1a30:	01079613          	slli	a2,a5,0x10
    1a34:	8241                	srli	a2,a2,0x10
    1a36:	81b1c783          	lbu	a5,-2021(gp) # 2000002b <at_mode_num>
    1a3a:	0ff7f793          	andi	a5,a5,255
    1a3e:	00178713          	addi	a4,a5,1
    1a42:	0ff77693          	andi	a3,a4,255
    1a46:	80d18da3          	sb	a3,-2021(gp) # 2000002b <at_mode_num>
    1a4a:	86be                	mv	a3,a5
    1a4c:	0ff67713          	andi	a4,a2,255
    1a50:	83818793          	addi	a5,gp,-1992 # 20000048 <at_mode_data>
    1a54:	97b6                	add	a5,a5,a3
    1a56:	00e78023          	sb	a4,0(a5)
C:/Users/Accepted/Documents/smart_car/Seekfree_CH32V103R8T6_Opensource_Library/Libraries/seekfree_peripheral/SEEKFREE_BLUETOOTH_CH9141.c:66
        bluetooth_ch9141_check_response();
    1a5a:	20b1                	jal	1aa6 <bluetooth_ch9141_check_response>
C:/Users/Accepted/Documents/smart_car/Seekfree_CH32V103R8T6_Opensource_Library/Libraries/seekfree_peripheral/SEEKFREE_BLUETOOTH_CH9141.c:84
        uart_flag = 1;
        uart_data = ((USART_TypeDef*)UARTN[BLUETOOTH_CH9141_UART])->DATAR & 0x01FF;;
    }
        

}
    1a5c:	a081                	j	1a9c <bluetooth_ch9141_uart_callback+0x8c>
C:/Users/Accepted/Documents/smart_car/Seekfree_CH32V103R8T6_Opensource_Library/Libraries/seekfree_peripheral/SEEKFREE_BLUETOOTH_CH9141.c:68
    else if(2 == at_mode)
    1a5e:	81a1c783          	lbu	a5,-2022(gp) # 2000002a <at_mode>
    1a62:	0ff7f713          	andi	a4,a5,255
    1a66:	4789                	li	a5,2
    1a68:	00f71c63          	bne	a4,a5,1a80 <bluetooth_ch9141_uart_callback+0x70>
C:/Users/Accepted/Documents/smart_car/Seekfree_CH32V103R8T6_Opensource_Library/Libraries/seekfree_peripheral/SEEKFREE_BLUETOOTH_CH9141.c:71
        at_mode_num++;
    1a6c:	81b1c783          	lbu	a5,-2021(gp) # 2000002b <at_mode_num>
    1a70:	0ff7f793          	andi	a5,a5,255
    1a74:	0785                	addi	a5,a5,1
    1a76:	0ff7f713          	andi	a4,a5,255
    1a7a:	80e18da3          	sb	a4,-2021(gp) # 2000002b <at_mode_num>
C:/Users/Accepted/Documents/smart_car/Seekfree_CH32V103R8T6_Opensource_Library/Libraries/seekfree_peripheral/SEEKFREE_BLUETOOTH_CH9141.c:84
}
    1a7e:	a839                	j	1a9c <bluetooth_ch9141_uart_callback+0x8c>
C:/Users/Accepted/Documents/smart_car/Seekfree_CH32V103R8T6_Opensource_Library/Libraries/seekfree_peripheral/SEEKFREE_BLUETOOTH_CH9141.c:79
        uart_flag = 1;
    1a80:	4705                	li	a4,1
    1a82:	80e18c23          	sb	a4,-2024(gp) # 20000028 <uart_flag>
C:/Users/Accepted/Documents/smart_car/Seekfree_CH32V103R8T6_Opensource_Library/Libraries/seekfree_peripheral/SEEKFREE_BLUETOOTH_CH9141.c:80
        uart_data = ((USART_TypeDef*)UARTN[BLUETOOTH_CH9141_UART])->DATAR & 0x01FF;;
    1a86:	6791                	lui	a5,0x4
    1a88:	0547a783          	lw	a5,84(a5) # 4054 <UARTN>
    1a8c:	0047d783          	lhu	a5,4(a5)
    1a90:	07c2                	slli	a5,a5,0x10
    1a92:	83c1                	srli	a5,a5,0x10
    1a94:	0ff7f713          	andi	a4,a5,255
    1a98:	80e18ca3          	sb	a4,-2023(gp) # 20000029 <uart_data>
C:/Users/Accepted/Documents/smart_car/Seekfree_CH32V103R8T6_Opensource_Library/Libraries/seekfree_peripheral/SEEKFREE_BLUETOOTH_CH9141.c:84
}
    1a9c:	0001                	nop
    1a9e:	40b2                	lw	ra,12(sp)
    1aa0:	4422                	lw	s0,8(sp)
    1aa2:	0141                	addi	sp,sp,16
    1aa4:	8082                	ret

00001aa6 <bluetooth_ch9141_check_response>:
bluetooth_ch9141_check_response():
C:/Users/Accepted/Documents/smart_car/Seekfree_CH32V103R8T6_Opensource_Library/Libraries/seekfree_peripheral/SEEKFREE_BLUETOOTH_CH9141.c:95
//  @since      v1.0
//  Sample usage:	
//  @note       用户无需关心
//-------------------------------------------------------------------------------------------------------------------
void bluetooth_ch9141_check_response(void)
{
    1aa6:	1141                	addi	sp,sp,-16
    1aa8:	c606                	sw	ra,12(sp)
    1aaa:	c422                	sw	s0,8(sp)
    1aac:	0800                	addi	s0,sp,16
C:/Users/Accepted/Documents/smart_car/Seekfree_CH32V103R8T6_Opensource_Library/Libraries/seekfree_peripheral/SEEKFREE_BLUETOOTH_CH9141.c:96
    if(4 <= at_mode_num)
    1aae:	81b1c783          	lbu	a5,-2021(gp) # 2000002b <at_mode_num>
    1ab2:	0ff7f713          	andi	a4,a5,255
    1ab6:	478d                	li	a5,3
    1ab8:	02e7f763          	bgeu	a5,a4,1ae6 <bluetooth_ch9141_check_response+0x40>
C:/Users/Accepted/Documents/smart_car/Seekfree_CH32V103R8T6_Opensource_Library/Libraries/seekfree_peripheral/SEEKFREE_BLUETOOTH_CH9141.c:98
    {
        if(0 == strncmp("OK\r\n", (int8 *)&at_mode_data[at_mode_num-4], 4))
    1abc:	81b1c783          	lbu	a5,-2021(gp) # 2000002b <at_mode_num>
    1ac0:	0ff7f793          	andi	a5,a5,255
    1ac4:	ffc78713          	addi	a4,a5,-4
    1ac8:	83818793          	addi	a5,gp,-1992 # 20000048 <at_mode_data>
    1acc:	97ba                	add	a5,a5,a4
    1ace:	4611                	li	a2,4
    1ad0:	85be                	mv	a1,a5
    1ad2:	6791                	lui	a5,0x4
    1ad4:	f0078513          	addi	a0,a5,-256 # 3f00 <strncmp+0x2e>
    1ad8:	3fa020ef          	jal	ra,3ed2 <strncmp>
    1adc:	87aa                	mv	a5,a0
    1ade:	e781                	bnez	a5,1ae6 <bluetooth_ch9141_check_response+0x40>
C:/Users/Accepted/Documents/smart_car/Seekfree_CH32V103R8T6_Opensource_Library/Libraries/seekfree_peripheral/SEEKFREE_BLUETOOTH_CH9141.c:100
        {
            at_mode_cmd_flag = 1;
    1ae0:	4705                	li	a4,1
    1ae2:	80e18e23          	sb	a4,-2020(gp) # 2000002c <at_mode_cmd_flag>
C:/Users/Accepted/Documents/smart_car/Seekfree_CH32V103R8T6_Opensource_Library/Libraries/seekfree_peripheral/SEEKFREE_BLUETOOTH_CH9141.c:103
        }
    }
}
    1ae6:	0001                	nop
    1ae8:	40b2                	lw	ra,12(sp)
    1aea:	4422                	lw	s0,8(sp)
    1aec:	0141                	addi	sp,sp,16
    1aee:	8082                	ret

00001af0 <mt9v03x_vsync>:
mt9v03x_vsync():
C:/Users/Accepted/Documents/smart_car/Seekfree_CH32V103R8T6_Opensource_Library/Libraries/seekfree_peripheral/SEEKFREE_MT9V03X.c:376
//  @return     void
//  @since      v1.0
//  Sample usage:               在isr.c里面先创建对应的中断函数，然后调用该函数(之后别忘记清除中断标志位)
//-------------------------------------------------------------------------------------------------------------------
void mt9v03x_vsync(void)
{
    1af0:	1141                	addi	sp,sp,-16
    1af2:	c622                	sw	s0,12(sp)
    1af4:	0800                	addi	s0,sp,16
C:/Users/Accepted/Documents/smart_car/Seekfree_CH32V103R8T6_Opensource_Library/Libraries/seekfree_peripheral/SEEKFREE_MT9V03X.c:379
//    if(mt9v03x_finish_flag == 0)                             //使用完成后,再采集
//    {
        MT9V03X_DMA_CH->CNTR = MT9V03X_H*MT9V03X_W;             //设置当前DMA传输的剩余数量，向下递减，该寄存器只能在DMA不工作时更改。
    1af6:	400207b7          	lui	a5,0x40020
    1afa:	04478793          	addi	a5,a5,68 # 40020044 <_eusrstack+0x2001b044>
    1afe:	6709                	lui	a4,0x2
    1b00:	4b870713          	addi	a4,a4,1208 # 24b8 <timer_pwm_init+0x28>
    1b04:	c3d8                	sw	a4,4(a5)
C:/Users/Accepted/Documents/smart_car/Seekfree_CH32V103R8T6_Opensource_Library/Libraries/seekfree_peripheral/SEEKFREE_MT9V03X.c:380
        MT9V03X_DMA_CH->CFGR |= DMA_CFGR1_EN;
    1b06:	400207b7          	lui	a5,0x40020
    1b0a:	04478793          	addi	a5,a5,68 # 40020044 <_eusrstack+0x2001b044>
    1b0e:	4398                	lw	a4,0(a5)
    1b10:	400207b7          	lui	a5,0x40020
    1b14:	04478793          	addi	a5,a5,68 # 40020044 <_eusrstack+0x2001b044>
    1b18:	00176713          	ori	a4,a4,1
    1b1c:	c398                	sw	a4,0(a5)
C:/Users/Accepted/Documents/smart_car/Seekfree_CH32V103R8T6_Opensource_Library/Libraries/seekfree_peripheral/SEEKFREE_MT9V03X.c:381
        MT9V03X_TIM->DMAINTENR |= ((uint16_t)0x4000);
    1b1e:	400137b7          	lui	a5,0x40013
    1b22:	c0078793          	addi	a5,a5,-1024 # 40012c00 <_eusrstack+0x2000dc00>
    1b26:	00c7d783          	lhu	a5,12(a5)
    1b2a:	01079693          	slli	a3,a5,0x10
    1b2e:	82c1                	srli	a3,a3,0x10
    1b30:	400137b7          	lui	a5,0x40013
    1b34:	c0078793          	addi	a5,a5,-1024 # 40012c00 <_eusrstack+0x2000dc00>
    1b38:	6711                	lui	a4,0x4
    1b3a:	8f55                	or	a4,a4,a3
    1b3c:	0742                	slli	a4,a4,0x10
    1b3e:	8341                	srli	a4,a4,0x10
    1b40:	00e79623          	sh	a4,12(a5)
C:/Users/Accepted/Documents/smart_car/Seekfree_CH32V103R8T6_Opensource_Library/Libraries/seekfree_peripheral/SEEKFREE_MT9V03X.c:383
//    }
}
    1b44:	0001                	nop
    1b46:	4432                	lw	s0,12(sp)
    1b48:	0141                	addi	sp,sp,16
    1b4a:	8082                	ret

00001b4c <mt9v03x_dma>:
mt9v03x_dma():
C:/Users/Accepted/Documents/smart_car/Seekfree_CH32V103R8T6_Opensource_Library/Libraries/seekfree_peripheral/SEEKFREE_MT9V03X.c:393
//  @return     void
//  @since      v1.0
//  Sample usage:
//-------------------------------------------------------------------------------------------------------------------
void mt9v03x_dma(void)
{
    1b4c:	1141                	addi	sp,sp,-16
    1b4e:	c622                	sw	s0,12(sp)
    1b50:	0800                	addi	s0,sp,16
C:/Users/Accepted/Documents/smart_car/Seekfree_CH32V103R8T6_Opensource_Library/Libraries/seekfree_peripheral/SEEKFREE_MT9V03X.c:394
    mt9v03x_finish_flag = 1;//一副图像从采集开始到采集结束耗时3.8MS左右(50FPS、188*120分辨率)
    1b52:	4705                	li	a4,1
    1b54:	80e18ea3          	sb	a4,-2019(gp) # 2000002d <mt9v03x_finish_flag>
C:/Users/Accepted/Documents/smart_car/Seekfree_CH32V103R8T6_Opensource_Library/Libraries/seekfree_peripheral/SEEKFREE_MT9V03X.c:395
    MT9V03X_DMA_CH->CFGR &= (uint16)(~DMA_CFGR1_EN);   //关闭DMA1
    1b58:	400207b7          	lui	a5,0x40020
    1b5c:	04478793          	addi	a5,a5,68 # 40020044 <_eusrstack+0x2001b044>
    1b60:	4394                	lw	a3,0(a5)
    1b62:	400207b7          	lui	a5,0x40020
    1b66:	04478793          	addi	a5,a5,68 # 40020044 <_eusrstack+0x2001b044>
    1b6a:	6741                	lui	a4,0x10
    1b6c:	1779                	addi	a4,a4,-2
    1b6e:	8f75                	and	a4,a4,a3
    1b70:	c398                	sw	a4,0(a5)
C:/Users/Accepted/Documents/smart_car/Seekfree_CH32V103R8T6_Opensource_Library/Libraries/seekfree_peripheral/SEEKFREE_MT9V03X.c:396
    MT9V03X_TIM->DMAINTENR &= ~((uint16_t)0x4000);          //失能TIM触发DMA
    1b72:	400137b7          	lui	a5,0x40013
    1b76:	c0078793          	addi	a5,a5,-1024 # 40012c00 <_eusrstack+0x2000dc00>
    1b7a:	00c7d783          	lhu	a5,12(a5)
    1b7e:	01079693          	slli	a3,a5,0x10
    1b82:	82c1                	srli	a3,a3,0x10
    1b84:	400137b7          	lui	a5,0x40013
    1b88:	c0078793          	addi	a5,a5,-1024 # 40012c00 <_eusrstack+0x2000dc00>
    1b8c:	7771                	lui	a4,0xffffc
    1b8e:	177d                	addi	a4,a4,-1
    1b90:	8f75                	and	a4,a4,a3
    1b92:	0742                	slli	a4,a4,0x10
    1b94:	8341                	srli	a4,a4,0x10
    1b96:	00e79623          	sh	a4,12(a5)
C:/Users/Accepted/Documents/smart_car/Seekfree_CH32V103R8T6_Opensource_Library/Libraries/seekfree_peripheral/SEEKFREE_MT9V03X.c:397
}
    1b9a:	0001                	nop
    1b9c:	4432                	lw	s0,12(sp)
    1b9e:	0141                	addi	sp,sp,16
    1ba0:	8082                	ret

00001ba2 <ov7725_uart_vsync>:
ov7725_uart_vsync():
C:/Users/Accepted/Documents/smart_car/Seekfree_CH32V103R8T6_Opensource_Library/Libraries/seekfree_peripheral/SEEKFREE_UART_7725.c:104
//  @since      v1.0
//  Sample usage:                   在isr.c里面先创建对应的中断函数，然后调用该函数(之后别忘记清除中断标志位)
//-------------------------------------------------------------------------------------------------------------------

void ov7725_uart_vsync(void)
{
    1ba2:	1141                	addi	sp,sp,-16
    1ba4:	c622                	sw	s0,12(sp)
    1ba6:	0800                	addi	s0,sp,16
C:/Users/Accepted/Documents/smart_car/Seekfree_CH32V103R8T6_Opensource_Library/Libraries/seekfree_peripheral/SEEKFREE_UART_7725.c:107
//    if(ov7725_uart_finish_flag == 0)                             //使用完成后,再采集
//    {
        OV7725_UART_DMA_CH->CNTR = OV7725_UART_SIZE;             //设置当前DMA传输的剩余数量，向下递减，该寄存器只能在DMA不工作时更改。
    1ba8:	400207b7          	lui	a5,0x40020
    1bac:	04478793          	addi	a5,a5,68 # 40020044 <_eusrstack+0x2001b044>
    1bb0:	6705                	lui	a4,0x1
    1bb2:	96070713          	addi	a4,a4,-1696 # 960 <__stack_size+0x160>
    1bb6:	c3d8                	sw	a4,4(a5)
C:/Users/Accepted/Documents/smart_car/Seekfree_CH32V103R8T6_Opensource_Library/Libraries/seekfree_peripheral/SEEKFREE_UART_7725.c:108
        OV7725_UART_DMA_CH->CFGR |= DMA_CFGR1_EN;                //开启DMA1
    1bb8:	400207b7          	lui	a5,0x40020
    1bbc:	04478793          	addi	a5,a5,68 # 40020044 <_eusrstack+0x2001b044>
    1bc0:	4398                	lw	a4,0(a5)
    1bc2:	400207b7          	lui	a5,0x40020
    1bc6:	04478793          	addi	a5,a5,68 # 40020044 <_eusrstack+0x2001b044>
    1bca:	00176713          	ori	a4,a4,1
    1bce:	c398                	sw	a4,0(a5)
C:/Users/Accepted/Documents/smart_car/Seekfree_CH32V103R8T6_Opensource_Library/Libraries/seekfree_peripheral/SEEKFREE_UART_7725.c:109
        OV7725_UART_TIM->DMAINTENR |= TIM_DMA_Trigger;           //使能TIM触发DMA
    1bd0:	400137b7          	lui	a5,0x40013
    1bd4:	c0078793          	addi	a5,a5,-1024 # 40012c00 <_eusrstack+0x2000dc00>
    1bd8:	00c7d783          	lhu	a5,12(a5)
    1bdc:	01079693          	slli	a3,a5,0x10
    1be0:	82c1                	srli	a3,a3,0x10
    1be2:	400137b7          	lui	a5,0x40013
    1be6:	c0078793          	addi	a5,a5,-1024 # 40012c00 <_eusrstack+0x2000dc00>
    1bea:	6711                	lui	a4,0x4
    1bec:	8f55                	or	a4,a4,a3
    1bee:	0742                	slli	a4,a4,0x10
    1bf0:	8341                	srli	a4,a4,0x10
    1bf2:	00e79623          	sh	a4,12(a5)
C:/Users/Accepted/Documents/smart_car/Seekfree_CH32V103R8T6_Opensource_Library/Libraries/seekfree_peripheral/SEEKFREE_UART_7725.c:111
//    }
}
    1bf6:	0001                	nop
    1bf8:	4432                	lw	s0,12(sp)
    1bfa:	0141                	addi	sp,sp,16
    1bfc:	8082                	ret

00001bfe <ov7725_uart_dma>:
ov7725_uart_dma():
C:/Users/Accepted/Documents/smart_car/Seekfree_CH32V103R8T6_Opensource_Library/Libraries/seekfree_peripheral/SEEKFREE_UART_7725.c:122
//  @return     void
//  @since      v1.0
//  Sample usage:                   在isr.c里面先创建对应的中断函数，然后调用该函数(之后别忘记清除中断标志位)
//-------------------------------------------------------------------------------------------------------------------
void ov7725_uart_dma(void)
{
    1bfe:	1141                	addi	sp,sp,-16
    1c00:	c622                	sw	s0,12(sp)
    1c02:	0800                	addi	s0,sp,16
C:/Users/Accepted/Documents/smart_car/Seekfree_CH32V103R8T6_Opensource_Library/Libraries/seekfree_peripheral/SEEKFREE_UART_7725.c:123
    ov7725_uart_finish_flag = 1;                             //摄像头数据采集置1
    1c04:	4705                	li	a4,1
    1c06:	80e18f23          	sb	a4,-2018(gp) # 2000002e <ov7725_uart_finish_flag>
C:/Users/Accepted/Documents/smart_car/Seekfree_CH32V103R8T6_Opensource_Library/Libraries/seekfree_peripheral/SEEKFREE_UART_7725.c:124
    OV7725_UART_DMA_CH->CFGR &= (uint16)(~DMA_CFGR1_EN);     //关闭DMA1
    1c0a:	400207b7          	lui	a5,0x40020
    1c0e:	04478793          	addi	a5,a5,68 # 40020044 <_eusrstack+0x2001b044>
    1c12:	4394                	lw	a3,0(a5)
    1c14:	400207b7          	lui	a5,0x40020
    1c18:	04478793          	addi	a5,a5,68 # 40020044 <_eusrstack+0x2001b044>
    1c1c:	6741                	lui	a4,0x10
    1c1e:	1779                	addi	a4,a4,-2
    1c20:	8f75                	and	a4,a4,a3
    1c22:	c398                	sw	a4,0(a5)
C:/Users/Accepted/Documents/smart_car/Seekfree_CH32V103R8T6_Opensource_Library/Libraries/seekfree_peripheral/SEEKFREE_UART_7725.c:125
    OV7725_UART_TIM->DMAINTENR &= ~TIM_DMA_Trigger;          //失能TIM触发DMA
    1c24:	400137b7          	lui	a5,0x40013
    1c28:	c0078793          	addi	a5,a5,-1024 # 40012c00 <_eusrstack+0x2000dc00>
    1c2c:	00c7d783          	lhu	a5,12(a5)
    1c30:	01079693          	slli	a3,a5,0x10
    1c34:	82c1                	srli	a3,a3,0x10
    1c36:	400137b7          	lui	a5,0x40013
    1c3a:	c0078793          	addi	a5,a5,-1024 # 40012c00 <_eusrstack+0x2000dc00>
    1c3e:	7771                	lui	a4,0xffffc
    1c40:	177d                	addi	a4,a4,-1
    1c42:	8f75                	and	a4,a4,a3
    1c44:	0742                	slli	a4,a4,0x10
    1c46:	8341                	srli	a4,a4,0x10
    1c48:	00e79623          	sh	a4,12(a5)
C:/Users/Accepted/Documents/smart_car/Seekfree_CH32V103R8T6_Opensource_Library/Libraries/seekfree_peripheral/SEEKFREE_UART_7725.c:126
}
    1c4c:	0001                	nop
    1c4e:	4432                	lw	s0,12(sp)
    1c50:	0141                	addi	sp,sp,16
    1c52:	8082                	ret

00001c54 <wireless_uart_callback>:
wireless_uart_callback():
C:/Users/Accepted/Documents/smart_car/Seekfree_CH32V103R8T6_Opensource_Library/Libraries/seekfree_peripheral/SEEKFREE_WIRELESS.c:48
//  @since      v1.0
//  Sample usage:
//  @note       该函数在ISR文件 串口1中断程序被调用
//-------------------------------------------------------------------------------------------------------------------
void wireless_uart_callback(void)
{
    1c54:	1141                	addi	sp,sp,-16
    1c56:	c622                	sw	s0,12(sp)
    1c58:	0800                	addi	s0,sp,16
C:/Users/Accepted/Documents/smart_car/Seekfree_CH32V103R8T6_Opensource_Library/Libraries/seekfree_peripheral/SEEKFREE_WIRELESS.c:50
    //接到一个字节后单片机将会进入此处，通过在此处读取wireless_rx_buffer可以取走数据
    wireless_rx_buffer = ((USART_TypeDef*)UARTN[WIRELESS_UART])->DATAR & 0x01FF;
    1c5a:	6791                	lui	a5,0x4
    1c5c:	05478793          	addi	a5,a5,84 # 4054 <UARTN>
    1c60:	479c                	lw	a5,8(a5)
    1c62:	0047d783          	lhu	a5,4(a5)
    1c66:	07c2                	slli	a5,a5,0x10
    1c68:	83c1                	srli	a5,a5,0x10
    1c6a:	0ff7f713          	andi	a4,a5,255
    1c6e:	80e18fa3          	sb	a4,-2017(gp) # 2000002f <wireless_rx_buffer>
C:/Users/Accepted/Documents/smart_car/Seekfree_CH32V103R8T6_Opensource_Library/Libraries/seekfree_peripheral/SEEKFREE_WIRELESS.c:51
}
    1c72:	0001                	nop
    1c74:	4432                	lw	s0,12(sp)
    1c76:	0141                	addi	sp,sp,16
    1c78:	8082                	ret

00001c7a <board_init>:
board_init():
C:/Users/Accepted/Documents/smart_car/Seekfree_CH32V103R8T6_Opensource_Library/Libraries/seekfree_libraries/board.c:9
#include "ch32v10x_gpio.h"



void board_init(void)
{
    1c7a:	1141                	addi	sp,sp,-16
    1c7c:	c606                	sw	ra,12(sp)
    1c7e:	c422                	sw	s0,8(sp)
    1c80:	0800                	addi	s0,sp,16
C:/Users/Accepted/Documents/smart_car/Seekfree_CH32V103R8T6_Opensource_Library/Libraries/seekfree_libraries/board.c:10
    GPIO_DeInit(GPIOA);
    1c82:	400117b7          	lui	a5,0x40011
    1c86:	80078513          	addi	a0,a5,-2048 # 40010800 <_eusrstack+0x2000b800>
    1c8a:	e4afe0ef          	jal	ra,2d4 <GPIO_DeInit>
C:/Users/Accepted/Documents/smart_car/Seekfree_CH32V103R8T6_Opensource_Library/Libraries/seekfree_libraries/board.c:11
    GPIO_DeInit(GPIOB);
    1c8e:	400117b7          	lui	a5,0x40011
    1c92:	c0078513          	addi	a0,a5,-1024 # 40010c00 <_eusrstack+0x2000bc00>
    1c96:	e3efe0ef          	jal	ra,2d4 <GPIO_DeInit>
C:/Users/Accepted/Documents/smart_car/Seekfree_CH32V103R8T6_Opensource_Library/Libraries/seekfree_libraries/board.c:12
    GPIO_DeInit(GPIOC);
    1c9a:	40011537          	lui	a0,0x40011
    1c9e:	e36fe0ef          	jal	ra,2d4 <GPIO_DeInit>
C:/Users/Accepted/Documents/smart_car/Seekfree_CH32V103R8T6_Opensource_Library/Libraries/seekfree_libraries/board.c:13
    GPIO_DeInit(GPIOD);
    1ca2:	400117b7          	lui	a5,0x40011
    1ca6:	40078513          	addi	a0,a5,1024 # 40011400 <_eusrstack+0x2000c400>
    1caa:	e2afe0ef          	jal	ra,2d4 <GPIO_DeInit>
C:/Users/Accepted/Documents/smart_car/Seekfree_CH32V103R8T6_Opensource_Library/Libraries/seekfree_libraries/board.c:16

    //获取系统主频
    sys_clk = 8000000 * (((RCC->CFGR0 >> 18)&0x0F) + 2);
    1cae:	400217b7          	lui	a5,0x40021
    1cb2:	43dc                	lw	a5,4(a5)
    1cb4:	83c9                	srli	a5,a5,0x12
    1cb6:	00f7f713          	andi	a4,a5,15
    1cba:	007a17b7          	lui	a5,0x7a1
    1cbe:	20078793          	addi	a5,a5,512 # 7a1200 <_data_lma+0x79d024>
    1cc2:	02f70733          	mul	a4,a4,a5
    1cc6:	00f427b7          	lui	a5,0xf42
    1cca:	40078793          	addi	a5,a5,1024 # f42400 <_data_lma+0xf3e224>
    1cce:	973e                	add	a4,a4,a5
    1cd0:	82e1a423          	sw	a4,-2008(gp) # 20000038 <sys_clk>
C:/Users/Accepted/Documents/smart_car/Seekfree_CH32V103R8T6_Opensource_Library/Libraries/seekfree_libraries/board.c:18
    //初始化DEBUG串口
    uart_init(DEBUG_UART, DEBUG_UART_BAUD, DEBUG_UART_TX_PIN, DEBUG_UART_RX_PIN);
    1cd4:	4685                	li	a3,1
    1cd6:	4601                	li	a2,0
    1cd8:	67f1                	lui	a5,0x1c
    1cda:	20078593          	addi	a1,a5,512 # 1c200 <_data_lma+0x18024>
    1cde:	4501                	li	a0,0
    1ce0:	4f3000ef          	jal	ra,29d2 <uart_init>
C:/Users/Accepted/Documents/smart_car/Seekfree_CH32V103R8T6_Opensource_Library/Libraries/seekfree_libraries/board.c:19
}
    1ce4:	0001                	nop
    1ce6:	40b2                	lw	ra,12(sp)
    1ce8:	4422                	lw	s0,8(sp)
    1cea:	0141                	addi	sp,sp,16
    1cec:	8082                	ret

00001cee <SetSysClock>:
SetSysClock():
C:/Users/Accepted/Documents/smart_car/Seekfree_CH32V103R8T6_Opensource_Library/Libraries/seekfree_libraries/clock_config.c:11
* Description    : Sets System clock frequency to 72MHz and configure HCLK, PCLK2 and PCLK1 prescalers.
* Input          : None
* Return         : None
*******************************************************************************************/
static void SetSysClock(void)
{
    1cee:	1101                	addi	sp,sp,-32
    1cf0:	ce22                	sw	s0,28(sp)
    1cf2:	1000                	addi	s0,sp,32
C:/Users/Accepted/Documents/smart_car/Seekfree_CH32V103R8T6_Opensource_Library/Libraries/seekfree_libraries/clock_config.c:12
    __IO uint32_t StartUpCounter = 0, HSEStatus = 0;
    1cf4:	fe042623          	sw	zero,-20(s0)
    1cf8:	fe042423          	sw	zero,-24(s0)
C:/Users/Accepted/Documents/smart_car/Seekfree_CH32V103R8T6_Opensource_Library/Libraries/seekfree_libraries/clock_config.c:14

    RCC->CTLR |= ((uint32_t)RCC_HSEON);
    1cfc:	400217b7          	lui	a5,0x40021
    1d00:	4394                	lw	a3,0(a5)
    1d02:	400217b7          	lui	a5,0x40021
    1d06:	6741                	lui	a4,0x10
    1d08:	8f55                	or	a4,a4,a3
    1d0a:	c398                	sw	a4,0(a5)
C:/Users/Accepted/Documents/smart_car/Seekfree_CH32V103R8T6_Opensource_Library/Libraries/seekfree_libraries/clock_config.c:19 (discriminator 2)

    /* Wait till HSE is ready and if Time out is reached exit */
    do
    {
        HSEStatus = RCC->CTLR & RCC_HSERDY;
    1d0c:	400217b7          	lui	a5,0x40021
    1d10:	4398                	lw	a4,0(a5)
    1d12:	000207b7          	lui	a5,0x20
    1d16:	8ff9                	and	a5,a5,a4
    1d18:	fef42423          	sw	a5,-24(s0)
C:/Users/Accepted/Documents/smart_car/Seekfree_CH32V103R8T6_Opensource_Library/Libraries/seekfree_libraries/clock_config.c:20 (discriminator 2)
        StartUpCounter++;
    1d1c:	fec42783          	lw	a5,-20(s0)
    1d20:	0785                	addi	a5,a5,1
    1d22:	fef42623          	sw	a5,-20(s0)
C:/Users/Accepted/Documents/smart_car/Seekfree_CH32V103R8T6_Opensource_Library/Libraries/seekfree_libraries/clock_config.c:21 (discriminator 2)
    } while((HSEStatus == 0) && (StartUpCounter != HSE_STARTUP_TIMEOUT));
    1d26:	fe842783          	lw	a5,-24(s0)
    1d2a:	e799                	bnez	a5,1d38 <SetSysClock+0x4a>
C:/Users/Accepted/Documents/smart_car/Seekfree_CH32V103R8T6_Opensource_Library/Libraries/seekfree_libraries/clock_config.c:21 (discriminator 1)
    1d2c:	fec42703          	lw	a4,-20(s0)
    1d30:	50000793          	li	a5,1280
    1d34:	fcf71ce3          	bne	a4,a5,1d0c <SetSysClock+0x1e>
C:/Users/Accepted/Documents/smart_car/Seekfree_CH32V103R8T6_Opensource_Library/Libraries/seekfree_libraries/clock_config.c:23

    if ((RCC->CTLR & RCC_HSERDY) != RESET)
    1d38:	400217b7          	lui	a5,0x40021
    1d3c:	4398                	lw	a4,0(a5)
    1d3e:	000207b7          	lui	a5,0x20
    1d42:	8ff9                	and	a5,a5,a4
    1d44:	c789                	beqz	a5,1d4e <SetSysClock+0x60>
C:/Users/Accepted/Documents/smart_car/Seekfree_CH32V103R8T6_Opensource_Library/Libraries/seekfree_libraries/clock_config.c:25
    {
        HSEStatus = (uint32_t)0x01;
    1d46:	4785                	li	a5,1
    1d48:	fef42423          	sw	a5,-24(s0)
    1d4c:	a019                	j	1d52 <SetSysClock+0x64>
C:/Users/Accepted/Documents/smart_car/Seekfree_CH32V103R8T6_Opensource_Library/Libraries/seekfree_libraries/clock_config.c:29
    }
    else
    {
        HSEStatus = (uint32_t)0x00;
    1d4e:	fe042423          	sw	zero,-24(s0)
C:/Users/Accepted/Documents/smart_car/Seekfree_CH32V103R8T6_Opensource_Library/Libraries/seekfree_libraries/clock_config.c:32
    }

    if (HSEStatus == (uint32_t)0x01)
    1d52:	fe842703          	lw	a4,-24(s0)
    1d56:	4785                	li	a5,1
    1d58:	0cf71763          	bne	a4,a5,1e26 <SetSysClock+0x138>
C:/Users/Accepted/Documents/smart_car/Seekfree_CH32V103R8T6_Opensource_Library/Libraries/seekfree_libraries/clock_config.c:35
    {
        /* Enable Prefetch Buffer */
        FLASH->ACTLR |= FLASH_ACTLR_PRFTBE;
    1d5c:	400227b7          	lui	a5,0x40022
    1d60:	4398                	lw	a4,0(a5)
    1d62:	400227b7          	lui	a5,0x40022
    1d66:	01076713          	ori	a4,a4,16
    1d6a:	c398                	sw	a4,0(a5)
C:/Users/Accepted/Documents/smart_car/Seekfree_CH32V103R8T6_Opensource_Library/Libraries/seekfree_libraries/clock_config.c:38

        /* Flash 2 wait state */
        FLASH->ACTLR &= (uint32_t)((uint32_t)~FLASH_ACTLR_LATENCY);
    1d6c:	400227b7          	lui	a5,0x40022
    1d70:	4398                	lw	a4,0(a5)
    1d72:	400227b7          	lui	a5,0x40022
    1d76:	9b71                	andi	a4,a4,-4
    1d78:	c398                	sw	a4,0(a5)
C:/Users/Accepted/Documents/smart_car/Seekfree_CH32V103R8T6_Opensource_Library/Libraries/seekfree_libraries/clock_config.c:39
        FLASH->ACTLR |= (uint32_t)FLASH_ACTLR_LATENCY_2;
    1d7a:	400227b7          	lui	a5,0x40022
    1d7e:	4398                	lw	a4,0(a5)
    1d80:	400227b7          	lui	a5,0x40022
    1d84:	00276713          	ori	a4,a4,2
    1d88:	c398                	sw	a4,0(a5)
C:/Users/Accepted/Documents/smart_car/Seekfree_CH32V103R8T6_Opensource_Library/Libraries/seekfree_libraries/clock_config.c:42

        /* HCLK = SYSCLK */
        RCC->CFGR0 |= (uint32_t)RCC_HPRE_DIV1;
    1d8a:	40021737          	lui	a4,0x40021
    1d8e:	400217b7          	lui	a5,0x40021
    1d92:	4358                	lw	a4,4(a4)
    1d94:	c3d8                	sw	a4,4(a5)
C:/Users/Accepted/Documents/smart_car/Seekfree_CH32V103R8T6_Opensource_Library/Libraries/seekfree_libraries/clock_config.c:44
        /* PCLK2 = HCLK */
        RCC->CFGR0 |= (uint32_t)RCC_PPRE2_DIV1;
    1d96:	40021737          	lui	a4,0x40021
    1d9a:	400217b7          	lui	a5,0x40021
    1d9e:	4358                	lw	a4,4(a4)
    1da0:	c3d8                	sw	a4,4(a5)
C:/Users/Accepted/Documents/smart_car/Seekfree_CH32V103R8T6_Opensource_Library/Libraries/seekfree_libraries/clock_config.c:46
        /* PCLK1 = HCLK */
        RCC->CFGR0 |= (uint32_t)RCC_PPRE1_DIV1;
    1da2:	40021737          	lui	a4,0x40021
    1da6:	400217b7          	lui	a5,0x40021
    1daa:	4358                	lw	a4,4(a4)
    1dac:	c3d8                	sw	a4,4(a5)
C:/Users/Accepted/Documents/smart_car/Seekfree_CH32V103R8T6_Opensource_Library/Libraries/seekfree_libraries/clock_config.c:49


        RCC->CFGR0 &= (uint32_t)((uint32_t)~(RCC_PLLSRC | RCC_PLLXTPRE |
    1dae:	400217b7          	lui	a5,0x40021
    1db2:	43d4                	lw	a3,4(a5)
    1db4:	400217b7          	lui	a5,0x40021
    1db8:	ffc10737          	lui	a4,0xffc10
    1dbc:	177d                	addi	a4,a4,-1
    1dbe:	8f75                	and	a4,a4,a3
    1dc0:	c3d8                	sw	a4,4(a5)
C:/Users/Accepted/Documents/smart_car/Seekfree_CH32V103R8T6_Opensource_Library/Libraries/seekfree_libraries/clock_config.c:52
                                            RCC_PLLMULL));
        /*  PLL configuration: PLLCLK = HSE * ?  */
        RCC->CFGR0 |= (uint32_t)(RCC_PLLSRC_HSE | RCC_PLLMULL11);
    1dc2:	400217b7          	lui	a5,0x40021
    1dc6:	43d4                	lw	a3,4(a5)
    1dc8:	400217b7          	lui	a5,0x40021
    1dcc:	00250737          	lui	a4,0x250
    1dd0:	8f55                	or	a4,a4,a3
    1dd2:	c3d8                	sw	a4,4(a5)
C:/Users/Accepted/Documents/smart_car/Seekfree_CH32V103R8T6_Opensource_Library/Libraries/seekfree_libraries/clock_config.c:54
        /* Enable PLL */
        RCC->CTLR |= RCC_PLLON;
    1dd4:	400217b7          	lui	a5,0x40021
    1dd8:	4394                	lw	a3,0(a5)
    1dda:	400217b7          	lui	a5,0x40021
    1dde:	01000737          	lui	a4,0x1000
    1de2:	8f55                	or	a4,a4,a3
    1de4:	c398                	sw	a4,0(a5)
C:/Users/Accepted/Documents/smart_car/Seekfree_CH32V103R8T6_Opensource_Library/Libraries/seekfree_libraries/clock_config.c:56
        /* Wait till PLL is ready */
        while((RCC->CTLR & RCC_PLLRDY) == 0)
    1de6:	0001                	nop
C:/Users/Accepted/Documents/smart_car/Seekfree_CH32V103R8T6_Opensource_Library/Libraries/seekfree_libraries/clock_config.c:56 (discriminator 1)
    1de8:	400217b7          	lui	a5,0x40021
    1dec:	4398                	lw	a4,0(a5)
    1dee:	020007b7          	lui	a5,0x2000
    1df2:	8ff9                	and	a5,a5,a4
    1df4:	dbf5                	beqz	a5,1de8 <SetSysClock+0xfa>
C:/Users/Accepted/Documents/smart_car/Seekfree_CH32V103R8T6_Opensource_Library/Libraries/seekfree_libraries/clock_config.c:60
        {
        }
        /* Select PLL as system clock source */
        RCC->CFGR0 &= (uint32_t)((uint32_t)~(RCC_SW));
    1df6:	400217b7          	lui	a5,0x40021
    1dfa:	43d8                	lw	a4,4(a5)
    1dfc:	400217b7          	lui	a5,0x40021
    1e00:	9b71                	andi	a4,a4,-4
    1e02:	c3d8                	sw	a4,4(a5)
C:/Users/Accepted/Documents/smart_car/Seekfree_CH32V103R8T6_Opensource_Library/Libraries/seekfree_libraries/clock_config.c:61
        RCC->CFGR0 |= (uint32_t)RCC_SW_PLL;
    1e04:	400217b7          	lui	a5,0x40021
    1e08:	43d8                	lw	a4,4(a5)
    1e0a:	400217b7          	lui	a5,0x40021
    1e0e:	00276713          	ori	a4,a4,2
    1e12:	c3d8                	sw	a4,4(a5)
C:/Users/Accepted/Documents/smart_car/Seekfree_CH32V103R8T6_Opensource_Library/Libraries/seekfree_libraries/clock_config.c:63
        /* Wait till PLL is used as system clock source */
        while ((RCC->CFGR0 & (uint32_t)RCC_SWS) != (uint32_t)0x08)
    1e14:	0001                	nop
C:/Users/Accepted/Documents/smart_car/Seekfree_CH32V103R8T6_Opensource_Library/Libraries/seekfree_libraries/clock_config.c:63 (discriminator 1)
    1e16:	400217b7          	lui	a5,0x40021
    1e1a:	43dc                	lw	a5,4(a5)
    1e1c:	00c7f713          	andi	a4,a5,12
    1e20:	47a1                	li	a5,8
    1e22:	fef71ae3          	bne	a4,a5,1e16 <SetSysClock+0x128>
C:/Users/Accepted/Documents/smart_car/Seekfree_CH32V103R8T6_Opensource_Library/Libraries/seekfree_libraries/clock_config.c:74
        /*
         * If HSE fails to start-up, the application will have wrong clock
     * configuration. User can add here some code to deal with this error
         */
    }
}
    1e26:	0001                	nop
    1e28:	4472                	lw	s0,28(sp)
    1e2a:	6105                	addi	sp,sp,32
    1e2c:	8082                	ret

00001e2e <SystemInit>:
SystemInit():
C:/Users/Accepted/Documents/smart_car/Seekfree_CH32V103R8T6_Opensource_Library/Libraries/seekfree_libraries/clock_config.c:84
*                  the PLL and update the SystemCoreClock variable.
* Input          : None
* Return         : None
*******************************************************************************************/
void SystemInit (void)
{
    1e2e:	1141                	addi	sp,sp,-16
    1e30:	c606                	sw	ra,12(sp)
    1e32:	c422                	sw	s0,8(sp)
    1e34:	0800                	addi	s0,sp,16
C:/Users/Accepted/Documents/smart_car/Seekfree_CH32V103R8T6_Opensource_Library/Libraries/seekfree_libraries/clock_config.c:85
    RCC->CTLR |= (uint32_t)0x00000001;
    1e36:	400217b7          	lui	a5,0x40021
    1e3a:	4398                	lw	a4,0(a5)
    1e3c:	400217b7          	lui	a5,0x40021
    1e40:	00176713          	ori	a4,a4,1
    1e44:	c398                	sw	a4,0(a5)
C:/Users/Accepted/Documents/smart_car/Seekfree_CH32V103R8T6_Opensource_Library/Libraries/seekfree_libraries/clock_config.c:86
    RCC->CFGR0 &= (uint32_t)0xF8FF0000;
    1e46:	400217b7          	lui	a5,0x40021
    1e4a:	43d4                	lw	a3,4(a5)
    1e4c:	400217b7          	lui	a5,0x40021
    1e50:	f8ff0737          	lui	a4,0xf8ff0
    1e54:	8f75                	and	a4,a4,a3
    1e56:	c3d8                	sw	a4,4(a5)
C:/Users/Accepted/Documents/smart_car/Seekfree_CH32V103R8T6_Opensource_Library/Libraries/seekfree_libraries/clock_config.c:87
    RCC->CTLR &= (uint32_t)0xFEF6FFFF;
    1e58:	400217b7          	lui	a5,0x40021
    1e5c:	4394                	lw	a3,0(a5)
    1e5e:	400217b7          	lui	a5,0x40021
    1e62:	fef70737          	lui	a4,0xfef70
    1e66:	177d                	addi	a4,a4,-1
    1e68:	8f75                	and	a4,a4,a3
    1e6a:	c398                	sw	a4,0(a5)
C:/Users/Accepted/Documents/smart_car/Seekfree_CH32V103R8T6_Opensource_Library/Libraries/seekfree_libraries/clock_config.c:88
    RCC->CTLR &= (uint32_t)0xFFFBFFFF;
    1e6c:	400217b7          	lui	a5,0x40021
    1e70:	4394                	lw	a3,0(a5)
    1e72:	400217b7          	lui	a5,0x40021
    1e76:	fffc0737          	lui	a4,0xfffc0
    1e7a:	177d                	addi	a4,a4,-1
    1e7c:	8f75                	and	a4,a4,a3
    1e7e:	c398                	sw	a4,0(a5)
C:/Users/Accepted/Documents/smart_car/Seekfree_CH32V103R8T6_Opensource_Library/Libraries/seekfree_libraries/clock_config.c:89
    RCC->CFGR0 &= (uint32_t)0xFF80FFFF;
    1e80:	400217b7          	lui	a5,0x40021
    1e84:	43d4                	lw	a3,4(a5)
    1e86:	400217b7          	lui	a5,0x40021
    1e8a:	ff810737          	lui	a4,0xff810
    1e8e:	177d                	addi	a4,a4,-1
    1e90:	8f75                	and	a4,a4,a3
    1e92:	c3d8                	sw	a4,4(a5)
C:/Users/Accepted/Documents/smart_car/Seekfree_CH32V103R8T6_Opensource_Library/Libraries/seekfree_libraries/clock_config.c:90
    RCC->INTR = 0x009F0000;
    1e94:	400217b7          	lui	a5,0x40021
    1e98:	009f0737          	lui	a4,0x9f0
    1e9c:	c798                	sw	a4,8(a5)
C:/Users/Accepted/Documents/smart_car/Seekfree_CH32V103R8T6_Opensource_Library/Libraries/seekfree_libraries/clock_config.c:91
    SetSysClock();
    1e9e:	3d81                	jal	1cee <SetSysClock>
C:/Users/Accepted/Documents/smart_car/Seekfree_CH32V103R8T6_Opensource_Library/Libraries/seekfree_libraries/clock_config.c:92
}
    1ea0:	0001                	nop
    1ea2:	40b2                	lw	ra,12(sp)
    1ea4:	4422                	lw	s0,8(sp)
    1ea6:	0141                	addi	sp,sp,16
    1ea8:	8082                	ret

00001eaa <gpio_init>:
gpio_init():
C:/Users/Accepted/Documents/smart_car/Seekfree_CH32V103R8T6_Opensource_Library/Libraries/seekfree_libraries/zf_gpio.c:40
//  @param      pinconf     引脚配置（可设置参数由zf_gpio.h文件内GPIOSPEED_enum与GPIOMODE_enum枚举值确定，多个条件使用 | 相或）
//  @return     void
//  Sample usage:           gpio_init(D0, GPO, 1, GPIO_PIN_CONFIG);//D0初始化为GPIO功能、输出模式、输出高电平、速度100MHZ 推挽输出
//-------------------------------------------------------------------------------------------------------------------
void gpio_init(PIN_enum pin, GPIODIR_enum dir, uint8 dat, uint32 pinconf)
{
    1eaa:	7179                	addi	sp,sp,-48
    1eac:	d606                	sw	ra,44(sp)
    1eae:	d422                	sw	s0,40(sp)
    1eb0:	1800                	addi	s0,sp,48
    1eb2:	fca42e23          	sw	a0,-36(s0)
    1eb6:	fcb42c23          	sw	a1,-40(s0)
    1eba:	87b2                	mv	a5,a2
    1ebc:	fcd42823          	sw	a3,-48(s0)
    1ec0:	fcf40ba3          	sb	a5,-41(s0)
C:/Users/Accepted/Documents/smart_car/Seekfree_CH32V103R8T6_Opensource_Library/Libraries/seekfree_libraries/zf_gpio.c:42
    GPIO_InitTypeDef GPIO_InitStructure;
    uint8 io_group = (pin & 0xE0) >> 5;
    1ec4:	fdc42783          	lw	a5,-36(s0)
    1ec8:	8395                	srli	a5,a5,0x5
    1eca:	0ff7f793          	andi	a5,a5,255
    1ece:	8b9d                	andi	a5,a5,7
    1ed0:	fef407a3          	sb	a5,-17(s0)
C:/Users/Accepted/Documents/smart_car/Seekfree_CH32V103R8T6_Opensource_Library/Libraries/seekfree_libraries/zf_gpio.c:43
    uint8 io_pin = pin & 0x1F;
    1ed4:	fdc42783          	lw	a5,-36(s0)
    1ed8:	0ff7f793          	andi	a5,a5,255
    1edc:	8bfd                	andi	a5,a5,31
    1ede:	fef40723          	sb	a5,-18(s0)
C:/Users/Accepted/Documents/smart_car/Seekfree_CH32V103R8T6_Opensource_Library/Libraries/seekfree_libraries/zf_gpio.c:46


    if(PIN_NULL == pin) return;
    1ee2:	fdc42703          	lw	a4,-36(s0)
    1ee6:	08000793          	li	a5,128
    1eea:	14f70d63          	beq	a4,a5,2044 <gpio_init+0x19a>
C:/Users/Accepted/Documents/smart_car/Seekfree_CH32V103R8T6_Opensource_Library/Libraries/seekfree_libraries/zf_gpio.c:48
    //GPIO总线使能
    if(0 == (pin >> 5))      RCC_APB2PeriphClockCmd(RCC_APB2Periph_GPIOA, ENABLE);
    1eee:	fdc42783          	lw	a5,-36(s0)
    1ef2:	8395                	srli	a5,a5,0x5
    1ef4:	e791                	bnez	a5,1f00 <gpio_init+0x56>
C:/Users/Accepted/Documents/smart_car/Seekfree_CH32V103R8T6_Opensource_Library/Libraries/seekfree_libraries/zf_gpio.c:48 (discriminator 1)
    1ef6:	4585                	li	a1,1
    1ef8:	4511                	li	a0,4
    1efa:	a81fe0ef          	jal	ra,97a <RCC_APB2PeriphClockCmd>
    1efe:	a861                	j	1f96 <gpio_init+0xec>
C:/Users/Accepted/Documents/smart_car/Seekfree_CH32V103R8T6_Opensource_Library/Libraries/seekfree_libraries/zf_gpio.c:49
    else if(1 == (pin >> 5)) RCC_APB2PeriphClockCmd(RCC_APB2Periph_GPIOB, ENABLE);
    1f00:	fdc42783          	lw	a5,-36(s0)
    1f04:	0057d713          	srli	a4,a5,0x5
    1f08:	4785                	li	a5,1
    1f0a:	00f71763          	bne	a4,a5,1f18 <gpio_init+0x6e>
C:/Users/Accepted/Documents/smart_car/Seekfree_CH32V103R8T6_Opensource_Library/Libraries/seekfree_libraries/zf_gpio.c:49 (discriminator 1)
    1f0e:	4585                	li	a1,1
    1f10:	4521                	li	a0,8
    1f12:	a69fe0ef          	jal	ra,97a <RCC_APB2PeriphClockCmd>
    1f16:	a041                	j	1f96 <gpio_init+0xec>
C:/Users/Accepted/Documents/smart_car/Seekfree_CH32V103R8T6_Opensource_Library/Libraries/seekfree_libraries/zf_gpio.c:50
    else if(2 == (pin >> 5)) RCC_APB2PeriphClockCmd(RCC_APB2Periph_GPIOC, ENABLE);
    1f18:	fdc42783          	lw	a5,-36(s0)
    1f1c:	0057d713          	srli	a4,a5,0x5
    1f20:	4789                	li	a5,2
    1f22:	00f71763          	bne	a4,a5,1f30 <gpio_init+0x86>
C:/Users/Accepted/Documents/smart_car/Seekfree_CH32V103R8T6_Opensource_Library/Libraries/seekfree_libraries/zf_gpio.c:50 (discriminator 1)
    1f26:	4585                	li	a1,1
    1f28:	4541                	li	a0,16
    1f2a:	a51fe0ef          	jal	ra,97a <RCC_APB2PeriphClockCmd>
    1f2e:	a0a5                	j	1f96 <gpio_init+0xec>
C:/Users/Accepted/Documents/smart_car/Seekfree_CH32V103R8T6_Opensource_Library/Libraries/seekfree_libraries/zf_gpio.c:51
    else if(3 == (pin >> 5)) RCC_APB2PeriphClockCmd(RCC_APB2Periph_GPIOD, ENABLE);
    1f30:	fdc42783          	lw	a5,-36(s0)
    1f34:	0057d713          	srli	a4,a5,0x5
    1f38:	478d                	li	a5,3
    1f3a:	00f71863          	bne	a4,a5,1f4a <gpio_init+0xa0>
C:/Users/Accepted/Documents/smart_car/Seekfree_CH32V103R8T6_Opensource_Library/Libraries/seekfree_libraries/zf_gpio.c:51 (discriminator 1)
    1f3e:	4585                	li	a1,1
    1f40:	02000513          	li	a0,32
    1f44:	a37fe0ef          	jal	ra,97a <RCC_APB2PeriphClockCmd>
    1f48:	a0b9                	j	1f96 <gpio_init+0xec>
C:/Users/Accepted/Documents/smart_car/Seekfree_CH32V103R8T6_Opensource_Library/Libraries/seekfree_libraries/zf_gpio.c:52
    else if(4 == (pin >> 5)) RCC_APB2PeriphClockCmd(RCC_APB2Periph_GPIOE, ENABLE);
    1f4a:	fdc42783          	lw	a5,-36(s0)
    1f4e:	0057d713          	srli	a4,a5,0x5
    1f52:	4791                	li	a5,4
    1f54:	00f71863          	bne	a4,a5,1f64 <gpio_init+0xba>
C:/Users/Accepted/Documents/smart_car/Seekfree_CH32V103R8T6_Opensource_Library/Libraries/seekfree_libraries/zf_gpio.c:52 (discriminator 1)
    1f58:	4585                	li	a1,1
    1f5a:	04000513          	li	a0,64
    1f5e:	a1dfe0ef          	jal	ra,97a <RCC_APB2PeriphClockCmd>
    1f62:	a815                	j	1f96 <gpio_init+0xec>
C:/Users/Accepted/Documents/smart_car/Seekfree_CH32V103R8T6_Opensource_Library/Libraries/seekfree_libraries/zf_gpio.c:53
    else if(5 == (pin >> 5)) RCC_APB2PeriphClockCmd(RCC_APB2Periph_GPIOF, ENABLE);
    1f64:	fdc42783          	lw	a5,-36(s0)
    1f68:	0057d713          	srli	a4,a5,0x5
    1f6c:	4795                	li	a5,5
    1f6e:	00f71863          	bne	a4,a5,1f7e <gpio_init+0xd4>
C:/Users/Accepted/Documents/smart_car/Seekfree_CH32V103R8T6_Opensource_Library/Libraries/seekfree_libraries/zf_gpio.c:53 (discriminator 1)
    1f72:	4585                	li	a1,1
    1f74:	08000513          	li	a0,128
    1f78:	a03fe0ef          	jal	ra,97a <RCC_APB2PeriphClockCmd>
    1f7c:	a829                	j	1f96 <gpio_init+0xec>
C:/Users/Accepted/Documents/smart_car/Seekfree_CH32V103R8T6_Opensource_Library/Libraries/seekfree_libraries/zf_gpio.c:54
    else if(6 == (pin >> 5)) RCC_APB2PeriphClockCmd(RCC_APB2Periph_GPIOG, ENABLE);
    1f7e:	fdc42783          	lw	a5,-36(s0)
    1f82:	0057d713          	srli	a4,a5,0x5
    1f86:	4799                	li	a5,6
    1f88:	00f71763          	bne	a4,a5,1f96 <gpio_init+0xec>
C:/Users/Accepted/Documents/smart_car/Seekfree_CH32V103R8T6_Opensource_Library/Libraries/seekfree_libraries/zf_gpio.c:54 (discriminator 1)
    1f8c:	4585                	li	a1,1
    1f8e:	10000513          	li	a0,256
    1f92:	9e9fe0ef          	jal	ra,97a <RCC_APB2PeriphClockCmd>
C:/Users/Accepted/Documents/smart_car/Seekfree_CH32V103R8T6_Opensource_Library/Libraries/seekfree_libraries/zf_gpio.c:58


    //设置引脚号
    GPIO_InitStructure.GPIO_Pin = (uint16)(1 << io_pin);
    1f96:	fee44783          	lbu	a5,-18(s0)
    1f9a:	4705                	li	a4,1
    1f9c:	00f717b3          	sll	a5,a4,a5
    1fa0:	07c2                	slli	a5,a5,0x10
    1fa2:	83c1                	srli	a5,a5,0x10
    1fa4:	fef41023          	sh	a5,-32(s0)
C:/Users/Accepted/Documents/smart_car/Seekfree_CH32V103R8T6_Opensource_Library/Libraries/seekfree_libraries/zf_gpio.c:60

    if(GPO == dir)
    1fa8:	fd842703          	lw	a4,-40(s0)
    1fac:	4785                	li	a5,1
    1fae:	02f71763          	bne	a4,a5,1fdc <gpio_init+0x132>
C:/Users/Accepted/Documents/smart_car/Seekfree_CH32V103R8T6_Opensource_Library/Libraries/seekfree_libraries/zf_gpio.c:63
    {
        //只有输出需要设置速度
        if((uint16)pinconf >> 8 == 0) GPIO_InitStructure.GPIO_Speed = (GPIOSpeed_TypeDef)(GPIO_Speed_50MHz);  //防止没有填写这个参数,默认设置50Mhz
    1fb2:	fd042783          	lw	a5,-48(s0)
    1fb6:	07c2                	slli	a5,a5,0x10
    1fb8:	83c1                	srli	a5,a5,0x10
    1fba:	83a1                	srli	a5,a5,0x8
    1fbc:	07c2                	slli	a5,a5,0x10
    1fbe:	83c1                	srli	a5,a5,0x10
    1fc0:	e789                	bnez	a5,1fca <gpio_init+0x120>
C:/Users/Accepted/Documents/smart_car/Seekfree_CH32V103R8T6_Opensource_Library/Libraries/seekfree_libraries/zf_gpio.c:63 (discriminator 1)
    1fc2:	478d                	li	a5,3
    1fc4:	fef42223          	sw	a5,-28(s0)
    1fc8:	a811                	j	1fdc <gpio_init+0x132>
C:/Users/Accepted/Documents/smart_car/Seekfree_CH32V103R8T6_Opensource_Library/Libraries/seekfree_libraries/zf_gpio.c:64
        else GPIO_InitStructure.GPIO_Speed = (GPIOSpeed_TypeDef)((uint16)pinconf >> 8);                       //已经填写了该参数。根据值来设置
    1fca:	fd042783          	lw	a5,-48(s0)
    1fce:	07c2                	slli	a5,a5,0x10
    1fd0:	83c1                	srli	a5,a5,0x10
    1fd2:	83a1                	srli	a5,a5,0x8
    1fd4:	07c2                	slli	a5,a5,0x10
    1fd6:	83c1                	srli	a5,a5,0x10
    1fd8:	fef42223          	sw	a5,-28(s0)
C:/Users/Accepted/Documents/smart_car/Seekfree_CH32V103R8T6_Opensource_Library/Libraries/seekfree_libraries/zf_gpio.c:68
    }

    //设置模式
    GPIO_InitStructure.GPIO_Mode = (GPIOMode_TypeDef)((uint16)pinconf & 0xff);
    1fdc:	fd042783          	lw	a5,-48(s0)
    1fe0:	07c2                	slli	a5,a5,0x10
    1fe2:	83c1                	srli	a5,a5,0x10
    1fe4:	0ff7f793          	andi	a5,a5,255
    1fe8:	fef42423          	sw	a5,-24(s0)
C:/Users/Accepted/Documents/smart_car/Seekfree_CH32V103R8T6_Opensource_Library/Libraries/seekfree_libraries/zf_gpio.c:69
    GPIO_Init((GPIO_TypeDef *)(GPION[io_group]), &GPIO_InitStructure);
    1fec:	fef44703          	lbu	a4,-17(s0)
    1ff0:	6791                	lui	a5,0x4
    1ff2:	070a                	slli	a4,a4,0x2
    1ff4:	03478793          	addi	a5,a5,52 # 4034 <GPION>
    1ff8:	97ba                	add	a5,a5,a4
    1ffa:	439c                	lw	a5,0(a5)
    1ffc:	873e                	mv	a4,a5
    1ffe:	fe040793          	addi	a5,s0,-32
    2002:	85be                	mv	a1,a5
    2004:	853a                	mv	a0,a4
    2006:	bbcfe0ef          	jal	ra,3c2 <GPIO_Init>
C:/Users/Accepted/Documents/smart_car/Seekfree_CH32V103R8T6_Opensource_Library/Libraries/seekfree_libraries/zf_gpio.c:71

    if(GPO == dir)
    200a:	fd842703          	lw	a4,-40(s0)
    200e:	4785                	li	a5,1
    2010:	02f71b63          	bne	a4,a5,2046 <gpio_init+0x19c>
C:/Users/Accepted/Documents/smart_car/Seekfree_CH32V103R8T6_Opensource_Library/Libraries/seekfree_libraries/zf_gpio.c:74
    {
        //只有输出需要设置引脚状态
        GPIO_WriteBit((GPIO_TypeDef *)(GPION[io_group]), (uint16)(1 << io_pin), dat);
    2014:	fef44703          	lbu	a4,-17(s0)
    2018:	6791                	lui	a5,0x4
    201a:	070a                	slli	a4,a4,0x2
    201c:	03478793          	addi	a5,a5,52 # 4034 <GPION>
    2020:	97ba                	add	a5,a5,a4
    2022:	439c                	lw	a5,0(a5)
    2024:	86be                	mv	a3,a5
    2026:	fee44783          	lbu	a5,-18(s0)
    202a:	4705                	li	a4,1
    202c:	00f717b3          	sll	a5,a4,a5
    2030:	07c2                	slli	a5,a5,0x10
    2032:	83c1                	srli	a5,a5,0x10
    2034:	fd744703          	lbu	a4,-41(s0)
    2038:	863a                	mv	a2,a4
    203a:	85be                	mv	a1,a5
    203c:	8536                	mv	a0,a3
    203e:	daefe0ef          	jal	ra,5ec <GPIO_WriteBit>
    2042:	a011                	j	2046 <gpio_init+0x19c>
C:/Users/Accepted/Documents/smart_car/Seekfree_CH32V103R8T6_Opensource_Library/Libraries/seekfree_libraries/zf_gpio.c:46
    if(PIN_NULL == pin) return;
    2044:	0001                	nop
C:/Users/Accepted/Documents/smart_car/Seekfree_CH32V103R8T6_Opensource_Library/Libraries/seekfree_libraries/zf_gpio.c:76
    }
}
    2046:	50b2                	lw	ra,44(sp)
    2048:	5422                	lw	s0,40(sp)
    204a:	6145                	addi	sp,sp,48
    204c:	8082                	ret

0000204e <gpio_set>:
gpio_set():
C:/Users/Accepted/Documents/smart_car/Seekfree_CH32V103R8T6_Opensource_Library/Libraries/seekfree_libraries/zf_gpio.c:86
//  @param      dat         引脚的电平状态，输出时有效 0：低电平 1：高电平
//  @return     void
//  Sample usage:           gpio_set(D0, 0);//D0输出低电平
//-------------------------------------------------------------------------------------------------------------------
void gpio_set(PIN_enum pin, uint8 dat)
{
    204e:	7179                	addi	sp,sp,-48
    2050:	d622                	sw	s0,44(sp)
    2052:	1800                	addi	s0,sp,48
    2054:	fca42e23          	sw	a0,-36(s0)
    2058:	87ae                	mv	a5,a1
    205a:	fcf40da3          	sb	a5,-37(s0)
C:/Users/Accepted/Documents/smart_car/Seekfree_CH32V103R8T6_Opensource_Library/Libraries/seekfree_libraries/zf_gpio.c:87
    uint8 io_group = (pin & 0xE0) >> 5;
    205e:	fdc42783          	lw	a5,-36(s0)
    2062:	8395                	srli	a5,a5,0x5
    2064:	0ff7f793          	andi	a5,a5,255
    2068:	8b9d                	andi	a5,a5,7
    206a:	fef407a3          	sb	a5,-17(s0)
C:/Users/Accepted/Documents/smart_car/Seekfree_CH32V103R8T6_Opensource_Library/Libraries/seekfree_libraries/zf_gpio.c:88
    uint8 io_pin = pin & 0x1F;
    206e:	fdc42783          	lw	a5,-36(s0)
    2072:	0ff7f793          	andi	a5,a5,255
    2076:	8bfd                	andi	a5,a5,31
    2078:	fef40723          	sb	a5,-18(s0)
C:/Users/Accepted/Documents/smart_car/Seekfree_CH32V103R8T6_Opensource_Library/Libraries/seekfree_libraries/zf_gpio.c:90

    if (dat == 1)
    207c:	fdb44703          	lbu	a4,-37(s0)
    2080:	4785                	li	a5,1
    2082:	02f71263          	bne	a4,a5,20a6 <gpio_set+0x58>
C:/Users/Accepted/Documents/smart_car/Seekfree_CH32V103R8T6_Opensource_Library/Libraries/seekfree_libraries/zf_gpio.c:91
         ((GPIO_TypeDef *)(GPION[io_group]))->BSHR = 1 << io_pin;
    2086:	fee44783          	lbu	a5,-18(s0)
    208a:	4705                	li	a4,1
    208c:	00f716b3          	sll	a3,a4,a5
    2090:	fef44703          	lbu	a4,-17(s0)
    2094:	6791                	lui	a5,0x4
    2096:	070a                	slli	a4,a4,0x2
    2098:	03478793          	addi	a5,a5,52 # 4034 <GPION>
    209c:	97ba                	add	a5,a5,a4
    209e:	439c                	lw	a5,0(a5)
    20a0:	8736                	mv	a4,a3
    20a2:	cb98                	sw	a4,16(a5)
C:/Users/Accepted/Documents/smart_car/Seekfree_CH32V103R8T6_Opensource_Library/Libraries/seekfree_libraries/zf_gpio.c:94
    else
         ((GPIO_TypeDef *)(GPION[io_group]))->BCR = 1 << io_pin;
}
    20a4:	a005                	j	20c4 <gpio_set+0x76>
C:/Users/Accepted/Documents/smart_car/Seekfree_CH32V103R8T6_Opensource_Library/Libraries/seekfree_libraries/zf_gpio.c:93
         ((GPIO_TypeDef *)(GPION[io_group]))->BCR = 1 << io_pin;
    20a6:	fee44783          	lbu	a5,-18(s0)
    20aa:	4705                	li	a4,1
    20ac:	00f716b3          	sll	a3,a4,a5
    20b0:	fef44703          	lbu	a4,-17(s0)
    20b4:	6791                	lui	a5,0x4
    20b6:	070a                	slli	a4,a4,0x2
    20b8:	03478793          	addi	a5,a5,52 # 4034 <GPION>
    20bc:	97ba                	add	a5,a5,a4
    20be:	439c                	lw	a5,0(a5)
    20c0:	8736                	mv	a4,a3
    20c2:	cbd8                	sw	a4,20(a5)
C:/Users/Accepted/Documents/smart_car/Seekfree_CH32V103R8T6_Opensource_Library/Libraries/seekfree_libraries/zf_gpio.c:94
}
    20c4:	0001                	nop
    20c6:	5432                	lw	s0,44(sp)
    20c8:	6145                	addi	sp,sp,48
    20ca:	8082                	ret

000020cc <gpio_get>:
gpio_get():
C:/Users/Accepted/Documents/smart_car/Seekfree_CH32V103R8T6_Opensource_Library/Libraries/seekfree_libraries/zf_gpio.c:103
//  @param      pin         选择的引脚 (可选择范围由 common.h 内PIN_enum枚举值确定)
//  @return     uint8       0：低电平 1：高电平
//  Sample usage:           uint8 status = gpio_get(D0);//获取D0引脚电平
//-------------------------------------------------------------------------------------------------------------------
uint8 gpio_get(PIN_enum pin)
{
    20cc:	7179                	addi	sp,sp,-48
    20ce:	d622                	sw	s0,44(sp)
    20d0:	1800                	addi	s0,sp,48
    20d2:	fca42e23          	sw	a0,-36(s0)
C:/Users/Accepted/Documents/smart_car/Seekfree_CH32V103R8T6_Opensource_Library/Libraries/seekfree_libraries/zf_gpio.c:104
    uint8 io_group = (pin & 0xE0) >> 5;
    20d6:	fdc42783          	lw	a5,-36(s0)
    20da:	8395                	srli	a5,a5,0x5
    20dc:	0ff7f793          	andi	a5,a5,255
    20e0:	8b9d                	andi	a5,a5,7
    20e2:	fef407a3          	sb	a5,-17(s0)
C:/Users/Accepted/Documents/smart_car/Seekfree_CH32V103R8T6_Opensource_Library/Libraries/seekfree_libraries/zf_gpio.c:105
    uint8 io_pin = pin & 0x1F;
    20e6:	fdc42783          	lw	a5,-36(s0)
    20ea:	0ff7f793          	andi	a5,a5,255
    20ee:	8bfd                	andi	a5,a5,31
    20f0:	fef40723          	sb	a5,-18(s0)
C:/Users/Accepted/Documents/smart_car/Seekfree_CH32V103R8T6_Opensource_Library/Libraries/seekfree_libraries/zf_gpio.c:107

    if((((GPIO_TypeDef *)(GPION[io_group]))->INDR & (1 << io_pin)) != 0)
    20f4:	fef44703          	lbu	a4,-17(s0)
    20f8:	6791                	lui	a5,0x4
    20fa:	070a                	slli	a4,a4,0x2
    20fc:	03478793          	addi	a5,a5,52 # 4034 <GPION>
    2100:	97ba                	add	a5,a5,a4
    2102:	439c                	lw	a5,0(a5)
    2104:	479c                	lw	a5,8(a5)
    2106:	fee44703          	lbu	a4,-18(s0)
    210a:	4685                	li	a3,1
    210c:	00e69733          	sll	a4,a3,a4
    2110:	8ff9                	and	a5,a5,a4
    2112:	c399                	beqz	a5,2118 <gpio_get+0x4c>
C:/Users/Accepted/Documents/smart_car/Seekfree_CH32V103R8T6_Opensource_Library/Libraries/seekfree_libraries/zf_gpio.c:109
    {
        return 1;
    2114:	4785                	li	a5,1
    2116:	a011                	j	211a <gpio_get+0x4e>
C:/Users/Accepted/Documents/smart_car/Seekfree_CH32V103R8T6_Opensource_Library/Libraries/seekfree_libraries/zf_gpio.c:111
    }
    return 0;
    2118:	4781                	li	a5,0
C:/Users/Accepted/Documents/smart_car/Seekfree_CH32V103R8T6_Opensource_Library/Libraries/seekfree_libraries/zf_gpio.c:114


}
    211a:	853e                	mv	a0,a5
    211c:	5432                	lw	s0,44(sp)
    211e:	6145                	addi	sp,sp,48
    2120:	8082                	ret

00002122 <DisableGlobalIRQ>:
DisableGlobalIRQ():
C:/Users/Accepted/Documents/smart_car/Seekfree_CH32V103R8T6_Opensource_Library/Libraries/seekfree_libraries/zf_nvic.c:89
//  @return     void
//  @since      v1.0
//  Sample usage:
//-------------------------------------------------------------------------------------------------------------------
uint32 DisableGlobalIRQ(void)
{
    2122:	1141                	addi	sp,sp,-16
    2124:	c606                	sw	ra,12(sp)
    2126:	c422                	sw	s0,8(sp)
    2128:	0800                	addi	s0,sp,16
C:/Users/Accepted/Documents/smart_car/Seekfree_CH32V103R8T6_Opensource_Library/Libraries/seekfree_libraries/zf_nvic.c:99
//    close_all_irq();
//    return state;

    extern uint32 interrupt_disable();
    //返回当前mstatus寄存器的值
    return interrupt_disable();
    212a:	816fe0ef          	jal	ra,140 <interrupt_disable>
    212e:	87aa                	mv	a5,a0
C:/Users/Accepted/Documents/smart_car/Seekfree_CH32V103R8T6_Opensource_Library/Libraries/seekfree_libraries/zf_nvic.c:100
}
    2130:	853e                	mv	a0,a5
    2132:	40b2                	lw	ra,12(sp)
    2134:	4422                	lw	s0,8(sp)
    2136:	0141                	addi	sp,sp,16
    2138:	8082                	ret

0000213a <EnableGlobalIRQ>:
EnableGlobalIRQ():
C:/Users/Accepted/Documents/smart_car/Seekfree_CH32V103R8T6_Opensource_Library/Libraries/seekfree_libraries/zf_nvic.c:110
//  @return     void
//  @since      v1.0
//  Sample usage:
//-------------------------------------------------------------------------------------------------------------------
void EnableGlobalIRQ(uint8 state)
{
    213a:	1101                	addi	sp,sp,-32
    213c:	ce06                	sw	ra,28(sp)
    213e:	cc22                	sw	s0,24(sp)
    2140:	1000                	addi	s0,sp,32
    2142:	87aa                	mv	a5,a0
    2144:	fef407a3          	sb	a5,-17(s0)
C:/Users/Accepted/Documents/smart_car/Seekfree_CH32V103R8T6_Opensource_Library/Libraries/seekfree_libraries/zf_nvic.c:116
//    if(state == 0)
//    {
//        irq_status.flag = 0;
//        sys_recover_irq();
//    }
    if(state == 0)
    2148:	fef44783          	lbu	a5,-17(s0)
    214c:	e789                	bnez	a5,2156 <EnableGlobalIRQ+0x1c>
C:/Users/Accepted/Documents/smart_car/Seekfree_CH32V103R8T6_Opensource_Library/Libraries/seekfree_libraries/zf_nvic.c:119
    {
        extern void interrupt_enable(long);
        interrupt_enable(0x88);
    214e:	08800513          	li	a0,136
    2152:	ff5fd0ef          	jal	ra,146 <interrupt_enable>
C:/Users/Accepted/Documents/smart_car/Seekfree_CH32V103R8T6_Opensource_Library/Libraries/seekfree_libraries/zf_nvic.c:121
    }
}
    2156:	0001                	nop
    2158:	40f2                	lw	ra,28(sp)
    215a:	4462                	lw	s0,24(sp)
    215c:	6105                	addi	sp,sp,32
    215e:	8082                	ret

00002160 <timer_pwm_gpio_init>:
timer_pwm_gpio_init():
C:/Users/Accepted/Documents/smart_car/Seekfree_CH32V103R8T6_Opensource_Library/Libraries/seekfree_libraries/zf_pwm.c:35
//  @param      pwmch       PWM通道(可选择范围由zf_pwm.h内PWMCH_enum枚举值确定)
//  @return     void
//  Sample usage:           内部使用  用户无需关心
//-------------------------------------------------------------------------------------------------------------------
void timer_pwm_gpio_init(PWMCH_enum pwmch)
{
    2160:	1101                	addi	sp,sp,-32
    2162:	ce06                	sw	ra,28(sp)
    2164:	cc22                	sw	s0,24(sp)
    2166:	1000                	addi	s0,sp,32
    2168:	fea42623          	sw	a0,-20(s0)
    216c:	fec42703          	lw	a4,-20(s0)
    2170:	20000793          	li	a5,512
    2174:	22f70b63          	beq	a4,a5,23aa <timer_pwm_gpio_init+0x24a>
    2178:	fec42703          	lw	a4,-20(s0)
    217c:	20000793          	li	a5,512
    2180:	0ae7ea63          	bltu	a5,a4,2234 <timer_pwm_gpio_init+0xd4>
    2184:	fec42703          	lw	a4,-20(s0)
    2188:	10100793          	li	a5,257
    218c:	1af70b63          	beq	a4,a5,2342 <timer_pwm_gpio_init+0x1e2>
    2190:	fec42703          	lw	a4,-20(s0)
    2194:	10100793          	li	a5,257
    2198:	04e7e263          	bltu	a5,a4,21dc <timer_pwm_gpio_init+0x7c>
    219c:	fec42703          	lw	a4,-20(s0)
    21a0:	4789                	li	a5,2
    21a2:	16f70b63          	beq	a4,a5,2318 <timer_pwm_gpio_init+0x1b8>
    21a6:	fec42703          	lw	a4,-20(s0)
    21aa:	4789                	li	a5,2
    21ac:	00e7ec63          	bltu	a5,a4,21c4 <timer_pwm_gpio_init+0x64>
    21b0:	fec42783          	lw	a5,-20(s0)
    21b4:	14078463          	beqz	a5,22fc <timer_pwm_gpio_init+0x19c>
    21b8:	fec42703          	lw	a4,-20(s0)
    21bc:	4785                	li	a5,1
    21be:	14f70663          	beq	a4,a5,230a <timer_pwm_gpio_init+0x1aa>
C:/Users/Accepted/Documents/smart_car/Seekfree_CH32V103R8T6_Opensource_Library/Libraries/seekfree_libraries/zf_pwm.c:145
        case PWM4_CH4_B9:
            gpio_init(B9, GPO, 0, SPEED_50MHZ|OUT_AF_PP);
            break;
        default:
            //断言
            break;
    21c2:	a4d1                	j	2486 <timer_pwm_gpio_init+0x326>
    21c4:	fec42703          	lw	a4,-20(s0)
    21c8:	478d                	li	a5,3
    21ca:	14f70e63          	beq	a4,a5,2326 <timer_pwm_gpio_init+0x1c6>
    21ce:	fec42703          	lw	a4,-20(s0)
    21d2:	10000793          	li	a5,256
    21d6:	14f70f63          	beq	a4,a5,2334 <timer_pwm_gpio_init+0x1d4>
    21da:	a475                	j	2486 <timer_pwm_gpio_init+0x326>
    21dc:	fec42703          	lw	a4,-20(s0)
    21e0:	11000793          	li	a5,272
    21e4:	18f70463          	beq	a4,a5,236c <timer_pwm_gpio_init+0x20c>
    21e8:	fec42703          	lw	a4,-20(s0)
    21ec:	11000793          	li	a5,272
    21f0:	00e7ef63          	bltu	a5,a4,220e <timer_pwm_gpio_init+0xae>
    21f4:	fec42703          	lw	a4,-20(s0)
    21f8:	10200793          	li	a5,258
    21fc:	14f70a63          	beq	a4,a5,2350 <timer_pwm_gpio_init+0x1f0>
    2200:	fec42703          	lw	a4,-20(s0)
    2204:	10300793          	li	a5,259
    2208:	14f70b63          	beq	a4,a5,235e <timer_pwm_gpio_init+0x1fe>
    220c:	acad                	j	2486 <timer_pwm_gpio_init+0x326>
    220e:	fec42703          	lw	a4,-20(s0)
    2212:	11200793          	li	a5,274
    2216:	16f70a63          	beq	a4,a5,238a <timer_pwm_gpio_init+0x22a>
    221a:	fec42703          	lw	a4,-20(s0)
    221e:	11200793          	li	a5,274
    2222:	14f76c63          	bltu	a4,a5,237a <timer_pwm_gpio_init+0x21a>
    2226:	fec42703          	lw	a4,-20(s0)
    222a:	11300793          	li	a5,275
    222e:	16f70663          	beq	a4,a5,239a <timer_pwm_gpio_init+0x23a>
    2232:	ac91                	j	2486 <timer_pwm_gpio_init+0x326>
    2234:	fec42703          	lw	a4,-20(s0)
    2238:	21300793          	li	a5,531
    223c:	1cf70d63          	beq	a4,a5,2416 <timer_pwm_gpio_init+0x2b6>
    2240:	fec42703          	lw	a4,-20(s0)
    2244:	21300793          	li	a5,531
    2248:	04e7ee63          	bltu	a5,a4,22a4 <timer_pwm_gpio_init+0x144>
    224c:	fec42703          	lw	a4,-20(s0)
    2250:	20300793          	li	a5,515
    2254:	18f70163          	beq	a4,a5,23d6 <timer_pwm_gpio_init+0x276>
    2258:	fec42703          	lw	a4,-20(s0)
    225c:	20300793          	li	a5,515
    2260:	00e7ef63          	bltu	a5,a4,227e <timer_pwm_gpio_init+0x11e>
    2264:	fec42703          	lw	a4,-20(s0)
    2268:	20100793          	li	a5,513
    226c:	14f70663          	beq	a4,a5,23b8 <timer_pwm_gpio_init+0x258>
    2270:	fec42703          	lw	a4,-20(s0)
    2274:	20200793          	li	a5,514
    2278:	14f70763          	beq	a4,a5,23c6 <timer_pwm_gpio_init+0x266>
    227c:	a429                	j	2486 <timer_pwm_gpio_init+0x326>
    227e:	fec42703          	lw	a4,-20(s0)
    2282:	21100793          	li	a5,529
    2286:	16f70863          	beq	a4,a5,23f6 <timer_pwm_gpio_init+0x296>
    228a:	fec42703          	lw	a4,-20(s0)
    228e:	21100793          	li	a5,529
    2292:	16e7ea63          	bltu	a5,a4,2406 <timer_pwm_gpio_init+0x2a6>
    2296:	fec42703          	lw	a4,-20(s0)
    229a:	21000793          	li	a5,528
    229e:	14f70463          	beq	a4,a5,23e6 <timer_pwm_gpio_init+0x286>
    22a2:	a2d5                	j	2486 <timer_pwm_gpio_init+0x326>
    22a4:	fec42703          	lw	a4,-20(s0)
    22a8:	30000793          	li	a5,768
    22ac:	18f70d63          	beq	a4,a5,2446 <timer_pwm_gpio_init+0x2e6>
    22b0:	fec42703          	lw	a4,-20(s0)
    22b4:	30000793          	li	a5,768
    22b8:	00e7ef63          	bltu	a5,a4,22d6 <timer_pwm_gpio_init+0x176>
    22bc:	fec42703          	lw	a4,-20(s0)
    22c0:	22000793          	li	a5,544
    22c4:	16f70163          	beq	a4,a5,2426 <timer_pwm_gpio_init+0x2c6>
    22c8:	fec42703          	lw	a4,-20(s0)
    22cc:	22100793          	li	a5,545
    22d0:	16f70363          	beq	a4,a5,2436 <timer_pwm_gpio_init+0x2d6>
    22d4:	aa4d                	j	2486 <timer_pwm_gpio_init+0x326>
    22d6:	fec42703          	lw	a4,-20(s0)
    22da:	30200793          	li	a5,770
    22de:	18f70463          	beq	a4,a5,2466 <timer_pwm_gpio_init+0x306>
    22e2:	fec42703          	lw	a4,-20(s0)
    22e6:	30200793          	li	a5,770
    22ea:	16f76663          	bltu	a4,a5,2456 <timer_pwm_gpio_init+0x2f6>
    22ee:	fec42703          	lw	a4,-20(s0)
    22f2:	30300793          	li	a5,771
    22f6:	18f70063          	beq	a4,a5,2476 <timer_pwm_gpio_init+0x316>
    22fa:	a271                	j	2486 <timer_pwm_gpio_init+0x326>
C:/Users/Accepted/Documents/smart_car/Seekfree_CH32V103R8T6_Opensource_Library/Libraries/seekfree_libraries/zf_pwm.c:40
            gpio_init(A8, GPO, 0, SPEED_50MHZ|OUT_AF_PP);
    22fc:	31800693          	li	a3,792
    2300:	4601                	li	a2,0
    2302:	4585                	li	a1,1
    2304:	4521                	li	a0,8
    2306:	3655                	jal	1eaa <gpio_init>
C:/Users/Accepted/Documents/smart_car/Seekfree_CH32V103R8T6_Opensource_Library/Libraries/seekfree_libraries/zf_pwm.c:41
            break;
    2308:	aabd                	j	2486 <timer_pwm_gpio_init+0x326>
C:/Users/Accepted/Documents/smart_car/Seekfree_CH32V103R8T6_Opensource_Library/Libraries/seekfree_libraries/zf_pwm.c:43
            gpio_init(A9, GPO, 0, SPEED_50MHZ|OUT_AF_PP);
    230a:	31800693          	li	a3,792
    230e:	4601                	li	a2,0
    2310:	4585                	li	a1,1
    2312:	4525                	li	a0,9
    2314:	3e59                	jal	1eaa <gpio_init>
C:/Users/Accepted/Documents/smart_car/Seekfree_CH32V103R8T6_Opensource_Library/Libraries/seekfree_libraries/zf_pwm.c:44
            break;
    2316:	aa85                	j	2486 <timer_pwm_gpio_init+0x326>
C:/Users/Accepted/Documents/smart_car/Seekfree_CH32V103R8T6_Opensource_Library/Libraries/seekfree_libraries/zf_pwm.c:46
            gpio_init(A10, GPO, 0, SPEED_50MHZ|OUT_AF_PP);
    2318:	31800693          	li	a3,792
    231c:	4601                	li	a2,0
    231e:	4585                	li	a1,1
    2320:	4529                	li	a0,10
    2322:	3661                	jal	1eaa <gpio_init>
C:/Users/Accepted/Documents/smart_car/Seekfree_CH32V103R8T6_Opensource_Library/Libraries/seekfree_libraries/zf_pwm.c:47
            break;
    2324:	a28d                	j	2486 <timer_pwm_gpio_init+0x326>
C:/Users/Accepted/Documents/smart_car/Seekfree_CH32V103R8T6_Opensource_Library/Libraries/seekfree_libraries/zf_pwm.c:49
            gpio_init(A11, GPO, 0, SPEED_50MHZ|OUT_AF_PP);
    2326:	31800693          	li	a3,792
    232a:	4601                	li	a2,0
    232c:	4585                	li	a1,1
    232e:	452d                	li	a0,11
    2330:	3ead                	jal	1eaa <gpio_init>
C:/Users/Accepted/Documents/smart_car/Seekfree_CH32V103R8T6_Opensource_Library/Libraries/seekfree_libraries/zf_pwm.c:50
            break;
    2332:	aa91                	j	2486 <timer_pwm_gpio_init+0x326>
C:/Users/Accepted/Documents/smart_car/Seekfree_CH32V103R8T6_Opensource_Library/Libraries/seekfree_libraries/zf_pwm.c:73
            gpio_init(A0, GPO, 0, SPEED_50MHZ|OUT_AF_PP);
    2334:	31800693          	li	a3,792
    2338:	4601                	li	a2,0
    233a:	4585                	li	a1,1
    233c:	4501                	li	a0,0
    233e:	36b5                	jal	1eaa <gpio_init>
C:/Users/Accepted/Documents/smart_car/Seekfree_CH32V103R8T6_Opensource_Library/Libraries/seekfree_libraries/zf_pwm.c:74
            break;
    2340:	a299                	j	2486 <timer_pwm_gpio_init+0x326>
C:/Users/Accepted/Documents/smart_car/Seekfree_CH32V103R8T6_Opensource_Library/Libraries/seekfree_libraries/zf_pwm.c:76
            gpio_init(A1, GPO, 0, SPEED_50MHZ|OUT_AF_PP);
    2342:	31800693          	li	a3,792
    2346:	4601                	li	a2,0
    2348:	4585                	li	a1,1
    234a:	4505                	li	a0,1
    234c:	3eb9                	jal	1eaa <gpio_init>
C:/Users/Accepted/Documents/smart_car/Seekfree_CH32V103R8T6_Opensource_Library/Libraries/seekfree_libraries/zf_pwm.c:77
            break;
    234e:	aa25                	j	2486 <timer_pwm_gpio_init+0x326>
C:/Users/Accepted/Documents/smart_car/Seekfree_CH32V103R8T6_Opensource_Library/Libraries/seekfree_libraries/zf_pwm.c:79
            gpio_init(A2, GPO, 0, SPEED_50MHZ|OUT_AF_PP);
    2350:	31800693          	li	a3,792
    2354:	4601                	li	a2,0
    2356:	4585                	li	a1,1
    2358:	4509                	li	a0,2
    235a:	3e81                	jal	1eaa <gpio_init>
C:/Users/Accepted/Documents/smart_car/Seekfree_CH32V103R8T6_Opensource_Library/Libraries/seekfree_libraries/zf_pwm.c:80
            break;
    235c:	a22d                	j	2486 <timer_pwm_gpio_init+0x326>
C:/Users/Accepted/Documents/smart_car/Seekfree_CH32V103R8T6_Opensource_Library/Libraries/seekfree_libraries/zf_pwm.c:82
            gpio_init(A3, GPO, 0, SPEED_50MHZ|OUT_AF_PP);
    235e:	31800693          	li	a3,792
    2362:	4601                	li	a2,0
    2364:	4585                	li	a1,1
    2366:	450d                	li	a0,3
    2368:	3689                	jal	1eaa <gpio_init>
C:/Users/Accepted/Documents/smart_car/Seekfree_CH32V103R8T6_Opensource_Library/Libraries/seekfree_libraries/zf_pwm.c:83
            break;
    236a:	aa31                	j	2486 <timer_pwm_gpio_init+0x326>
C:/Users/Accepted/Documents/smart_car/Seekfree_CH32V103R8T6_Opensource_Library/Libraries/seekfree_libraries/zf_pwm.c:86
            gpio_init(A15, GPO, 0, SPEED_50MHZ|OUT_AF_PP);
    236c:	31800693          	li	a3,792
    2370:	4601                	li	a2,0
    2372:	4585                	li	a1,1
    2374:	453d                	li	a0,15
    2376:	3e15                	jal	1eaa <gpio_init>
C:/Users/Accepted/Documents/smart_car/Seekfree_CH32V103R8T6_Opensource_Library/Libraries/seekfree_libraries/zf_pwm.c:87
            break;
    2378:	a239                	j	2486 <timer_pwm_gpio_init+0x326>
C:/Users/Accepted/Documents/smart_car/Seekfree_CH32V103R8T6_Opensource_Library/Libraries/seekfree_libraries/zf_pwm.c:89
            gpio_init(B3, GPO, 0, SPEED_50MHZ|OUT_AF_PP);
    237a:	31800693          	li	a3,792
    237e:	4601                	li	a2,0
    2380:	4585                	li	a1,1
    2382:	02300513          	li	a0,35
    2386:	3615                	jal	1eaa <gpio_init>
C:/Users/Accepted/Documents/smart_car/Seekfree_CH32V103R8T6_Opensource_Library/Libraries/seekfree_libraries/zf_pwm.c:90
            break;
    2388:	a8fd                	j	2486 <timer_pwm_gpio_init+0x326>
C:/Users/Accepted/Documents/smart_car/Seekfree_CH32V103R8T6_Opensource_Library/Libraries/seekfree_libraries/zf_pwm.c:92
            gpio_init(B10, GPO, 0, SPEED_50MHZ|OUT_AF_PP);
    238a:	31800693          	li	a3,792
    238e:	4601                	li	a2,0
    2390:	4585                	li	a1,1
    2392:	02a00513          	li	a0,42
    2396:	3e11                	jal	1eaa <gpio_init>
C:/Users/Accepted/Documents/smart_car/Seekfree_CH32V103R8T6_Opensource_Library/Libraries/seekfree_libraries/zf_pwm.c:93
            break;
    2398:	a0fd                	j	2486 <timer_pwm_gpio_init+0x326>
C:/Users/Accepted/Documents/smart_car/Seekfree_CH32V103R8T6_Opensource_Library/Libraries/seekfree_libraries/zf_pwm.c:95
            gpio_init(B11, GPO, 0, SPEED_50MHZ|OUT_AF_PP);
    239a:	31800693          	li	a3,792
    239e:	4601                	li	a2,0
    23a0:	4585                	li	a1,1
    23a2:	02b00513          	li	a0,43
    23a6:	3611                	jal	1eaa <gpio_init>
C:/Users/Accepted/Documents/smart_car/Seekfree_CH32V103R8T6_Opensource_Library/Libraries/seekfree_libraries/zf_pwm.c:96
            break;
    23a8:	a8f9                	j	2486 <timer_pwm_gpio_init+0x326>
C:/Users/Accepted/Documents/smart_car/Seekfree_CH32V103R8T6_Opensource_Library/Libraries/seekfree_libraries/zf_pwm.c:99
            gpio_init(A6, GPO, 0, SPEED_50MHZ|OUT_AF_PP);
    23aa:	31800693          	li	a3,792
    23ae:	4601                	li	a2,0
    23b0:	4585                	li	a1,1
    23b2:	4519                	li	a0,6
    23b4:	3cdd                	jal	1eaa <gpio_init>
C:/Users/Accepted/Documents/smart_car/Seekfree_CH32V103R8T6_Opensource_Library/Libraries/seekfree_libraries/zf_pwm.c:100
            break;
    23b6:	a8c1                	j	2486 <timer_pwm_gpio_init+0x326>
C:/Users/Accepted/Documents/smart_car/Seekfree_CH32V103R8T6_Opensource_Library/Libraries/seekfree_libraries/zf_pwm.c:102
            gpio_init(A7, GPO, 0, SPEED_50MHZ|OUT_AF_PP);
    23b8:	31800693          	li	a3,792
    23bc:	4601                	li	a2,0
    23be:	4585                	li	a1,1
    23c0:	451d                	li	a0,7
    23c2:	34e5                	jal	1eaa <gpio_init>
C:/Users/Accepted/Documents/smart_car/Seekfree_CH32V103R8T6_Opensource_Library/Libraries/seekfree_libraries/zf_pwm.c:103
            break;
    23c4:	a0c9                	j	2486 <timer_pwm_gpio_init+0x326>
C:/Users/Accepted/Documents/smart_car/Seekfree_CH32V103R8T6_Opensource_Library/Libraries/seekfree_libraries/zf_pwm.c:105
            gpio_init(B0, GPO, 0, SPEED_50MHZ|OUT_AF_PP);
    23c6:	31800693          	li	a3,792
    23ca:	4601                	li	a2,0
    23cc:	4585                	li	a1,1
    23ce:	02000513          	li	a0,32
    23d2:	3ce1                	jal	1eaa <gpio_init>
C:/Users/Accepted/Documents/smart_car/Seekfree_CH32V103R8T6_Opensource_Library/Libraries/seekfree_libraries/zf_pwm.c:106
            break;
    23d4:	a84d                	j	2486 <timer_pwm_gpio_init+0x326>
C:/Users/Accepted/Documents/smart_car/Seekfree_CH32V103R8T6_Opensource_Library/Libraries/seekfree_libraries/zf_pwm.c:108
            gpio_init(B1, GPO, 0, SPEED_50MHZ|OUT_AF_PP);
    23d6:	31800693          	li	a3,792
    23da:	4601                	li	a2,0
    23dc:	4585                	li	a1,1
    23de:	02100513          	li	a0,33
    23e2:	34e1                	jal	1eaa <gpio_init>
C:/Users/Accepted/Documents/smart_car/Seekfree_CH32V103R8T6_Opensource_Library/Libraries/seekfree_libraries/zf_pwm.c:109
            break;
    23e4:	a04d                	j	2486 <timer_pwm_gpio_init+0x326>
C:/Users/Accepted/Documents/smart_car/Seekfree_CH32V103R8T6_Opensource_Library/Libraries/seekfree_libraries/zf_pwm.c:112
            gpio_init(C6, GPO, 0, SPEED_50MHZ|OUT_AF_PP);
    23e6:	31800693          	li	a3,792
    23ea:	4601                	li	a2,0
    23ec:	4585                	li	a1,1
    23ee:	04600513          	li	a0,70
    23f2:	3c65                	jal	1eaa <gpio_init>
C:/Users/Accepted/Documents/smart_car/Seekfree_CH32V103R8T6_Opensource_Library/Libraries/seekfree_libraries/zf_pwm.c:113
            break;
    23f4:	a849                	j	2486 <timer_pwm_gpio_init+0x326>
C:/Users/Accepted/Documents/smart_car/Seekfree_CH32V103R8T6_Opensource_Library/Libraries/seekfree_libraries/zf_pwm.c:115
            gpio_init(C7, GPO, 0, SPEED_50MHZ|OUT_AF_PP);
    23f6:	31800693          	li	a3,792
    23fa:	4601                	li	a2,0
    23fc:	4585                	li	a1,1
    23fe:	04700513          	li	a0,71
    2402:	3465                	jal	1eaa <gpio_init>
C:/Users/Accepted/Documents/smart_car/Seekfree_CH32V103R8T6_Opensource_Library/Libraries/seekfree_libraries/zf_pwm.c:116
            break;
    2404:	a049                	j	2486 <timer_pwm_gpio_init+0x326>
C:/Users/Accepted/Documents/smart_car/Seekfree_CH32V103R8T6_Opensource_Library/Libraries/seekfree_libraries/zf_pwm.c:118
            gpio_init(C8, GPO, 0, SPEED_50MHZ|OUT_AF_PP);
    2406:	31800693          	li	a3,792
    240a:	4601                	li	a2,0
    240c:	4585                	li	a1,1
    240e:	04800513          	li	a0,72
    2412:	3c61                	jal	1eaa <gpio_init>
C:/Users/Accepted/Documents/smart_car/Seekfree_CH32V103R8T6_Opensource_Library/Libraries/seekfree_libraries/zf_pwm.c:119
            break;
    2414:	a88d                	j	2486 <timer_pwm_gpio_init+0x326>
C:/Users/Accepted/Documents/smart_car/Seekfree_CH32V103R8T6_Opensource_Library/Libraries/seekfree_libraries/zf_pwm.c:121
            gpio_init(C9, GPO, 0, SPEED_50MHZ|OUT_AF_PP);
    2416:	31800693          	li	a3,792
    241a:	4601                	li	a2,0
    241c:	4585                	li	a1,1
    241e:	04900513          	li	a0,73
    2422:	3461                	jal	1eaa <gpio_init>
C:/Users/Accepted/Documents/smart_car/Seekfree_CH32V103R8T6_Opensource_Library/Libraries/seekfree_libraries/zf_pwm.c:122
            break;
    2424:	a08d                	j	2486 <timer_pwm_gpio_init+0x326>
C:/Users/Accepted/Documents/smart_car/Seekfree_CH32V103R8T6_Opensource_Library/Libraries/seekfree_libraries/zf_pwm.c:125
            gpio_init(B4, GPO, 0, SPEED_50MHZ|OUT_AF_PP);
    2426:	31800693          	li	a3,792
    242a:	4601                	li	a2,0
    242c:	4585                	li	a1,1
    242e:	02400513          	li	a0,36
    2432:	3ca5                	jal	1eaa <gpio_init>
C:/Users/Accepted/Documents/smart_car/Seekfree_CH32V103R8T6_Opensource_Library/Libraries/seekfree_libraries/zf_pwm.c:126
            break;
    2434:	a889                	j	2486 <timer_pwm_gpio_init+0x326>
C:/Users/Accepted/Documents/smart_car/Seekfree_CH32V103R8T6_Opensource_Library/Libraries/seekfree_libraries/zf_pwm.c:128
            gpio_init(B5, GPO, 0, SPEED_50MHZ|OUT_AF_PP);
    2436:	31800693          	li	a3,792
    243a:	4601                	li	a2,0
    243c:	4585                	li	a1,1
    243e:	02500513          	li	a0,37
    2442:	34a5                	jal	1eaa <gpio_init>
C:/Users/Accepted/Documents/smart_car/Seekfree_CH32V103R8T6_Opensource_Library/Libraries/seekfree_libraries/zf_pwm.c:129
            break;
    2444:	a089                	j	2486 <timer_pwm_gpio_init+0x326>
C:/Users/Accepted/Documents/smart_car/Seekfree_CH32V103R8T6_Opensource_Library/Libraries/seekfree_libraries/zf_pwm.c:132
            gpio_init(B6, GPO, 0, SPEED_50MHZ|OUT_AF_PP);
    2446:	31800693          	li	a3,792
    244a:	4601                	li	a2,0
    244c:	4585                	li	a1,1
    244e:	02600513          	li	a0,38
    2452:	3ca1                	jal	1eaa <gpio_init>
C:/Users/Accepted/Documents/smart_car/Seekfree_CH32V103R8T6_Opensource_Library/Libraries/seekfree_libraries/zf_pwm.c:133
            break;
    2454:	a80d                	j	2486 <timer_pwm_gpio_init+0x326>
C:/Users/Accepted/Documents/smart_car/Seekfree_CH32V103R8T6_Opensource_Library/Libraries/seekfree_libraries/zf_pwm.c:135
            gpio_init(B7, GPO, 0, SPEED_50MHZ|OUT_AF_PP);
    2456:	31800693          	li	a3,792
    245a:	4601                	li	a2,0
    245c:	4585                	li	a1,1
    245e:	02700513          	li	a0,39
    2462:	34a1                	jal	1eaa <gpio_init>
C:/Users/Accepted/Documents/smart_car/Seekfree_CH32V103R8T6_Opensource_Library/Libraries/seekfree_libraries/zf_pwm.c:136
            break;
    2464:	a00d                	j	2486 <timer_pwm_gpio_init+0x326>
C:/Users/Accepted/Documents/smart_car/Seekfree_CH32V103R8T6_Opensource_Library/Libraries/seekfree_libraries/zf_pwm.c:138
            gpio_init(B8, GPO, 0, SPEED_50MHZ|OUT_AF_PP);
    2466:	31800693          	li	a3,792
    246a:	4601                	li	a2,0
    246c:	4585                	li	a1,1
    246e:	02800513          	li	a0,40
    2472:	3c25                	jal	1eaa <gpio_init>
C:/Users/Accepted/Documents/smart_car/Seekfree_CH32V103R8T6_Opensource_Library/Libraries/seekfree_libraries/zf_pwm.c:139
            break;
    2474:	a809                	j	2486 <timer_pwm_gpio_init+0x326>
C:/Users/Accepted/Documents/smart_car/Seekfree_CH32V103R8T6_Opensource_Library/Libraries/seekfree_libraries/zf_pwm.c:141
            gpio_init(B9, GPO, 0, SPEED_50MHZ|OUT_AF_PP);
    2476:	31800693          	li	a3,792
    247a:	4601                	li	a2,0
    247c:	4585                	li	a1,1
    247e:	02900513          	li	a0,41
    2482:	3425                	jal	1eaa <gpio_init>
C:/Users/Accepted/Documents/smart_car/Seekfree_CH32V103R8T6_Opensource_Library/Libraries/seekfree_libraries/zf_pwm.c:142
            break;
    2484:	0001                	nop
C:/Users/Accepted/Documents/smart_car/Seekfree_CH32V103R8T6_Opensource_Library/Libraries/seekfree_libraries/zf_pwm.c:147
    }
}
    2486:	0001                	nop
    2488:	40f2                	lw	ra,28(sp)
    248a:	4462                	lw	s0,24(sp)
    248c:	6105                	addi	sp,sp,32
    248e:	8082                	ret

00002490 <timer_pwm_init>:
timer_pwm_init():
C:/Users/Accepted/Documents/smart_car/Seekfree_CH32V103R8T6_Opensource_Library/Libraries/seekfree_libraries/zf_pwm.c:165
//  @return     void
//  Sample usage:               pwm_init(PWM1_CH1_A8, 50, 5000);   //初始化PWM1 通道1 使用引脚A8  输出PWM频率50HZ   占空比为百分之 5000/PWM_DUTY_MAX*100
//                              PWM_DUTY_MAX在zf_pwm.h文件中 默认为10000
//-------------------------------------------------------------------------------------------------------------------
void timer_pwm_init(PWMCH_enum pwmch, uint32 freq, uint32 duty)
{
    2490:	7139                	addi	sp,sp,-64
    2492:	de06                	sw	ra,60(sp)
    2494:	dc22                	sw	s0,56(sp)
    2496:	0080                	addi	s0,sp,64
    2498:	fca42623          	sw	a0,-52(s0)
    249c:	fcb42423          	sw	a1,-56(s0)
    24a0:	fcc42223          	sw	a2,-60(s0)
C:/Users/Accepted/Documents/smart_car/Seekfree_CH32V103R8T6_Opensource_Library/Libraries/seekfree_libraries/zf_pwm.c:170
    TIM_TimeBaseInitTypeDef  TIM_TimeBaseStructure;
    TIM_OCInitTypeDef  TIM_OCInitStructure;
    uint16 match_temp;                                          //占空比值
    uint16 period_temp;                                         //周期值
    uint16 freq_div = 0;                                        //分频值
    24a4:	fe041723          	sh	zero,-18(s0)
C:/Users/Accepted/Documents/smart_car/Seekfree_CH32V103R8T6_Opensource_Library/Libraries/seekfree_libraries/zf_pwm.c:172

    timer_pwm_gpio_init(pwmch);                                       //PWM引脚初始化
    24a8:	fcc42503          	lw	a0,-52(s0)
    24ac:	3955                	jal	2160 <timer_pwm_gpio_init>
C:/Users/Accepted/Documents/smart_car/Seekfree_CH32V103R8T6_Opensource_Library/Libraries/seekfree_libraries/zf_pwm.c:174

    if((pwmch >> 8) == 0x00)
    24ae:	fcc42783          	lw	a5,-52(s0)
    24b2:	83a1                	srli	a5,a5,0x8
    24b4:	eb81                	bnez	a5,24c4 <timer_pwm_init+0x34>
C:/Users/Accepted/Documents/smart_car/Seekfree_CH32V103R8T6_Opensource_Library/Libraries/seekfree_libraries/zf_pwm.c:175
        RCC_APB2PeriphClockCmd(RCC_APB2Periph_TIM1, ENABLE);    //使能定时器1时钟
    24b6:	4585                	li	a1,1
    24b8:	6785                	lui	a5,0x1
    24ba:	80078513          	addi	a0,a5,-2048 # 800 <__stack_size>
    24be:	cbcfe0ef          	jal	ra,97a <RCC_APB2PeriphClockCmd>
    24c2:	a0a1                	j	250a <timer_pwm_init+0x7a>
C:/Users/Accepted/Documents/smart_car/Seekfree_CH32V103R8T6_Opensource_Library/Libraries/seekfree_libraries/zf_pwm.c:176
    else if((pwmch >> 8) == 0x01)
    24c4:	fcc42783          	lw	a5,-52(s0)
    24c8:	0087d713          	srli	a4,a5,0x8
    24cc:	4785                	li	a5,1
    24ce:	00f71763          	bne	a4,a5,24dc <timer_pwm_init+0x4c>
C:/Users/Accepted/Documents/smart_car/Seekfree_CH32V103R8T6_Opensource_Library/Libraries/seekfree_libraries/zf_pwm.c:177
        RCC_APB1PeriphClockCmd(RCC_APB1Periph_TIM2, ENABLE);    //使能定时器2时钟
    24d2:	4585                	li	a1,1
    24d4:	4505                	li	a0,1
    24d6:	ceafe0ef          	jal	ra,9c0 <RCC_APB1PeriphClockCmd>
    24da:	a805                	j	250a <timer_pwm_init+0x7a>
C:/Users/Accepted/Documents/smart_car/Seekfree_CH32V103R8T6_Opensource_Library/Libraries/seekfree_libraries/zf_pwm.c:178
    else if((pwmch >> 8) == 0x02)
    24dc:	fcc42783          	lw	a5,-52(s0)
    24e0:	0087d713          	srli	a4,a5,0x8
    24e4:	4789                	li	a5,2
    24e6:	00f71763          	bne	a4,a5,24f4 <timer_pwm_init+0x64>
C:/Users/Accepted/Documents/smart_car/Seekfree_CH32V103R8T6_Opensource_Library/Libraries/seekfree_libraries/zf_pwm.c:179
        RCC_APB1PeriphClockCmd(RCC_APB1Periph_TIM3, ENABLE);    //使能定时器3时钟
    24ea:	4585                	li	a1,1
    24ec:	4509                	li	a0,2
    24ee:	cd2fe0ef          	jal	ra,9c0 <RCC_APB1PeriphClockCmd>
    24f2:	a821                	j	250a <timer_pwm_init+0x7a>
C:/Users/Accepted/Documents/smart_car/Seekfree_CH32V103R8T6_Opensource_Library/Libraries/seekfree_libraries/zf_pwm.c:180
    else if((pwmch >> 8) == 0x03)
    24f4:	fcc42783          	lw	a5,-52(s0)
    24f8:	0087d713          	srli	a4,a5,0x8
    24fc:	478d                	li	a5,3
    24fe:	00f71663          	bne	a4,a5,250a <timer_pwm_init+0x7a>
C:/Users/Accepted/Documents/smart_car/Seekfree_CH32V103R8T6_Opensource_Library/Libraries/seekfree_libraries/zf_pwm.c:181
        RCC_APB1PeriphClockCmd(RCC_APB1Periph_TIM4, ENABLE);    //使能定时器4时钟
    2502:	4585                	li	a1,1
    2504:	4511                	li	a0,4
    2506:	cbafe0ef          	jal	ra,9c0 <RCC_APB1PeriphClockCmd>
C:/Users/Accepted/Documents/smart_car/Seekfree_CH32V103R8T6_Opensource_Library/Libraries/seekfree_libraries/zf_pwm.c:183

    RCC_APB2PeriphClockCmd(RCC_APB2Periph_AFIO, ENABLE);        //使能AFIO复用功能模块时钟
    250a:	4585                	li	a1,1
    250c:	4505                	li	a0,1
    250e:	c6cfe0ef          	jal	ra,97a <RCC_APB2PeriphClockCmd>
C:/Users/Accepted/Documents/smart_car/Seekfree_CH32V103R8T6_Opensource_Library/Libraries/seekfree_libraries/zf_pwm.c:186

    //引脚重映射
    if((pwmch >> 4) == 0x10)        //PWM1的部分重映射
    2512:	fcc42783          	lw	a5,-52(s0)
    2516:	0047d713          	srli	a4,a5,0x4
    251a:	47c1                	li	a5,16
    251c:	00f71a63          	bne	a4,a5,2530 <timer_pwm_init+0xa0>
C:/Users/Accepted/Documents/smart_car/Seekfree_CH32V103R8T6_Opensource_Library/Libraries/seekfree_libraries/zf_pwm.c:187
        GPIO_PinRemapConfig(GPIO_PartialRemap_TIM1, ENABLE);
    2520:	4585                	li	a1,1
    2522:	001607b7          	lui	a5,0x160
    2526:	04078513          	addi	a0,a5,64 # 160040 <_data_lma+0x15be64>
    252a:	8fafe0ef          	jal	ra,624 <GPIO_PinRemapConfig>
    252e:	a8b9                	j	258c <timer_pwm_init+0xfc>
C:/Users/Accepted/Documents/smart_car/Seekfree_CH32V103R8T6_Opensource_Library/Libraries/seekfree_libraries/zf_pwm.c:188
    else if((pwmch >> 4) == 0x11)   //PWM2的完全重映射
    2530:	fcc42783          	lw	a5,-52(s0)
    2534:	0047d713          	srli	a4,a5,0x4
    2538:	47c5                	li	a5,17
    253a:	00f71a63          	bne	a4,a5,254e <timer_pwm_init+0xbe>
C:/Users/Accepted/Documents/smart_car/Seekfree_CH32V103R8T6_Opensource_Library/Libraries/seekfree_libraries/zf_pwm.c:189
        GPIO_PinRemapConfig(GPIO_FullRemap_TIM2, ENABLE);
    253e:	4585                	li	a1,1
    2540:	001807b7          	lui	a5,0x180
    2544:	30078513          	addi	a0,a5,768 # 180300 <_data_lma+0x17c124>
    2548:	8dcfe0ef          	jal	ra,624 <GPIO_PinRemapConfig>
    254c:	a081                	j	258c <timer_pwm_init+0xfc>
C:/Users/Accepted/Documents/smart_car/Seekfree_CH32V103R8T6_Opensource_Library/Libraries/seekfree_libraries/zf_pwm.c:190
    else if((pwmch >> 4) == 0x21)   //PWM3的完全重映射
    254e:	fcc42783          	lw	a5,-52(s0)
    2552:	0047d713          	srli	a4,a5,0x4
    2556:	02100793          	li	a5,33
    255a:	00f71a63          	bne	a4,a5,256e <timer_pwm_init+0xde>
C:/Users/Accepted/Documents/smart_car/Seekfree_CH32V103R8T6_Opensource_Library/Libraries/seekfree_libraries/zf_pwm.c:191
        GPIO_PinRemapConfig(GPIO_FullRemap_TIM3, ENABLE);
    255e:	4585                	li	a1,1
    2560:	001a17b7          	lui	a5,0x1a1
    2564:	c0078513          	addi	a0,a5,-1024 # 1a0c00 <_data_lma+0x19ca24>
    2568:	8bcfe0ef          	jal	ra,624 <GPIO_PinRemapConfig>
    256c:	a005                	j	258c <timer_pwm_init+0xfc>
C:/Users/Accepted/Documents/smart_car/Seekfree_CH32V103R8T6_Opensource_Library/Libraries/seekfree_libraries/zf_pwm.c:192
    else if((pwmch >> 4) == 0x22)   //PWM3的部分重映射
    256e:	fcc42783          	lw	a5,-52(s0)
    2572:	0047d713          	srli	a4,a5,0x4
    2576:	02200793          	li	a5,34
    257a:	00f71963          	bne	a4,a5,258c <timer_pwm_init+0xfc>
C:/Users/Accepted/Documents/smart_car/Seekfree_CH32V103R8T6_Opensource_Library/Libraries/seekfree_libraries/zf_pwm.c:193
        GPIO_PinRemapConfig(GPIO_PartialRemap_TIM3, ENABLE);
    257e:	4585                	li	a1,1
    2580:	001a17b7          	lui	a5,0x1a1
    2584:	80078513          	addi	a0,a5,-2048 # 1a0800 <_data_lma+0x19c624>
    2588:	89cfe0ef          	jal	ra,624 <GPIO_PinRemapConfig>
C:/Users/Accepted/Documents/smart_car/Seekfree_CH32V103R8T6_Opensource_Library/Libraries/seekfree_libraries/zf_pwm.c:196

    //获取系统主频
    sys_clk = 8000000 * (((RCC->CFGR0 >> 18)&0x0F) + 2);
    258c:	400217b7          	lui	a5,0x40021
    2590:	43dc                	lw	a5,4(a5)
    2592:	83c9                	srli	a5,a5,0x12
    2594:	00f7f713          	andi	a4,a5,15
    2598:	007a17b7          	lui	a5,0x7a1
    259c:	20078793          	addi	a5,a5,512 # 7a1200 <_data_lma+0x79d024>
    25a0:	02f70733          	mul	a4,a4,a5
    25a4:	00f427b7          	lui	a5,0xf42
    25a8:	40078793          	addi	a5,a5,1024 # f42400 <_data_lma+0xf3e224>
    25ac:	973e                	add	a4,a4,a5
    25ae:	82e1a423          	sw	a4,-2008(gp) # 20000038 <sys_clk>
C:/Users/Accepted/Documents/smart_car/Seekfree_CH32V103R8T6_Opensource_Library/Libraries/seekfree_libraries/zf_pwm.c:198

    freq_div = (uint16)((sys_clk / freq) >> 16);                            //多少分频
    25b2:	8281a703          	lw	a4,-2008(gp) # 20000038 <sys_clk>
    25b6:	fc842783          	lw	a5,-56(s0)
    25ba:	02f757b3          	divu	a5,a4,a5
    25be:	83c1                	srli	a5,a5,0x10
    25c0:	fef41723          	sh	a5,-18(s0)
C:/Users/Accepted/Documents/smart_car/Seekfree_CH32V103R8T6_Opensource_Library/Libraries/seekfree_libraries/zf_pwm.c:199
    period_temp = (uint16)(sys_clk/(freq*(freq_div + 1)));                  //周期
    25c4:	8281a703          	lw	a4,-2008(gp) # 20000038 <sys_clk>
    25c8:	fee45783          	lhu	a5,-18(s0)
    25cc:	0785                	addi	a5,a5,1
    25ce:	86be                	mv	a3,a5
    25d0:	fc842783          	lw	a5,-56(s0)
    25d4:	02f687b3          	mul	a5,a3,a5
    25d8:	02f757b3          	divu	a5,a4,a5
    25dc:	fef41623          	sh	a5,-20(s0)
C:/Users/Accepted/Documents/smart_car/Seekfree_CH32V103R8T6_Opensource_Library/Libraries/seekfree_libraries/zf_pwm.c:200
    match_temp = period_temp * duty / PWM_DUTY_MAX;                         //占空比
    25e0:	fec45703          	lhu	a4,-20(s0)
    25e4:	fc442783          	lw	a5,-60(s0)
    25e8:	02f70733          	mul	a4,a4,a5
    25ec:	6789                	lui	a5,0x2
    25ee:	71078793          	addi	a5,a5,1808 # 2710 <timer_pwm_init+0x280>
    25f2:	02f757b3          	divu	a5,a4,a5
    25f6:	fef41523          	sh	a5,-22(s0)
C:/Users/Accepted/Documents/smart_car/Seekfree_CH32V103R8T6_Opensource_Library/Libraries/seekfree_libraries/zf_pwm.c:203

    //初始化TIM1-4
    TIM_TimeBaseStructure.TIM_Period = period_temp - 1;                     //设置在下一个更新事件装入活动的自动重装载寄存器周期的值
    25fa:	fec45783          	lhu	a5,-20(s0)
    25fe:	17fd                	addi	a5,a5,-1
    2600:	07c2                	slli	a5,a5,0x10
    2602:	83c1                	srli	a5,a5,0x10
    2604:	fef41223          	sh	a5,-28(s0)
C:/Users/Accepted/Documents/smart_car/Seekfree_CH32V103R8T6_Opensource_Library/Libraries/seekfree_libraries/zf_pwm.c:204
    TIM_TimeBaseStructure.TIM_Prescaler = freq_div;                         //设置用来作为TIMx时钟频率除数的预分频值
    2608:	fee45783          	lhu	a5,-18(s0)
    260c:	fef41023          	sh	a5,-32(s0)
C:/Users/Accepted/Documents/smart_car/Seekfree_CH32V103R8T6_Opensource_Library/Libraries/seekfree_libraries/zf_pwm.c:205
    TIM_TimeBaseStructure.TIM_ClockDivision = TIM_CKD_DIV1;                 //设置时钟分割:TDTS = Tck_tim
    2610:	fe041323          	sh	zero,-26(s0)
C:/Users/Accepted/Documents/smart_car/Seekfree_CH32V103R8T6_Opensource_Library/Libraries/seekfree_libraries/zf_pwm.c:206
    TIM_TimeBaseStructure.TIM_CounterMode = TIM_CounterMode_Up;             //TIM向上计数模式
    2614:	fe041123          	sh	zero,-30(s0)
C:/Users/Accepted/Documents/smart_car/Seekfree_CH32V103R8T6_Opensource_Library/Libraries/seekfree_libraries/zf_pwm.c:207
    TIM_TimeBaseStructure.TIM_RepetitionCounter = 0;
    2618:	fe040423          	sb	zero,-24(s0)
C:/Users/Accepted/Documents/smart_car/Seekfree_CH32V103R8T6_Opensource_Library/Libraries/seekfree_libraries/zf_pwm.c:210

    //初始化TIM1-4 PWM模式
    TIM_OCInitStructure.TIM_OCMode = TIM_OCMode_PWM2;                       //选择定时器模式:TIM脉冲宽度调制模式2
    261c:	07000793          	li	a5,112
    2620:	fcf41823          	sh	a5,-48(s0)
C:/Users/Accepted/Documents/smart_car/Seekfree_CH32V103R8T6_Opensource_Library/Libraries/seekfree_libraries/zf_pwm.c:211
    TIM_OCInitStructure.TIM_OutputState = TIM_OutputState_Enable;           //比较输出使能
    2624:	4785                	li	a5,1
    2626:	fcf41923          	sh	a5,-46(s0)
C:/Users/Accepted/Documents/smart_car/Seekfree_CH32V103R8T6_Opensource_Library/Libraries/seekfree_libraries/zf_pwm.c:212
    TIM_OCInitStructure.TIM_OutputNState = TIM_OutputState_Disable;
    262a:	fc041a23          	sh	zero,-44(s0)
C:/Users/Accepted/Documents/smart_car/Seekfree_CH32V103R8T6_Opensource_Library/Libraries/seekfree_libraries/zf_pwm.c:213
    TIM_OCInitStructure.TIM_Pulse = match_temp;
    262e:	fea45783          	lhu	a5,-22(s0)
    2632:	fcf41b23          	sh	a5,-42(s0)
C:/Users/Accepted/Documents/smart_car/Seekfree_CH32V103R8T6_Opensource_Library/Libraries/seekfree_libraries/zf_pwm.c:214
    TIM_OCInitStructure.TIM_OCPolarity = TIM_OCPolarity_Low;                //输出极性:TIM输出比较极性高
    2636:	4789                	li	a5,2
    2638:	fcf41c23          	sh	a5,-40(s0)
C:/Users/Accepted/Documents/smart_car/Seekfree_CH32V103R8T6_Opensource_Library/Libraries/seekfree_libraries/zf_pwm.c:215
    TIM_OCInitStructure.TIM_OCNPolarity = TIM_OCPolarity_Low;               //输出极性:TIM输出比较极性高
    263c:	4789                	li	a5,2
    263e:	fcf41d23          	sh	a5,-38(s0)
C:/Users/Accepted/Documents/smart_car/Seekfree_CH32V103R8T6_Opensource_Library/Libraries/seekfree_libraries/zf_pwm.c:216
    TIM_OCInitStructure.TIM_OCIdleState = TIM_OCIdleState_Reset;
    2642:	fc041e23          	sh	zero,-36(s0)
C:/Users/Accepted/Documents/smart_car/Seekfree_CH32V103R8T6_Opensource_Library/Libraries/seekfree_libraries/zf_pwm.c:217
    TIM_OCInitStructure.TIM_OCNIdleState = TIM_OCIdleState_Reset;
    2646:	fc041f23          	sh	zero,-34(s0)
C:/Users/Accepted/Documents/smart_car/Seekfree_CH32V103R8T6_Opensource_Library/Libraries/seekfree_libraries/zf_pwm.c:219

    TIM_TimeBaseInit(((TIM_TypeDef *) TIMERN[pwmch>>8]), &TIM_TimeBaseStructure);  //根据TIM_TimeBaseInitStruct中指定的参数初始化TIMx的时间基数单位
    264a:	fcc42783          	lw	a5,-52(s0)
    264e:	0087d713          	srli	a4,a5,0x8
    2652:	6791                	lui	a5,0x4
    2654:	070a                	slli	a4,a4,0x2
    2656:	04478793          	addi	a5,a5,68 # 4044 <TIMERN>
    265a:	97ba                	add	a5,a5,a4
    265c:	439c                	lw	a5,0(a5)
    265e:	873e                	mv	a4,a5
    2660:	fe040793          	addi	a5,s0,-32
    2664:	85be                	mv	a1,a5
    2666:	853a                	mv	a0,a4
    2668:	be4fe0ef          	jal	ra,a4c <TIM_TimeBaseInit>
C:/Users/Accepted/Documents/smart_car/Seekfree_CH32V103R8T6_Opensource_Library/Libraries/seekfree_libraries/zf_pwm.c:225
//        if(PWM1_CH1N_B13 <= pwmch)                                         //该通道为N通道
//        {
//            TIM_OCInitStructure.TIM_OutputState = TIM_OutputState_Enable;   //P通道
//            TIM_OCInitStructure.TIM_OutputNState = TIM_OutputState_Enable;  //N通道
//        }
    if((pwmch & 0x03) == 0x00)                                          //通道选择
    266c:	fcc42783          	lw	a5,-52(s0)
    2670:	8b8d                	andi	a5,a5,3
    2672:	efb9                	bnez	a5,26d0 <timer_pwm_init+0x240>
C:/Users/Accepted/Documents/smart_car/Seekfree_CH32V103R8T6_Opensource_Library/Libraries/seekfree_libraries/zf_pwm.c:227
    {
        TIM_OC1Init(((TIM_TypeDef *) TIMERN[pwmch>>8]), &TIM_OCInitStructure );                       //定时器通道1初始化
    2674:	fcc42783          	lw	a5,-52(s0)
    2678:	0087d713          	srli	a4,a5,0x8
    267c:	6791                	lui	a5,0x4
    267e:	070a                	slli	a4,a4,0x2
    2680:	04478793          	addi	a5,a5,68 # 4044 <TIMERN>
    2684:	97ba                	add	a5,a5,a4
    2686:	439c                	lw	a5,0(a5)
    2688:	873e                	mv	a4,a5
    268a:	fd040793          	addi	a5,s0,-48
    268e:	85be                	mv	a1,a5
    2690:	853a                	mv	a0,a4
    2692:	cb4fe0ef          	jal	ra,b46 <TIM_OC1Init>
C:/Users/Accepted/Documents/smart_car/Seekfree_CH32V103R8T6_Opensource_Library/Libraries/seekfree_libraries/zf_pwm.c:228
        TIM_OC1PreloadConfig(((TIM_TypeDef *) TIMERN[pwmch>>8]), TIM_OCPreload_Enable);               //定时器预装载配置
    2696:	fcc42783          	lw	a5,-52(s0)
    269a:	0087d713          	srli	a4,a5,0x8
    269e:	6791                	lui	a5,0x4
    26a0:	070a                	slli	a4,a4,0x2
    26a2:	04478793          	addi	a5,a5,68 # 4044 <TIMERN>
    26a6:	97ba                	add	a5,a5,a4
    26a8:	439c                	lw	a5,0(a5)
    26aa:	45a1                	li	a1,8
    26ac:	853e                	mv	a0,a5
    26ae:	c51fe0ef          	jal	ra,12fe <TIM_OC1PreloadConfig>
C:/Users/Accepted/Documents/smart_car/Seekfree_CH32V103R8T6_Opensource_Library/Libraries/seekfree_libraries/zf_pwm.c:229
        TIM_OC1FastConfig(((TIM_TypeDef *) TIMERN[pwmch>>8]), TIM_OC1FE);                             //比较捕获通道快速使能
    26b2:	fcc42783          	lw	a5,-52(s0)
    26b6:	0087d713          	srli	a4,a5,0x8
    26ba:	6791                	lui	a5,0x4
    26bc:	070a                	slli	a4,a4,0x2
    26be:	04478793          	addi	a5,a5,68 # 4044 <TIMERN>
    26c2:	97ba                	add	a5,a5,a4
    26c4:	439c                	lw	a5,0(a5)
    26c6:	4591                	li	a1,4
    26c8:	853e                	mv	a0,a5
    26ca:	d81fe0ef          	jal	ra,144a <TIM_OC1FastConfig>
    26ce:	a289                	j	2810 <timer_pwm_init+0x380>
C:/Users/Accepted/Documents/smart_car/Seekfree_CH32V103R8T6_Opensource_Library/Libraries/seekfree_libraries/zf_pwm.c:231
    }
    else if((pwmch & 0x03) == 0x01)
    26d0:	fcc42783          	lw	a5,-52(s0)
    26d4:	0037f713          	andi	a4,a5,3
    26d8:	4785                	li	a5,1
    26da:	06f71163          	bne	a4,a5,273c <timer_pwm_init+0x2ac>
C:/Users/Accepted/Documents/smart_car/Seekfree_CH32V103R8T6_Opensource_Library/Libraries/seekfree_libraries/zf_pwm.c:233
    {
        TIM_OC2Init(((TIM_TypeDef *) TIMERN[pwmch>>8]), &TIM_OCInitStructure );
    26de:	fcc42783          	lw	a5,-52(s0)
    26e2:	0087d713          	srli	a4,a5,0x8
    26e6:	6791                	lui	a5,0x4
    26e8:	070a                	slli	a4,a4,0x2
    26ea:	04478793          	addi	a5,a5,68 # 4044 <TIMERN>
    26ee:	97ba                	add	a5,a5,a4
    26f0:	439c                	lw	a5,0(a5)
    26f2:	873e                	mv	a4,a5
    26f4:	fd040793          	addi	a5,s0,-48
    26f8:	85be                	mv	a1,a5
    26fa:	853a                	mv	a0,a4
    26fc:	dbafe0ef          	jal	ra,cb6 <TIM_OC2Init>
C:/Users/Accepted/Documents/smart_car/Seekfree_CH32V103R8T6_Opensource_Library/Libraries/seekfree_libraries/zf_pwm.c:234
        TIM_OC2PreloadConfig(((TIM_TypeDef *) TIMERN[pwmch>>8]), TIM_OCPreload_Enable);
    2700:	fcc42783          	lw	a5,-52(s0)
    2704:	0087d713          	srli	a4,a5,0x8
    2708:	6791                	lui	a5,0x4
    270a:	070a                	slli	a4,a4,0x2
    270c:	04478793          	addi	a5,a5,68 # 4044 <TIMERN>
    2710:	97ba                	add	a5,a5,a4
    2712:	439c                	lw	a5,0(a5)
    2714:	45a1                	li	a1,8
    2716:	853e                	mv	a0,a5
    2718:	c33fe0ef          	jal	ra,134a <TIM_OC2PreloadConfig>
C:/Users/Accepted/Documents/smart_car/Seekfree_CH32V103R8T6_Opensource_Library/Libraries/seekfree_libraries/zf_pwm.c:235
        TIM_OC2FastConfig(((TIM_TypeDef *) TIMERN[pwmch>>8]), TIM_OC2FE);                             //比较捕获通道快速使能
    271c:	fcc42783          	lw	a5,-52(s0)
    2720:	0087d713          	srli	a4,a5,0x8
    2724:	6791                	lui	a5,0x4
    2726:	070a                	slli	a4,a4,0x2
    2728:	04478793          	addi	a5,a5,68 # 4044 <TIMERN>
    272c:	97ba                	add	a5,a5,a4
    272e:	439c                	lw	a5,0(a5)
    2730:	40000593          	li	a1,1024
    2734:	853e                	mv	a0,a5
    2736:	d61fe0ef          	jal	ra,1496 <TIM_OC2FastConfig>
    273a:	a8d9                	j	2810 <timer_pwm_init+0x380>
C:/Users/Accepted/Documents/smart_car/Seekfree_CH32V103R8T6_Opensource_Library/Libraries/seekfree_libraries/zf_pwm.c:237
    }
    else if((pwmch & 0x03) == 0x02)
    273c:	fcc42783          	lw	a5,-52(s0)
    2740:	0037f713          	andi	a4,a5,3
    2744:	4789                	li	a5,2
    2746:	06f71063          	bne	a4,a5,27a6 <timer_pwm_init+0x316>
C:/Users/Accepted/Documents/smart_car/Seekfree_CH32V103R8T6_Opensource_Library/Libraries/seekfree_libraries/zf_pwm.c:239
    {
        TIM_OC3Init(((TIM_TypeDef *) TIMERN[pwmch>>8]), &TIM_OCInitStructure );
    274a:	fcc42783          	lw	a5,-52(s0)
    274e:	0087d713          	srli	a4,a5,0x8
    2752:	6791                	lui	a5,0x4
    2754:	070a                	slli	a4,a4,0x2
    2756:	04478793          	addi	a5,a5,68 # 4044 <TIMERN>
    275a:	97ba                	add	a5,a5,a4
    275c:	439c                	lw	a5,0(a5)
    275e:	873e                	mv	a4,a5
    2760:	fd040793          	addi	a5,s0,-48
    2764:	85be                	mv	a1,a5
    2766:	853a                	mv	a0,a4
    2768:	f04fe0ef          	jal	ra,e6c <TIM_OC3Init>
C:/Users/Accepted/Documents/smart_car/Seekfree_CH32V103R8T6_Opensource_Library/Libraries/seekfree_libraries/zf_pwm.c:240
        TIM_OC3PreloadConfig(((TIM_TypeDef *) TIMERN[pwmch>>8]), TIM_OCPreload_Enable);
    276c:	fcc42783          	lw	a5,-52(s0)
    2770:	0087d713          	srli	a4,a5,0x8
    2774:	6791                	lui	a5,0x4
    2776:	070a                	slli	a4,a4,0x2
    2778:	04478793          	addi	a5,a5,68 # 4044 <TIMERN>
    277c:	97ba                	add	a5,a5,a4
    277e:	439c                	lw	a5,0(a5)
    2780:	45a1                	li	a1,8
    2782:	853e                	mv	a0,a5
    2784:	c21fe0ef          	jal	ra,13a4 <TIM_OC3PreloadConfig>
C:/Users/Accepted/Documents/smart_car/Seekfree_CH32V103R8T6_Opensource_Library/Libraries/seekfree_libraries/zf_pwm.c:241
        TIM_OC3FastConfig(((TIM_TypeDef *) TIMERN[pwmch>>8]), TIM_OC3FE);                             //比较捕获通道快速使能
    2788:	fcc42783          	lw	a5,-52(s0)
    278c:	0087d713          	srli	a4,a5,0x8
    2790:	6791                	lui	a5,0x4
    2792:	070a                	slli	a4,a4,0x2
    2794:	04478793          	addi	a5,a5,68 # 4044 <TIMERN>
    2798:	97ba                	add	a5,a5,a4
    279a:	439c                	lw	a5,0(a5)
    279c:	4591                	li	a1,4
    279e:	853e                	mv	a0,a5
    27a0:	d4dfe0ef          	jal	ra,14ec <TIM_OC3FastConfig>
    27a4:	a0b5                	j	2810 <timer_pwm_init+0x380>
C:/Users/Accepted/Documents/smart_car/Seekfree_CH32V103R8T6_Opensource_Library/Libraries/seekfree_libraries/zf_pwm.c:243
    }
    else if((pwmch & 0x03) == 0x03)
    27a6:	fcc42783          	lw	a5,-52(s0)
    27aa:	0037f713          	andi	a4,a5,3
    27ae:	478d                	li	a5,3
    27b0:	06f71063          	bne	a4,a5,2810 <timer_pwm_init+0x380>
C:/Users/Accepted/Documents/smart_car/Seekfree_CH32V103R8T6_Opensource_Library/Libraries/seekfree_libraries/zf_pwm.c:245
    {
        TIM_OC4Init(((TIM_TypeDef *) TIMERN[pwmch>>8]), &TIM_OCInitStructure );
    27b4:	fcc42783          	lw	a5,-52(s0)
    27b8:	0087d713          	srli	a4,a5,0x8
    27bc:	6791                	lui	a5,0x4
    27be:	070a                	slli	a4,a4,0x2
    27c0:	04478793          	addi	a5,a5,68 # 4044 <TIMERN>
    27c4:	97ba                	add	a5,a5,a4
    27c6:	439c                	lw	a5,0(a5)
    27c8:	873e                	mv	a4,a5
    27ca:	fd040793          	addi	a5,s0,-48
    27ce:	85be                	mv	a1,a5
    27d0:	853a                	mv	a0,a4
    27d2:	84bfe0ef          	jal	ra,101c <TIM_OC4Init>
C:/Users/Accepted/Documents/smart_car/Seekfree_CH32V103R8T6_Opensource_Library/Libraries/seekfree_libraries/zf_pwm.c:246
        TIM_OC4PreloadConfig(((TIM_TypeDef *) TIMERN[pwmch>>8]), TIM_OCPreload_Enable);
    27d6:	fcc42783          	lw	a5,-52(s0)
    27da:	0087d713          	srli	a4,a5,0x8
    27de:	6791                	lui	a5,0x4
    27e0:	070a                	slli	a4,a4,0x2
    27e2:	04478793          	addi	a5,a5,68 # 4044 <TIMERN>
    27e6:	97ba                	add	a5,a5,a4
    27e8:	439c                	lw	a5,0(a5)
    27ea:	45a1                	li	a1,8
    27ec:	853e                	mv	a0,a5
    27ee:	c03fe0ef          	jal	ra,13f0 <TIM_OC4PreloadConfig>
C:/Users/Accepted/Documents/smart_car/Seekfree_CH32V103R8T6_Opensource_Library/Libraries/seekfree_libraries/zf_pwm.c:247
        TIM_OC4FastConfig(((TIM_TypeDef *) TIMERN[pwmch>>8]), TIM_OC4FE);                             //比较捕获通道快速使能
    27f2:	fcc42783          	lw	a5,-52(s0)
    27f6:	0087d713          	srli	a4,a5,0x8
    27fa:	6791                	lui	a5,0x4
    27fc:	070a                	slli	a4,a4,0x2
    27fe:	04478793          	addi	a5,a5,68 # 4044 <TIMERN>
    2802:	97ba                	add	a5,a5,a4
    2804:	439c                	lw	a5,0(a5)
    2806:	40000593          	li	a1,1024
    280a:	853e                	mv	a0,a5
    280c:	d2dfe0ef          	jal	ra,1538 <TIM_OC4FastConfig>
C:/Users/Accepted/Documents/smart_car/Seekfree_CH32V103R8T6_Opensource_Library/Libraries/seekfree_libraries/zf_pwm.c:249
    }
    TIM_Cmd(((TIM_TypeDef *) TIMERN[pwmch>>8]), ENABLE);                                              //定时器使能
    2810:	fcc42783          	lw	a5,-52(s0)
    2814:	0087d713          	srli	a4,a5,0x8
    2818:	6791                	lui	a5,0x4
    281a:	070a                	slli	a4,a4,0x2
    281c:	04478793          	addi	a5,a5,68 # 4044 <TIMERN>
    2820:	97ba                	add	a5,a5,a4
    2822:	439c                	lw	a5,0(a5)
    2824:	4585                	li	a1,1
    2826:	853e                	mv	a0,a5
    2828:	9c5fe0ef          	jal	ra,11ec <TIM_Cmd>
C:/Users/Accepted/Documents/smart_car/Seekfree_CH32V103R8T6_Opensource_Library/Libraries/seekfree_libraries/zf_pwm.c:250
    TIM_CtrlPWMOutputs(((TIM_TypeDef *) TIMERN[pwmch>>8]), ENABLE );
    282c:	fcc42783          	lw	a5,-52(s0)
    2830:	0087d713          	srli	a4,a5,0x8
    2834:	6791                	lui	a5,0x4
    2836:	070a                	slli	a4,a4,0x2
    2838:	04478793          	addi	a5,a5,68 # 4044 <TIMERN>
    283c:	97ba                	add	a5,a5,a4
    283e:	439c                	lw	a5,0(a5)
    2840:	4585                	li	a1,1
    2842:	853e                	mv	a0,a5
    2844:	a01fe0ef          	jal	ra,1244 <TIM_CtrlPWMOutputs>
C:/Users/Accepted/Documents/smart_car/Seekfree_CH32V103R8T6_Opensource_Library/Libraries/seekfree_libraries/zf_pwm.c:252
    //TIM_ARRPreloadConfig( TIM1, ENABLE );
}
    2848:	0001                	nop
    284a:	50f2                	lw	ra,60(sp)
    284c:	5462                	lw	s0,56(sp)
    284e:	6121                	addi	sp,sp,64
    2850:	8082                	ret

00002852 <systick_delay>:
systick_delay():
C:/Users/Accepted/Documents/smart_car/Seekfree_CH32V103R8T6_Opensource_Library/Libraries/seekfree_libraries/zf_systick.c:29
//  @param      time                us
//  @return     void
//  Sample usage:                   内部使用，用户无需关心
//-------------------------------------------------------------------------------------------------------------------
void systick_delay(uint64 time)
{
    2852:	1101                	addi	sp,sp,-32
    2854:	ce22                	sw	s0,28(sp)
    2856:	1000                	addi	s0,sp,32
    2858:	fea42423          	sw	a0,-24(s0)
    285c:	feb42623          	sw	a1,-20(s0)
C:/Users/Accepted/Documents/smart_car/Seekfree_CH32V103R8T6_Opensource_Library/Libraries/seekfree_libraries/zf_systick.c:30
    SysTick->CTLR = 0;
    2860:	e000f737          	lui	a4,0xe000f
    2864:	00072023          	sw	zero,0(a4) # e000f000 <_eusrstack+0xc000a000>
C:/Users/Accepted/Documents/smart_car/Seekfree_CH32V103R8T6_Opensource_Library/Libraries/seekfree_libraries/zf_systick.c:31
    SysTick->CNTL0 = 0;
    2868:	e000f737          	lui	a4,0xe000f
    286c:	00070223          	sb	zero,4(a4) # e000f004 <_eusrstack+0xc000a004>
C:/Users/Accepted/Documents/smart_car/Seekfree_CH32V103R8T6_Opensource_Library/Libraries/seekfree_libraries/zf_systick.c:32
    SysTick->CNTL1 = 0;
    2870:	e000f737          	lui	a4,0xe000f
    2874:	000702a3          	sb	zero,5(a4) # e000f005 <_eusrstack+0xc000a005>
C:/Users/Accepted/Documents/smart_car/Seekfree_CH32V103R8T6_Opensource_Library/Libraries/seekfree_libraries/zf_systick.c:33
    SysTick->CNTL2 = 0;
    2878:	e000f737          	lui	a4,0xe000f
    287c:	00070323          	sb	zero,6(a4) # e000f006 <_eusrstack+0xc000a006>
C:/Users/Accepted/Documents/smart_car/Seekfree_CH32V103R8T6_Opensource_Library/Libraries/seekfree_libraries/zf_systick.c:34
    SysTick->CNTL3 = 0;
    2880:	e000f737          	lui	a4,0xe000f
    2884:	000703a3          	sb	zero,7(a4) # e000f007 <_eusrstack+0xc000a007>
C:/Users/Accepted/Documents/smart_car/Seekfree_CH32V103R8T6_Opensource_Library/Libraries/seekfree_libraries/zf_systick.c:35
    SysTick->CNTH0 = 0;
    2888:	e000f737          	lui	a4,0xe000f
    288c:	00070423          	sb	zero,8(a4) # e000f008 <_eusrstack+0xc000a008>
C:/Users/Accepted/Documents/smart_car/Seekfree_CH32V103R8T6_Opensource_Library/Libraries/seekfree_libraries/zf_systick.c:36
    SysTick->CNTH1 = 0;
    2890:	e000f737          	lui	a4,0xe000f
    2894:	000704a3          	sb	zero,9(a4) # e000f009 <_eusrstack+0xc000a009>
C:/Users/Accepted/Documents/smart_car/Seekfree_CH32V103R8T6_Opensource_Library/Libraries/seekfree_libraries/zf_systick.c:37
    SysTick->CNTH2 = 0;
    2898:	e000f737          	lui	a4,0xe000f
    289c:	00070523          	sb	zero,10(a4) # e000f00a <_eusrstack+0xc000a00a>
C:/Users/Accepted/Documents/smart_car/Seekfree_CH32V103R8T6_Opensource_Library/Libraries/seekfree_libraries/zf_systick.c:38
    SysTick->CNTH3 = 0;
    28a0:	e000f737          	lui	a4,0xe000f
    28a4:	000705a3          	sb	zero,11(a4) # e000f00b <_eusrstack+0xc000a00b>
C:/Users/Accepted/Documents/smart_car/Seekfree_CH32V103R8T6_Opensource_Library/Libraries/seekfree_libraries/zf_systick.c:39
    SysTick->CTLR = 1;          //启动系统计数器 systick（HCLK/8 时基） us
    28a8:	e000f737          	lui	a4,0xe000f
    28ac:	4685                	li	a3,1
    28ae:	c314                	sw	a3,0(a4)
C:/Users/Accepted/Documents/smart_car/Seekfree_CH32V103R8T6_Opensource_Library/Libraries/seekfree_libraries/zf_systick.c:41

    while((*(volatile uint32*)0xE000F004) <= time);
    28b0:	0001                	nop
C:/Users/Accepted/Documents/smart_car/Seekfree_CH32V103R8T6_Opensource_Library/Libraries/seekfree_libraries/zf_systick.c:41 (discriminator 1)
    28b2:	e000f737          	lui	a4,0xe000f
    28b6:	0711                	addi	a4,a4,4
    28b8:	4318                	lw	a4,0(a4)
    28ba:	87ba                	mv	a5,a4
    28bc:	4801                	li	a6,0
    28be:	fec42703          	lw	a4,-20(s0)
    28c2:	86c2                	mv	a3,a6
    28c4:	00d76d63          	bltu	a4,a3,28de <systick_delay+0x8c>
    28c8:	fec42703          	lw	a4,-20(s0)
    28cc:	86c2                	mv	a3,a6
    28ce:	fed712e3          	bne	a4,a3,28b2 <systick_delay+0x60>
    28d2:	fe842703          	lw	a4,-24(s0)
    28d6:	86be                	mv	a3,a5
    28d8:	00d76363          	bltu	a4,a3,28de <systick_delay+0x8c>
    28dc:	bfd9                	j	28b2 <systick_delay+0x60>
C:/Users/Accepted/Documents/smart_car/Seekfree_CH32V103R8T6_Opensource_Library/Libraries/seekfree_libraries/zf_systick.c:42
}
    28de:	0001                	nop
    28e0:	4472                	lw	s0,28(sp)
    28e2:	6105                	addi	sp,sp,32
    28e4:	8082                	ret

000028e6 <uart_gpio_init>:
uart_gpio_init():
C:/Users/Accepted/Documents/smart_car/Seekfree_CH32V103R8T6_Opensource_Library/Libraries/seekfree_libraries/zf_uart.c:38
//  @param      rx_pin      串口接收引脚号
//  @return     void
//  Sample usage:           内部使用，用户无需关心
//-------------------------------------------------------------------------------------------------------------------
void uart_gpio_init(UARTPIN_enum tx_pin, UARTPIN_enum rx_pin)
{
    28e6:	1101                	addi	sp,sp,-32
    28e8:	ce06                	sw	ra,28(sp)
    28ea:	cc22                	sw	s0,24(sp)
    28ec:	1000                	addi	s0,sp,32
    28ee:	fea42623          	sw	a0,-20(s0)
    28f2:	feb42423          	sw	a1,-24(s0)
C:/Users/Accepted/Documents/smart_car/Seekfree_CH32V103R8T6_Opensource_Library/Libraries/seekfree_libraries/zf_uart.c:39
    if(tx_pin == UART1_TX_A9 && rx_pin == UART1_RX_A10)
    28f6:	fec42783          	lw	a5,-20(s0)
    28fa:	e785                	bnez	a5,2922 <uart_gpio_init+0x3c>
C:/Users/Accepted/Documents/smart_car/Seekfree_CH32V103R8T6_Opensource_Library/Libraries/seekfree_libraries/zf_uart.c:39 (discriminator 1)
    28fc:	fe842703          	lw	a4,-24(s0)
    2900:	4785                	li	a5,1
    2902:	02f71063          	bne	a4,a5,2922 <uart_gpio_init+0x3c>
C:/Users/Accepted/Documents/smart_car/Seekfree_CH32V103R8T6_Opensource_Library/Libraries/seekfree_libraries/zf_uart.c:41
    {
        gpio_init(A9, GPO, 0, SPEED_50MHZ|OUT_AF_PP);
    2906:	31800693          	li	a3,792
    290a:	4601                	li	a2,0
    290c:	4585                	li	a1,1
    290e:	4525                	li	a0,9
    2910:	d9aff0ef          	jal	ra,1eaa <gpio_init>
C:/Users/Accepted/Documents/smart_car/Seekfree_CH32V103R8T6_Opensource_Library/Libraries/seekfree_libraries/zf_uart.c:42
        gpio_init(A10, GPI, 0, IN_FLOAT);
    2914:	4691                	li	a3,4
    2916:	4601                	li	a2,0
    2918:	4581                	li	a1,0
    291a:	4529                	li	a0,10
    291c:	d8eff0ef          	jal	ra,1eaa <gpio_init>
C:/Users/Accepted/Documents/smart_car/Seekfree_CH32V103R8T6_Opensource_Library/Libraries/seekfree_libraries/zf_uart.c:67
    else if(tx_pin == UART3_TX_C10)
    {
        gpio_init(C10, GPO, 0, SPEED_50MHZ|OUT_AF_PP);
        gpio_init(C11, GPI, 0, IN_FLOAT);
    }
}
    2920:	a065                	j	29c8 <uart_gpio_init+0xe2>
C:/Users/Accepted/Documents/smart_car/Seekfree_CH32V103R8T6_Opensource_Library/Libraries/seekfree_libraries/zf_uart.c:44
    else if(tx_pin == UART1_TX_B6)
    2922:	fec42703          	lw	a4,-20(s0)
    2926:	4789                	li	a5,2
    2928:	02f71263          	bne	a4,a5,294c <uart_gpio_init+0x66>
C:/Users/Accepted/Documents/smart_car/Seekfree_CH32V103R8T6_Opensource_Library/Libraries/seekfree_libraries/zf_uart.c:46
        gpio_init(B6, GPO, 0, SPEED_50MHZ|OUT_AF_PP);
    292c:	31800693          	li	a3,792
    2930:	4601                	li	a2,0
    2932:	4585                	li	a1,1
    2934:	02600513          	li	a0,38
    2938:	d72ff0ef          	jal	ra,1eaa <gpio_init>
C:/Users/Accepted/Documents/smart_car/Seekfree_CH32V103R8T6_Opensource_Library/Libraries/seekfree_libraries/zf_uart.c:47
        gpio_init(B7, GPI, 0, IN_FLOAT);
    293c:	4691                	li	a3,4
    293e:	4601                	li	a2,0
    2940:	4581                	li	a1,0
    2942:	02700513          	li	a0,39
    2946:	d64ff0ef          	jal	ra,1eaa <gpio_init>
C:/Users/Accepted/Documents/smart_car/Seekfree_CH32V103R8T6_Opensource_Library/Libraries/seekfree_libraries/zf_uart.c:67
}
    294a:	a8bd                	j	29c8 <uart_gpio_init+0xe2>
C:/Users/Accepted/Documents/smart_car/Seekfree_CH32V103R8T6_Opensource_Library/Libraries/seekfree_libraries/zf_uart.c:50
    else if(tx_pin == UART2_TX_A2)
    294c:	fec42703          	lw	a4,-20(s0)
    2950:	47c1                	li	a5,16
    2952:	02f71063          	bne	a4,a5,2972 <uart_gpio_init+0x8c>
C:/Users/Accepted/Documents/smart_car/Seekfree_CH32V103R8T6_Opensource_Library/Libraries/seekfree_libraries/zf_uart.c:52
        gpio_init(A2, GPO, 0, SPEED_50MHZ|OUT_AF_PP);
    2956:	31800693          	li	a3,792
    295a:	4601                	li	a2,0
    295c:	4585                	li	a1,1
    295e:	4509                	li	a0,2
    2960:	d4aff0ef          	jal	ra,1eaa <gpio_init>
C:/Users/Accepted/Documents/smart_car/Seekfree_CH32V103R8T6_Opensource_Library/Libraries/seekfree_libraries/zf_uart.c:53
        gpio_init(A3, GPI, 0, IN_FLOAT);
    2964:	4691                	li	a3,4
    2966:	4601                	li	a2,0
    2968:	4581                	li	a1,0
    296a:	450d                	li	a0,3
    296c:	d3eff0ef          	jal	ra,1eaa <gpio_init>
C:/Users/Accepted/Documents/smart_car/Seekfree_CH32V103R8T6_Opensource_Library/Libraries/seekfree_libraries/zf_uart.c:67
}
    2970:	a8a1                	j	29c8 <uart_gpio_init+0xe2>
C:/Users/Accepted/Documents/smart_car/Seekfree_CH32V103R8T6_Opensource_Library/Libraries/seekfree_libraries/zf_uart.c:56
    else if(tx_pin == UART3_TX_B10)
    2972:	fec42703          	lw	a4,-20(s0)
    2976:	02000793          	li	a5,32
    297a:	02f71263          	bne	a4,a5,299e <uart_gpio_init+0xb8>
C:/Users/Accepted/Documents/smart_car/Seekfree_CH32V103R8T6_Opensource_Library/Libraries/seekfree_libraries/zf_uart.c:58
        gpio_init(B10, GPO, 0, SPEED_50MHZ|OUT_AF_PP);
    297e:	31800693          	li	a3,792
    2982:	4601                	li	a2,0
    2984:	4585                	li	a1,1
    2986:	02a00513          	li	a0,42
    298a:	d20ff0ef          	jal	ra,1eaa <gpio_init>
C:/Users/Accepted/Documents/smart_car/Seekfree_CH32V103R8T6_Opensource_Library/Libraries/seekfree_libraries/zf_uart.c:59
        gpio_init(B11, GPI, 0, IN_FLOAT);
    298e:	4691                	li	a3,4
    2990:	4601                	li	a2,0
    2992:	4581                	li	a1,0
    2994:	02b00513          	li	a0,43
    2998:	d12ff0ef          	jal	ra,1eaa <gpio_init>
C:/Users/Accepted/Documents/smart_car/Seekfree_CH32V103R8T6_Opensource_Library/Libraries/seekfree_libraries/zf_uart.c:67
}
    299c:	a035                	j	29c8 <uart_gpio_init+0xe2>
C:/Users/Accepted/Documents/smart_car/Seekfree_CH32V103R8T6_Opensource_Library/Libraries/seekfree_libraries/zf_uart.c:62
    else if(tx_pin == UART3_TX_C10)
    299e:	fec42703          	lw	a4,-20(s0)
    29a2:	02200793          	li	a5,34
    29a6:	02f71163          	bne	a4,a5,29c8 <uart_gpio_init+0xe2>
C:/Users/Accepted/Documents/smart_car/Seekfree_CH32V103R8T6_Opensource_Library/Libraries/seekfree_libraries/zf_uart.c:64
        gpio_init(C10, GPO, 0, SPEED_50MHZ|OUT_AF_PP);
    29aa:	31800693          	li	a3,792
    29ae:	4601                	li	a2,0
    29b0:	4585                	li	a1,1
    29b2:	04a00513          	li	a0,74
    29b6:	cf4ff0ef          	jal	ra,1eaa <gpio_init>
C:/Users/Accepted/Documents/smart_car/Seekfree_CH32V103R8T6_Opensource_Library/Libraries/seekfree_libraries/zf_uart.c:65
        gpio_init(C11, GPI, 0, IN_FLOAT);
    29ba:	4691                	li	a3,4
    29bc:	4601                	li	a2,0
    29be:	4581                	li	a1,0
    29c0:	04b00513          	li	a0,75
    29c4:	ce6ff0ef          	jal	ra,1eaa <gpio_init>
C:/Users/Accepted/Documents/smart_car/Seekfree_CH32V103R8T6_Opensource_Library/Libraries/seekfree_libraries/zf_uart.c:67
}
    29c8:	0001                	nop
    29ca:	40f2                	lw	ra,28(sp)
    29cc:	4462                	lw	s0,24(sp)
    29ce:	6105                	addi	sp,sp,32
    29d0:	8082                	ret

000029d2 <uart_init>:
uart_init():
C:/Users/Accepted/Documents/smart_car/Seekfree_CH32V103R8T6_Opensource_Library/Libraries/seekfree_libraries/zf_uart.c:79
//  @param      rx_pin      串口接收引脚号
//  @return     void
//  Sample usage:           uart_init(UART_1, 115200, UART1_TX_A9, UART1_RX_A10); //串口1初始化引脚号,TX为A9,RX为A10
//-------------------------------------------------------------------------------------------------------------------
void uart_init(UARTN_enum uartn, uint32 baud, UARTPIN_enum tx_pin, UARTPIN_enum rx_pin)
{
    29d2:	7179                	addi	sp,sp,-48
    29d4:	d606                	sw	ra,44(sp)
    29d6:	d422                	sw	s0,40(sp)
    29d8:	1800                	addi	s0,sp,48
    29da:	fca42e23          	sw	a0,-36(s0)
    29de:	fcb42c23          	sw	a1,-40(s0)
    29e2:	fcc42a23          	sw	a2,-44(s0)
    29e6:	fcd42823          	sw	a3,-48(s0)
C:/Users/Accepted/Documents/smart_car/Seekfree_CH32V103R8T6_Opensource_Library/Libraries/seekfree_libraries/zf_uart.c:83
    USART_InitTypeDef USART_InitStructure;


    RCC_APB2PeriphClockCmd(RCC_APB2Periph_AFIO, ENABLE);
    29ea:	4585                	li	a1,1
    29ec:	4505                	li	a0,1
    29ee:	f8dfd0ef          	jal	ra,97a <RCC_APB2PeriphClockCmd>
C:/Users/Accepted/Documents/smart_car/Seekfree_CH32V103R8T6_Opensource_Library/Libraries/seekfree_libraries/zf_uart.c:86

    //引脚初始化
    uart_gpio_init(tx_pin, rx_pin);
    29f2:	fd042583          	lw	a1,-48(s0)
    29f6:	fd442503          	lw	a0,-44(s0)
    29fa:	35f5                	jal	28e6 <uart_gpio_init>
C:/Users/Accepted/Documents/smart_car/Seekfree_CH32V103R8T6_Opensource_Library/Libraries/seekfree_libraries/zf_uart.c:88

    if(UART1_TX_B6 == tx_pin && UART1_RX_B7 == rx_pin)                         //引脚重映射
    29fc:	fd442703          	lw	a4,-44(s0)
    2a00:	4789                	li	a5,2
    2a02:	00f71b63          	bne	a4,a5,2a18 <uart_init+0x46>
C:/Users/Accepted/Documents/smart_car/Seekfree_CH32V103R8T6_Opensource_Library/Libraries/seekfree_libraries/zf_uart.c:88 (discriminator 1)
    2a06:	fd042703          	lw	a4,-48(s0)
    2a0a:	478d                	li	a5,3
    2a0c:	00f71663          	bne	a4,a5,2a18 <uart_init+0x46>
C:/Users/Accepted/Documents/smart_car/Seekfree_CH32V103R8T6_Opensource_Library/Libraries/seekfree_libraries/zf_uart.c:89
        GPIO_PinRemapConfig(GPIO_Remap_USART1, ENABLE);
    2a10:	4585                	li	a1,1
    2a12:	4511                	li	a0,4
    2a14:	c11fd0ef          	jal	ra,624 <GPIO_PinRemapConfig>
C:/Users/Accepted/Documents/smart_car/Seekfree_CH32V103R8T6_Opensource_Library/Libraries/seekfree_libraries/zf_uart.c:90
    if(UART3_TX_C10 == tx_pin && UART3_RX_C11 == rx_pin)
    2a18:	fd442703          	lw	a4,-44(s0)
    2a1c:	02200793          	li	a5,34
    2a20:	00f71f63          	bne	a4,a5,2a3e <uart_init+0x6c>
C:/Users/Accepted/Documents/smart_car/Seekfree_CH32V103R8T6_Opensource_Library/Libraries/seekfree_libraries/zf_uart.c:90 (discriminator 1)
    2a24:	fd042703          	lw	a4,-48(s0)
    2a28:	02300793          	li	a5,35
    2a2c:	00f71963          	bne	a4,a5,2a3e <uart_init+0x6c>
C:/Users/Accepted/Documents/smart_car/Seekfree_CH32V103R8T6_Opensource_Library/Libraries/seekfree_libraries/zf_uart.c:91
        GPIO_PinRemapConfig(GPIO_PartialRemap_USART3, ENABLE);
    2a30:	4585                	li	a1,1
    2a32:	001407b7          	lui	a5,0x140
    2a36:	01078513          	addi	a0,a5,16 # 140010 <_data_lma+0x13be34>
    2a3a:	bebfd0ef          	jal	ra,624 <GPIO_PinRemapConfig>
C:/Users/Accepted/Documents/smart_car/Seekfree_CH32V103R8T6_Opensource_Library/Libraries/seekfree_libraries/zf_uart.c:94

    //串口总线使能
    if(UART_1 == uartn) RCC_APB2PeriphClockCmd(RCC_APB2Periph_USART1, ENABLE);
    2a3e:	fdc42783          	lw	a5,-36(s0)
    2a42:	e791                	bnez	a5,2a4e <uart_init+0x7c>
C:/Users/Accepted/Documents/smart_car/Seekfree_CH32V103R8T6_Opensource_Library/Libraries/seekfree_libraries/zf_uart.c:94 (discriminator 1)
    2a44:	4585                	li	a1,1
    2a46:	6511                	lui	a0,0x4
    2a48:	f33fd0ef          	jal	ra,97a <RCC_APB2PeriphClockCmd>
    2a4c:	a035                	j	2a78 <uart_init+0xa6>
C:/Users/Accepted/Documents/smart_car/Seekfree_CH32V103R8T6_Opensource_Library/Libraries/seekfree_libraries/zf_uart.c:95
    else if(UART_2 == uartn) RCC_APB1PeriphClockCmd(RCC_APB1Periph_USART2, ENABLE);
    2a4e:	fdc42703          	lw	a4,-36(s0)
    2a52:	4785                	li	a5,1
    2a54:	00f71863          	bne	a4,a5,2a64 <uart_init+0x92>
C:/Users/Accepted/Documents/smart_car/Seekfree_CH32V103R8T6_Opensource_Library/Libraries/seekfree_libraries/zf_uart.c:95 (discriminator 1)
    2a58:	4585                	li	a1,1
    2a5a:	00020537          	lui	a0,0x20
    2a5e:	f63fd0ef          	jal	ra,9c0 <RCC_APB1PeriphClockCmd>
    2a62:	a819                	j	2a78 <uart_init+0xa6>
C:/Users/Accepted/Documents/smart_car/Seekfree_CH32V103R8T6_Opensource_Library/Libraries/seekfree_libraries/zf_uart.c:96
    else if(UART_3 == uartn) RCC_APB1PeriphClockCmd(RCC_APB1Periph_USART3, ENABLE);
    2a64:	fdc42703          	lw	a4,-36(s0)
    2a68:	4789                	li	a5,2
    2a6a:	00f71763          	bne	a4,a5,2a78 <uart_init+0xa6>
C:/Users/Accepted/Documents/smart_car/Seekfree_CH32V103R8T6_Opensource_Library/Libraries/seekfree_libraries/zf_uart.c:96 (discriminator 1)
    2a6e:	4585                	li	a1,1
    2a70:	00040537          	lui	a0,0x40
    2a74:	f4dfd0ef          	jal	ra,9c0 <RCC_APB1PeriphClockCmd>
C:/Users/Accepted/Documents/smart_car/Seekfree_CH32V103R8T6_Opensource_Library/Libraries/seekfree_libraries/zf_uart.c:99

    //串口参数配置
    USART_InitStructure.USART_BaudRate = baud;
    2a78:	fd842783          	lw	a5,-40(s0)
    2a7c:	fef42023          	sw	a5,-32(s0)
C:/Users/Accepted/Documents/smart_car/Seekfree_CH32V103R8T6_Opensource_Library/Libraries/seekfree_libraries/zf_uart.c:100
    USART_InitStructure.USART_WordLength = USART_WordLength_8b;
    2a80:	fe041223          	sh	zero,-28(s0)
C:/Users/Accepted/Documents/smart_car/Seekfree_CH32V103R8T6_Opensource_Library/Libraries/seekfree_libraries/zf_uart.c:101
    USART_InitStructure.USART_StopBits = USART_StopBits_1;
    2a84:	fe041323          	sh	zero,-26(s0)
C:/Users/Accepted/Documents/smart_car/Seekfree_CH32V103R8T6_Opensource_Library/Libraries/seekfree_libraries/zf_uart.c:102
    USART_InitStructure.USART_Parity = USART_Parity_No;
    2a88:	fe041423          	sh	zero,-24(s0)
C:/Users/Accepted/Documents/smart_car/Seekfree_CH32V103R8T6_Opensource_Library/Libraries/seekfree_libraries/zf_uart.c:103
    USART_InitStructure.USART_HardwareFlowControl = USART_HardwareFlowControl_None;
    2a8c:	fe041623          	sh	zero,-20(s0)
C:/Users/Accepted/Documents/smart_car/Seekfree_CH32V103R8T6_Opensource_Library/Libraries/seekfree_libraries/zf_uart.c:104
    USART_InitStructure.USART_Mode = USART_Mode_Tx | USART_Mode_Rx;
    2a90:	47b1                	li	a5,12
    2a92:	fef41523          	sh	a5,-22(s0)
C:/Users/Accepted/Documents/smart_car/Seekfree_CH32V103R8T6_Opensource_Library/Libraries/seekfree_libraries/zf_uart.c:107

    //使能串口
    USART_Init((USART_TypeDef*)UARTN[uartn], &USART_InitStructure);
    2a96:	6791                	lui	a5,0x4
    2a98:	fdc42703          	lw	a4,-36(s0)
    2a9c:	070a                	slli	a4,a4,0x2
    2a9e:	05478793          	addi	a5,a5,84 # 4054 <UARTN>
    2aa2:	97ba                	add	a5,a5,a4
    2aa4:	439c                	lw	a5,0(a5)
    2aa6:	873e                	mv	a4,a5
    2aa8:	fe040793          	addi	a5,s0,-32
    2aac:	85be                	mv	a1,a5
    2aae:	853a                	mv	a0,a4
    2ab0:	b7dfe0ef          	jal	ra,162c <USART_Init>
C:/Users/Accepted/Documents/smart_car/Seekfree_CH32V103R8T6_Opensource_Library/Libraries/seekfree_libraries/zf_uart.c:108
    USART_Cmd((USART_TypeDef*)UARTN[uartn], ENABLE);
    2ab4:	6791                	lui	a5,0x4
    2ab6:	fdc42703          	lw	a4,-36(s0)
    2aba:	070a                	slli	a4,a4,0x2
    2abc:	05478793          	addi	a5,a5,84 # 4054 <UARTN>
    2ac0:	97ba                	add	a5,a5,a4
    2ac2:	439c                	lw	a5,0(a5)
    2ac4:	4585                	li	a1,1
    2ac6:	853e                	mv	a0,a5
    2ac8:	d99fe0ef          	jal	ra,1860 <USART_Cmd>
C:/Users/Accepted/Documents/smart_car/Seekfree_CH32V103R8T6_Opensource_Library/Libraries/seekfree_libraries/zf_uart.c:111


}
    2acc:	0001                	nop
    2ace:	50b2                	lw	ra,44(sp)
    2ad0:	5422                	lw	s0,40(sp)
    2ad2:	6145                	addi	sp,sp,48
    2ad4:	8082                	ret

00002ad6 <uart_query>:
uart_query():
C:/Users/Accepted/Documents/smart_car/Seekfree_CH32V103R8T6_Opensource_Library/Libraries/seekfree_libraries/zf_uart.c:205
//  @param      *dat            接收数据的地址
//  @return     uint8           1：接收成功   0：未接收到数据
//  Sample usage:               uint8 dat; uart_query(USART_1,&dat);       // 接收串口1数据  存在在dat变量里
//-------------------------------------------------------------------------------------------------------------------
uint8 uart_query(UARTN_enum uartn, uint8 *dat)
{
    2ad6:	1101                	addi	sp,sp,-32
    2ad8:	ce22                	sw	s0,28(sp)
    2ada:	1000                	addi	s0,sp,32
    2adc:	fea42623          	sw	a0,-20(s0)
    2ae0:	feb42423          	sw	a1,-24(s0)
C:/Users/Accepted/Documents/smart_car/Seekfree_CH32V103R8T6_Opensource_Library/Libraries/seekfree_libraries/zf_uart.c:206
    if((((USART_TypeDef*)UARTN[uartn])->STATR & USART_FLAG_RXNE) != 0)
    2ae4:	6791                	lui	a5,0x4
    2ae6:	fec42703          	lw	a4,-20(s0)
    2aea:	070a                	slli	a4,a4,0x2
    2aec:	05478793          	addi	a5,a5,84 # 4054 <UARTN>
    2af0:	97ba                	add	a5,a5,a4
    2af2:	439c                	lw	a5,0(a5)
    2af4:	0007d783          	lhu	a5,0(a5)
    2af8:	07c2                	slli	a5,a5,0x10
    2afa:	83c1                	srli	a5,a5,0x10
    2afc:	0207f793          	andi	a5,a5,32
    2b00:	c78d                	beqz	a5,2b2a <uart_query+0x54>
C:/Users/Accepted/Documents/smart_car/Seekfree_CH32V103R8T6_Opensource_Library/Libraries/seekfree_libraries/zf_uart.c:208
    {
        *dat = (uint16_t)(((USART_TypeDef*)UARTN[uartn])->DATAR & (uint16_t)0x01FF);
    2b02:	6791                	lui	a5,0x4
    2b04:	fec42703          	lw	a4,-20(s0)
    2b08:	070a                	slli	a4,a4,0x2
    2b0a:	05478793          	addi	a5,a5,84 # 4054 <UARTN>
    2b0e:	97ba                	add	a5,a5,a4
    2b10:	439c                	lw	a5,0(a5)
    2b12:	0047d783          	lhu	a5,4(a5)
    2b16:	07c2                	slli	a5,a5,0x10
    2b18:	83c1                	srli	a5,a5,0x10
    2b1a:	0ff7f713          	andi	a4,a5,255
    2b1e:	fe842783          	lw	a5,-24(s0)
    2b22:	00e78023          	sb	a4,0(a5)
C:/Users/Accepted/Documents/smart_car/Seekfree_CH32V103R8T6_Opensource_Library/Libraries/seekfree_libraries/zf_uart.c:209
        return 1;
    2b26:	4785                	li	a5,1
    2b28:	a011                	j	2b2c <uart_query+0x56>
C:/Users/Accepted/Documents/smart_car/Seekfree_CH32V103R8T6_Opensource_Library/Libraries/seekfree_libraries/zf_uart.c:211
    }
    return 0;
    2b2a:	4781                	li	a5,0
C:/Users/Accepted/Documents/smart_car/Seekfree_CH32V103R8T6_Opensource_Library/Libraries/seekfree_libraries/zf_uart.c:212
}
    2b2c:	853e                	mv	a0,a5
    2b2e:	4472                	lw	s0,28(sp)
    2b30:	6105                	addi	sp,sp,32
    2b32:	8082                	ret

00002b34 <USB_DevTransProcess>:
USB_DevTransProcess():
C:/Users/Accepted/Documents/smart_car/Seekfree_CH32V103R8T6_Opensource_Library/Libraries/seekfree_libraries/zf_usb_cdc.c:203
* Description    : USB device transfer process.
* Input          : None
* Return         : None
*******************************************************************************/
void USB_DevTransProcess( void )
{
    2b34:	1101                	addi	sp,sp,-32
    2b36:	ce06                	sw	ra,28(sp)
    2b38:	cc22                	sw	s0,24(sp)
    2b3a:	1000                	addi	s0,sp,32
C:/Users/Accepted/Documents/smart_car/Seekfree_CH32V103R8T6_Opensource_Library/Libraries/seekfree_libraries/zf_usb_cdc.c:205
    UINT8  len, chtype,i;
    UINT8  intflag, errflag = 0;
    2b3c:	fe040623          	sb	zero,-20(s0)
C:/Users/Accepted/Documents/smart_car/Seekfree_CH32V103R8T6_Opensource_Library/Libraries/seekfree_libraries/zf_usb_cdc.c:207

    intflag = R8_USB_INT_FG;         //USB中断标志寄存器
    2b40:	400237b7          	lui	a5,0x40023
    2b44:	40678793          	addi	a5,a5,1030 # 40023406 <_eusrstack+0x2001e406>
    2b48:	0007c783          	lbu	a5,0(a5)
    2b4c:	fef405a3          	sb	a5,-21(s0)
C:/Users/Accepted/Documents/smart_car/Seekfree_CH32V103R8T6_Opensource_Library/Libraries/seekfree_libraries/zf_usb_cdc.c:209

    if( intflag & RB_UIF_TRANSFER )  //USB传输完成中断标志位
    2b50:	feb44783          	lbu	a5,-21(s0)
    2b54:	8b89                	andi	a5,a5,2
    2b56:	1a0787e3          	beqz	a5,3504 <USB_DevTransProcess+0x9d0>
C:/Users/Accepted/Documents/smart_car/Seekfree_CH32V103R8T6_Opensource_Library/Libraries/seekfree_libraries/zf_usb_cdc.c:212
    {
        //R8_USB_INT_ST：USB中断状态寄存器   MASK_UIS_TOKEN：设备模式下，当前USB传输事务的令牌PID标识   MASK_UIS_ENDP：设备模式下，当前USB传输事务的端点号
        switch ( R8_USB_INT_ST & ( MASK_UIS_TOKEN | MASK_UIS_ENDP ) )
    2b5a:	400237b7          	lui	a5,0x40023
    2b5e:	40778793          	addi	a5,a5,1031 # 40023407 <_eusrstack+0x2001e407>
    2b62:	0007c783          	lbu	a5,0(a5)
    2b66:	0ff7f793          	andi	a5,a5,255
    2b6a:	03f7f793          	andi	a5,a5,63
    2b6e:	03000713          	li	a4,48
    2b72:	16f76ce3          	bltu	a4,a5,34ea <USB_DevTransProcess+0x9b6>
    2b76:	00279713          	slli	a4,a5,0x2
    2b7a:	6791                	lui	a5,0x4
    2b7c:	0ec78793          	addi	a5,a5,236 # 40ec <MyProdInfo+0xc>
    2b80:	97ba                	add	a5,a5,a4
    2b82:	439c                	lw	a5,0(a5)
    2b84:	8782                	jr	a5
C:/Users/Accepted/Documents/smart_car/Seekfree_CH32V103R8T6_Opensource_Library/Libraries/seekfree_libraries/zf_usb_cdc.c:216
        {
            //前面描述符配置中数据接口使用端点2进行数据输入输出
            case UIS_TOKEN_OUT | 2:
                if (R8_USB_INT_FG & RB_U_TOG_OK)                                    //不同步的数据包将丢弃，RB_U_TOG_OK：当前USB传输DATA0/1同步标志匹配状态位
    2b86:	400237b7          	lui	a5,0x40023
    2b8a:	40678793          	addi	a5,a5,1030 # 40023406 <_eusrstack+0x2001e406>
    2b8e:	0007c783          	lbu	a5,0(a5)
    2b92:	0ff7f793          	andi	a5,a5,255
    2b96:	0407f793          	andi	a5,a5,64
    2b9a:	14078ae3          	beqz	a5,34ee <USB_DevTransProcess+0x9ba>
C:/Users/Accepted/Documents/smart_car/Seekfree_CH32V103R8T6_Opensource_Library/Libraries/seekfree_libraries/zf_usb_cdc.c:218
                {
                    USBByteCount = R8_USB_RX_LEN;                                   //R8_USB_RX_LEN：当前USB端点接收的数据字节数
    2b9e:	400237b7          	lui	a5,0x40023
    2ba2:	40878793          	addi	a5,a5,1032 # 40023408 <_eusrstack+0x2001e408>
    2ba6:	0007c783          	lbu	a5,0(a5)
    2baa:	0ff7f713          	andi	a4,a5,255
    2bae:	82e18823          	sb	a4,-2000(gp) # 20000040 <USBByteCount>
C:/Users/Accepted/Documents/smart_car/Seekfree_CH32V103R8T6_Opensource_Library/Libraries/seekfree_libraries/zf_usb_cdc.c:219
                    for(i=0; i<USBByteCount; i++)
    2bb2:	fe0406a3          	sb	zero,-19(s0)
    2bb6:	a035                	j	2be2 <USB_DevTransProcess+0xae>
C:/Users/Accepted/Documents/smart_car/Seekfree_CH32V103R8T6_Opensource_Library/Libraries/seekfree_libraries/zf_usb_cdc.c:221 (discriminator 3)
                    {
                        pEP2_IN_DataBuf[i] = pEP2_OUT_DataBuf[i];
    2bb8:	8141a703          	lw	a4,-2028(gp) # 20000024 <pEP2_RAM_Addr>
    2bbc:	fed44783          	lbu	a5,-19(s0)
    2bc0:	973e                	add	a4,a4,a5
    2bc2:	8141a683          	lw	a3,-2028(gp) # 20000024 <pEP2_RAM_Addr>
    2bc6:	fed44783          	lbu	a5,-19(s0)
    2bca:	04078793          	addi	a5,a5,64
    2bce:	97b6                	add	a5,a5,a3
    2bd0:	00074703          	lbu	a4,0(a4) # e000f000 <_eusrstack+0xc000a000>
    2bd4:	00e78023          	sb	a4,0(a5)
C:/Users/Accepted/Documents/smart_car/Seekfree_CH32V103R8T6_Opensource_Library/Libraries/seekfree_libraries/zf_usb_cdc.c:219 (discriminator 3)
                    for(i=0; i<USBByteCount; i++)
    2bd8:	fed44783          	lbu	a5,-19(s0)
    2bdc:	0785                	addi	a5,a5,1
    2bde:	fef406a3          	sb	a5,-19(s0)
C:/Users/Accepted/Documents/smart_car/Seekfree_CH32V103R8T6_Opensource_Library/Libraries/seekfree_libraries/zf_usb_cdc.c:219 (discriminator 1)
    2be2:	8301c783          	lbu	a5,-2000(gp) # 20000040 <USBByteCount>
    2be6:	0ff7f793          	andi	a5,a5,255
    2bea:	fed44703          	lbu	a4,-19(s0)
    2bee:	fcf765e3          	bltu	a4,a5,2bb8 <USB_DevTransProcess+0x84>
C:/Users/Accepted/Documents/smart_car/Seekfree_CH32V103R8T6_Opensource_Library/Libraries/seekfree_libraries/zf_usb_cdc.c:223
                    }
                    R8_UEP2_T_LEN = USBByteCount;                                   //R8_UEP2_T_LEN：端点2发送长度
    2bf2:	400237b7          	lui	a5,0x40023
    2bf6:	43878793          	addi	a5,a5,1080 # 40023438 <_eusrstack+0x2001e438>
    2bfa:	8301c703          	lbu	a4,-2000(gp) # 20000040 <USBByteCount>
    2bfe:	0ff77713          	andi	a4,a4,255
    2c02:	00e78023          	sb	a4,0(a5)
C:/Users/Accepted/Documents/smart_car/Seekfree_CH32V103R8T6_Opensource_Library/Libraries/seekfree_libraries/zf_usb_cdc.c:224
                    R8_UEP2_CTRL = (R8_UEP2_CTRL & ~MASK_UEP_T_RES)| UEP_T_RES_ACK; //MASK_UEP_T_RES：端点2的发送器对IN事务的响应控制
    2c06:	400237b7          	lui	a5,0x40023
    2c0a:	43a78793          	addi	a5,a5,1082 # 4002343a <_eusrstack+0x2001e43a>
    2c0e:	0007c783          	lbu	a5,0(a5)
    2c12:	0ff7f713          	andi	a4,a5,255
    2c16:	400237b7          	lui	a5,0x40023
    2c1a:	43a78793          	addi	a5,a5,1082 # 4002343a <_eusrstack+0x2001e43a>
    2c1e:	9b71                	andi	a4,a4,-4
    2c20:	0ff77713          	andi	a4,a4,255
    2c24:	00e78023          	sb	a4,0(a5)
C:/Users/Accepted/Documents/smart_car/Seekfree_CH32V103R8T6_Opensource_Library/Libraries/seekfree_libraries/zf_usb_cdc.c:225
                    R8_USB_INT_FG = RB_UIF_TRANSFER;                                //USB传输完成中断标志位，写 1 清零
    2c28:	400237b7          	lui	a5,0x40023
    2c2c:	40678793          	addi	a5,a5,1030 # 40023406 <_eusrstack+0x2001e406>
    2c30:	4709                	li	a4,2
    2c32:	00e78023          	sb	a4,0(a5)
C:/Users/Accepted/Documents/smart_car/Seekfree_CH32V103R8T6_Opensource_Library/Libraries/seekfree_libraries/zf_usb_cdc.c:227
                }
                break;
    2c36:	0b90006f          	j	34ee <USB_DevTransProcess+0x9ba>
C:/Users/Accepted/Documents/smart_car/Seekfree_CH32V103R8T6_Opensource_Library/Libraries/seekfree_libraries/zf_usb_cdc.c:230

            case UIS_TOKEN_IN | 2:
                R8_UEP2_CTRL = (R8_UEP2_CTRL & ~MASK_UEP_T_RES) | UEP_T_RES_NAK;
    2c3a:	400237b7          	lui	a5,0x40023
    2c3e:	43a78793          	addi	a5,a5,1082 # 4002343a <_eusrstack+0x2001e43a>
    2c42:	0007c783          	lbu	a5,0(a5)
    2c46:	0ff7f793          	andi	a5,a5,255
    2c4a:	07e2                	slli	a5,a5,0x18
    2c4c:	87e1                	srai	a5,a5,0x18
    2c4e:	9bf1                	andi	a5,a5,-4
    2c50:	07e2                	slli	a5,a5,0x18
    2c52:	87e1                	srai	a5,a5,0x18
    2c54:	0027e793          	ori	a5,a5,2
    2c58:	01879713          	slli	a4,a5,0x18
    2c5c:	8761                	srai	a4,a4,0x18
    2c5e:	400237b7          	lui	a5,0x40023
    2c62:	43a78793          	addi	a5,a5,1082 # 4002343a <_eusrstack+0x2001e43a>
    2c66:	0ff77713          	andi	a4,a4,255
    2c6a:	00e78023          	sb	a4,0(a5)
C:/Users/Accepted/Documents/smart_car/Seekfree_CH32V103R8T6_Opensource_Library/Libraries/seekfree_libraries/zf_usb_cdc.c:231
                R8_USB_INT_FG = RB_UIF_TRANSFER;
    2c6e:	400237b7          	lui	a5,0x40023
    2c72:	40678793          	addi	a5,a5,1030 # 40023406 <_eusrstack+0x2001e406>
    2c76:	4709                	li	a4,2
    2c78:	00e78023          	sb	a4,0(a5)
C:/Users/Accepted/Documents/smart_car/Seekfree_CH32V103R8T6_Opensource_Library/Libraries/seekfree_libraries/zf_usb_cdc.c:232
                break;
    2c7c:	0790006f          	j	34f4 <USB_DevTransProcess+0x9c0>
C:/Users/Accepted/Documents/smart_car/Seekfree_CH32V103R8T6_Opensource_Library/Libraries/seekfree_libraries/zf_usb_cdc.c:234
            case UIS_TOKEN_SETUP:
                R8_UEP0_CTRL = RB_UEP_R_TOG | RB_UEP_T_TOG | UEP_R_RES_ACK | UEP_T_RES_NAK;
    2c80:	400237b7          	lui	a5,0x40023
    2c84:	43278793          	addi	a5,a5,1074 # 40023432 <_eusrstack+0x2001e432>
    2c88:	fc200713          	li	a4,-62
    2c8c:	00e78023          	sb	a4,0(a5)
C:/Users/Accepted/Documents/smart_car/Seekfree_CH32V103R8T6_Opensource_Library/Libraries/seekfree_libraries/zf_usb_cdc.c:235
                len = R8_USB_RX_LEN;
    2c90:	400237b7          	lui	a5,0x40023
    2c94:	40878793          	addi	a5,a5,1032 # 40023408 <_eusrstack+0x2001e408>
    2c98:	0007c783          	lbu	a5,0(a5)
    2c9c:	fef407a3          	sb	a5,-17(s0)
C:/Users/Accepted/Documents/smart_car/Seekfree_CH32V103R8T6_Opensource_Library/Libraries/seekfree_libraries/zf_usb_cdc.c:238

                //获取一系列描述符
                if ( len == sizeof( USB_SETUP_REQ ) )
    2ca0:	fef44703          	lbu	a4,-17(s0)
    2ca4:	47a1                	li	a5,8
    2ca6:	5cf71763          	bne	a4,a5,3274 <USB_DevTransProcess+0x740>
C:/Users/Accepted/Documents/smart_car/Seekfree_CH32V103R8T6_Opensource_Library/Libraries/seekfree_libraries/zf_usb_cdc.c:240
                {
                    SetupReqLen = pSetupReqPak->wLength;
    2caa:	8101a783          	lw	a5,-2032(gp) # 20000020 <_edata>
    2cae:	0067c703          	lbu	a4,6(a5)
    2cb2:	0077c783          	lbu	a5,7(a5)
    2cb6:	07a2                	slli	a5,a5,0x8
    2cb8:	8fd9                	or	a5,a5,a4
    2cba:	01079713          	slli	a4,a5,0x10
    2cbe:	8341                	srli	a4,a4,0x10
    2cc0:	82e19723          	sh	a4,-2002(gp) # 2000003e <SetupReqLen>
C:/Users/Accepted/Documents/smart_car/Seekfree_CH32V103R8T6_Opensource_Library/Libraries/seekfree_libraries/zf_usb_cdc.c:241
                    SetupReqCode = pSetupReqPak->bRequest;
    2cc4:	8101a783          	lw	a5,-2032(gp) # 20000020 <_edata>
    2cc8:	0017c703          	lbu	a4,1(a5)
    2ccc:	82e186a3          	sb	a4,-2003(gp) # 2000003d <SetupReqCode>
C:/Users/Accepted/Documents/smart_car/Seekfree_CH32V103R8T6_Opensource_Library/Libraries/seekfree_libraries/zf_usb_cdc.c:242
                    chtype = pSetupReqPak->bRequestType;
    2cd0:	8101a783          	lw	a5,-2032(gp) # 20000020 <_edata>
    2cd4:	0007c783          	lbu	a5,0(a5)
    2cd8:	fef40723          	sb	a5,-18(s0)
C:/Users/Accepted/Documents/smart_car/Seekfree_CH32V103R8T6_Opensource_Library/Libraries/seekfree_libraries/zf_usb_cdc.c:244

                    len = 0;
    2cdc:	fe0407a3          	sb	zero,-17(s0)
C:/Users/Accepted/Documents/smart_car/Seekfree_CH32V103R8T6_Opensource_Library/Libraries/seekfree_libraries/zf_usb_cdc.c:245
                    errflag = 0;
    2ce0:	fe040623          	sb	zero,-20(s0)
C:/Users/Accepted/Documents/smart_car/Seekfree_CH32V103R8T6_Opensource_Library/Libraries/seekfree_libraries/zf_usb_cdc.c:246
                    if ( ( pSetupReqPak->bRequestType & USB_REQ_TYP_MASK ) != USB_REQ_TYP_STANDARD )  //判断是否为标准请求
    2ce4:	8101a783          	lw	a5,-2032(gp) # 20000020 <_edata>
    2ce8:	0007c783          	lbu	a5,0(a5)
    2cec:	0607f793          	andi	a5,a5,96
    2cf0:	cfad                	beqz	a5,2d6a <USB_DevTransProcess+0x236>
C:/Users/Accepted/Documents/smart_car/Seekfree_CH32V103R8T6_Opensource_Library/Libraries/seekfree_libraries/zf_usb_cdc.c:249
                    {
                        //若不是标准请求
                        switch(SetupReqCode)
    2cf2:	82d1c783          	lbu	a5,-2003(gp) # 2000003d <SetupReqCode>
    2cf6:	02100713          	li	a4,33
    2cfa:	00e78b63          	beq	a5,a4,2d10 <USB_DevTransProcess+0x1dc>
    2cfe:	02200713          	li	a4,34
    2d02:	56e78d63          	beq	a5,a4,327c <USB_DevTransProcess+0x748>
    2d06:	02000713          	li	a4,32
    2d0a:	56e78b63          	beq	a5,a4,3280 <USB_DevTransProcess+0x74c>
    2d0e:	a891                	j	2d62 <USB_DevTransProcess+0x22e>
C:/Users/Accepted/Documents/smart_car/Seekfree_CH32V103R8T6_Opensource_Library/Libraries/seekfree_libraries/zf_usb_cdc.c:252
                        {
                            case GET_LINE_CODING:         //currently configured
                                pDescr = LineCoding;
    2d10:	20000737          	lui	a4,0x20000
    2d14:	01470713          	addi	a4,a4,20 # 20000014 <LineCoding>
    2d18:	82e1aa23          	sw	a4,-1996(gp) # 20000044 <pDescr>
C:/Users/Accepted/Documents/smart_car/Seekfree_CH32V103R8T6_Opensource_Library/Libraries/seekfree_libraries/zf_usb_cdc.c:253
                                len = sizeof(LineCoding);
    2d1c:	479d                	li	a5,7
    2d1e:	fef407a3          	sb	a5,-17(s0)
C:/Users/Accepted/Documents/smart_car/Seekfree_CH32V103R8T6_Opensource_Library/Libraries/seekfree_libraries/zf_usb_cdc.c:254
                                len = SetupReqLen >= DEFAULT_ENDP0_SIZE ? DEFAULT_ENDP0_SIZE : SetupReqLen;  // 本次传输长度
    2d22:	82e1d783          	lhu	a5,-2002(gp) # 2000003e <SetupReqLen>
    2d26:	01079693          	slli	a3,a5,0x10
    2d2a:	82c1                	srli	a3,a3,0x10
    2d2c:	4721                	li	a4,8
    2d2e:	00d77363          	bgeu	a4,a3,2d34 <USB_DevTransProcess+0x200>
    2d32:	47a1                	li	a5,8
    2d34:	07c2                	slli	a5,a5,0x10
    2d36:	83c1                	srli	a5,a5,0x10
    2d38:	fef407a3          	sb	a5,-17(s0)
C:/Users/Accepted/Documents/smart_car/Seekfree_CH32V103R8T6_Opensource_Library/Libraries/seekfree_libraries/zf_usb_cdc.c:255
                                memcpy(pEP0_DataBuf,pDescr,len);
    2d3c:	8101a703          	lw	a4,-2032(gp) # 20000020 <_edata>
    2d40:	8341a783          	lw	a5,-1996(gp) # 20000044 <pDescr>
    2d44:	fef44683          	lbu	a3,-17(s0)
    2d48:	8636                	mv	a2,a3
    2d4a:	85be                	mv	a1,a5
    2d4c:	853a                	mv	a0,a4
    2d4e:	0ce010ef          	jal	ra,3e1c <memcpy>
C:/Users/Accepted/Documents/smart_car/Seekfree_CH32V103R8T6_Opensource_Library/Libraries/seekfree_libraries/zf_usb_cdc.c:256
                                pDescr += len;
    2d52:	8341a703          	lw	a4,-1996(gp) # 20000044 <pDescr>
    2d56:	fef44783          	lbu	a5,-17(s0)
    2d5a:	973e                	add	a4,a4,a5
    2d5c:	82e1aa23          	sw	a4,-1996(gp) # 20000044 <pDescr>
C:/Users/Accepted/Documents/smart_car/Seekfree_CH32V103R8T6_Opensource_Library/Libraries/seekfree_libraries/zf_usb_cdc.c:257
                                break;
    2d60:	ab1d                	j	3296 <USB_DevTransProcess+0x762>
C:/Users/Accepted/Documents/smart_car/Seekfree_CH32V103R8T6_Opensource_Library/Libraries/seekfree_libraries/zf_usb_cdc.c:263
                            case SET_CONTROL_LINE_STATE:  //0x22  generates RS-232/V.24 style control signals
                                break;
                            case SET_LINE_CODING:         //0x20  Configure
                                break;
                            default:
                                errflag = 0xFF;
    2d62:	57fd                	li	a5,-1
    2d64:	fef40623          	sb	a5,-20(s0)
    2d68:	a33d                	j	3296 <USB_DevTransProcess+0x762>
C:/Users/Accepted/Documents/smart_car/Seekfree_CH32V103R8T6_Opensource_Library/Libraries/seekfree_libraries/zf_usb_cdc.c:269
                        }
                    }
                    else
                    {
                        //若是标准请求
                        switch( SetupReqCode )
    2d6a:	82d1c783          	lbu	a5,-2003(gp) # 2000003d <SetupReqCode>
    2d6e:	4729                	li	a4,10
    2d70:	4ef76d63          	bltu	a4,a5,326a <USB_DevTransProcess+0x736>
    2d74:	00279713          	slli	a4,a5,0x2
    2d78:	6791                	lui	a5,0x4
    2d7a:	1b078793          	addi	a5,a5,432 # 41b0 <MyProdInfo+0xd0>
    2d7e:	97ba                	add	a5,a5,a4
    2d80:	439c                	lw	a5,0(a5)
    2d82:	8782                	jr	a5
C:/Users/Accepted/Documents/smart_car/Seekfree_CH32V103R8T6_Opensource_Library/Libraries/seekfree_libraries/zf_usb_cdc.c:273 (discriminator 1)
                        {
                            case USB_GET_DESCRIPTOR:                   //获取描述符
                            {
                                switch( ((pSetupReqPak->wValue)>>8) )
    2d84:	8101a783          	lw	a5,-2032(gp) # 20000020 <_edata>
    2d88:	0027c703          	lbu	a4,2(a5)
    2d8c:	0037c783          	lbu	a5,3(a5)
    2d90:	07a2                	slli	a5,a5,0x8
    2d92:	8fd9                	or	a5,a5,a4
    2d94:	07c2                	slli	a5,a5,0x10
    2d96:	83c1                	srli	a5,a5,0x10
    2d98:	83a1                	srli	a5,a5,0x8
    2d9a:	07c2                	slli	a5,a5,0x10
    2d9c:	83c1                	srli	a5,a5,0x10
    2d9e:	4709                	li	a4,2
    2da0:	02e78163          	beq	a5,a4,2dc2 <USB_DevTransProcess+0x28e>
    2da4:	470d                	li	a4,3
    2da6:	02e78863          	beq	a5,a4,2dd6 <USB_DevTransProcess+0x2a2>
    2daa:	4705                	li	a4,1
    2dac:	0ae79863          	bne	a5,a4,2e5c <USB_DevTransProcess+0x328>
C:/Users/Accepted/Documents/smart_car/Seekfree_CH32V103R8T6_Opensource_Library/Libraries/seekfree_libraries/zf_usb_cdc.c:276
                                {
                                    case USB_DESCR_TYP_DEVICE:         //设备描述符
                                        pDescr = MyDevDescr;
    2db0:	6711                	lui	a4,0x4
    2db2:	06470713          	addi	a4,a4,100 # 4064 <MyDevDescr>
    2db6:	82e1aa23          	sw	a4,-1996(gp) # 20000044 <pDescr>
C:/Users/Accepted/Documents/smart_car/Seekfree_CH32V103R8T6_Opensource_Library/Libraries/seekfree_libraries/zf_usb_cdc.c:277
                                        len = MyDevDescr[0];
    2dba:	47c9                	li	a5,18
    2dbc:	fef407a3          	sb	a5,-17(s0)
C:/Users/Accepted/Documents/smart_car/Seekfree_CH32V103R8T6_Opensource_Library/Libraries/seekfree_libraries/zf_usb_cdc.c:278
                                        break;
    2dc0:	a055                	j	2e64 <USB_DevTransProcess+0x330>
C:/Users/Accepted/Documents/smart_car/Seekfree_CH32V103R8T6_Opensource_Library/Libraries/seekfree_libraries/zf_usb_cdc.c:281

                                    case USB_DESCR_TYP_CONFIG:         //配置描述符
                                        pDescr = MyCfgDescr;
    2dc2:	6711                	lui	a4,0x4
    2dc4:	07870713          	addi	a4,a4,120 # 4078 <MyCfgDescr>
    2dc8:	82e1aa23          	sw	a4,-1996(gp) # 20000044 <pDescr>
C:/Users/Accepted/Documents/smart_car/Seekfree_CH32V103R8T6_Opensource_Library/Libraries/seekfree_libraries/zf_usb_cdc.c:282
                                        len = MyCfgDescr[2];
    2dcc:	04300793          	li	a5,67
    2dd0:	fef407a3          	sb	a5,-17(s0)
C:/Users/Accepted/Documents/smart_car/Seekfree_CH32V103R8T6_Opensource_Library/Libraries/seekfree_libraries/zf_usb_cdc.c:283
                                        break;
    2dd4:	a841                	j	2e64 <USB_DevTransProcess+0x330>
C:/Users/Accepted/Documents/smart_car/Seekfree_CH32V103R8T6_Opensource_Library/Libraries/seekfree_libraries/zf_usb_cdc.c:286 (discriminator 2)

                                    case USB_DESCR_TYP_STRING:         //字符串描述符
                                        switch( (pSetupReqPak->wValue)&0xff )
    2dd6:	8101a783          	lw	a5,-2032(gp) # 20000020 <_edata>
    2dda:	0027c703          	lbu	a4,2(a5)
    2dde:	0037c783          	lbu	a5,3(a5)
    2de2:	07a2                	slli	a5,a5,0x8
    2de4:	8fd9                	or	a5,a5,a4
    2de6:	07c2                	slli	a5,a5,0x10
    2de8:	83c1                	srli	a5,a5,0x10
    2dea:	0ff7f793          	andi	a5,a5,255
    2dee:	4705                	li	a4,1
    2df0:	00e78e63          	beq	a5,a4,2e0c <USB_DevTransProcess+0x2d8>
    2df4:	4705                	li	a4,1
    2df6:	00f74463          	blt	a4,a5,2dfe <USB_DevTransProcess+0x2ca>
    2dfa:	cb9d                	beqz	a5,2e30 <USB_DevTransProcess+0x2fc>
    2dfc:	a899                	j	2e52 <USB_DevTransProcess+0x31e>
    2dfe:	4709                	li	a4,2
    2e00:	00e78f63          	beq	a5,a4,2e1e <USB_DevTransProcess+0x2ea>
    2e04:	470d                	li	a4,3
    2e06:	02e78d63          	beq	a5,a4,2e40 <USB_DevTransProcess+0x30c>
    2e0a:	a0a1                	j	2e52 <USB_DevTransProcess+0x31e>
C:/Users/Accepted/Documents/smart_car/Seekfree_CH32V103R8T6_Opensource_Library/Libraries/seekfree_libraries/zf_usb_cdc.c:289
                                        {
                                            case 1:
                                                pDescr = MyManuInfo;   //厂商信息
    2e0c:	6711                	lui	a4,0x4
    2e0e:	0d070713          	addi	a4,a4,208 # 40d0 <MyManuInfo>
    2e12:	82e1aa23          	sw	a4,-1996(gp) # 20000044 <pDescr>
C:/Users/Accepted/Documents/smart_car/Seekfree_CH32V103R8T6_Opensource_Library/Libraries/seekfree_libraries/zf_usb_cdc.c:290
                                                len = MyManuInfo[0];
    2e16:	47b9                	li	a5,14
    2e18:	fef407a3          	sb	a5,-17(s0)
C:/Users/Accepted/Documents/smart_car/Seekfree_CH32V103R8T6_Opensource_Library/Libraries/seekfree_libraries/zf_usb_cdc.c:291
                                                break;
    2e1c:	a83d                	j	2e5a <USB_DevTransProcess+0x326>
C:/Users/Accepted/Documents/smart_car/Seekfree_CH32V103R8T6_Opensource_Library/Libraries/seekfree_libraries/zf_usb_cdc.c:294

                                            case 2:
                                                pDescr = MyProdInfo;   //产品信息
    2e1e:	6711                	lui	a4,0x4
    2e20:	0e070713          	addi	a4,a4,224 # 40e0 <MyProdInfo>
    2e24:	82e1aa23          	sw	a4,-1996(gp) # 20000044 <pDescr>
C:/Users/Accepted/Documents/smart_car/Seekfree_CH32V103R8T6_Opensource_Library/Libraries/seekfree_libraries/zf_usb_cdc.c:295
                                                len = MyProdInfo[0];
    2e28:	47b1                	li	a5,12
    2e2a:	fef407a3          	sb	a5,-17(s0)
C:/Users/Accepted/Documents/smart_car/Seekfree_CH32V103R8T6_Opensource_Library/Libraries/seekfree_libraries/zf_usb_cdc.c:296
                                                break;
    2e2e:	a035                	j	2e5a <USB_DevTransProcess+0x326>
C:/Users/Accepted/Documents/smart_car/Seekfree_CH32V103R8T6_Opensource_Library/Libraries/seekfree_libraries/zf_usb_cdc.c:299

                                            case 0:
                                                pDescr = MyLangDescr;  //语言信息
    2e30:	80c18713          	addi	a4,gp,-2036 # 2000001c <MyLangDescr>
    2e34:	82e1aa23          	sw	a4,-1996(gp) # 20000044 <pDescr>
C:/Users/Accepted/Documents/smart_car/Seekfree_CH32V103R8T6_Opensource_Library/Libraries/seekfree_libraries/zf_usb_cdc.c:300
                                                len = MyLangDescr[0];
    2e38:	4791                	li	a5,4
    2e3a:	fef407a3          	sb	a5,-17(s0)
C:/Users/Accepted/Documents/smart_car/Seekfree_CH32V103R8T6_Opensource_Library/Libraries/seekfree_libraries/zf_usb_cdc.c:301
                                                break;
    2e3e:	a831                	j	2e5a <USB_DevTransProcess+0x326>
C:/Users/Accepted/Documents/smart_car/Seekfree_CH32V103R8T6_Opensource_Library/Libraries/seekfree_libraries/zf_usb_cdc.c:304

                                            case 3:
                                                pDescr = (PUINT8)( &MyProductIDInfo[0] ); //产品序列号
    2e40:	6711                	lui	a4,0x4
    2e42:	0bc70713          	addi	a4,a4,188 # 40bc <MyProductIDInfo>
    2e46:	82e1aa23          	sw	a4,-1996(gp) # 20000044 <pDescr>
C:/Users/Accepted/Documents/smart_car/Seekfree_CH32V103R8T6_Opensource_Library/Libraries/seekfree_libraries/zf_usb_cdc.c:305
                                                len = sizeof( MyProductIDInfo );
    2e4a:	47d1                	li	a5,20
    2e4c:	fef407a3          	sb	a5,-17(s0)
C:/Users/Accepted/Documents/smart_car/Seekfree_CH32V103R8T6_Opensource_Library/Libraries/seekfree_libraries/zf_usb_cdc.c:306
                                                break;
    2e50:	a029                	j	2e5a <USB_DevTransProcess+0x326>
C:/Users/Accepted/Documents/smart_car/Seekfree_CH32V103R8T6_Opensource_Library/Libraries/seekfree_libraries/zf_usb_cdc.c:309

                                            default:
                                                errflag = 0xFF;
    2e52:	57fd                	li	a5,-1
    2e54:	fef40623          	sb	a5,-20(s0)
C:/Users/Accepted/Documents/smart_car/Seekfree_CH32V103R8T6_Opensource_Library/Libraries/seekfree_libraries/zf_usb_cdc.c:310
                                                break;
    2e58:	0001                	nop
C:/Users/Accepted/Documents/smart_car/Seekfree_CH32V103R8T6_Opensource_Library/Libraries/seekfree_libraries/zf_usb_cdc.c:312
                                        }
                                        break;
    2e5a:	a029                	j	2e64 <USB_DevTransProcess+0x330>
C:/Users/Accepted/Documents/smart_car/Seekfree_CH32V103R8T6_Opensource_Library/Libraries/seekfree_libraries/zf_usb_cdc.c:315

                                    default :
                                        errflag = 0xff;
    2e5c:	57fd                	li	a5,-1
    2e5e:	fef40623          	sb	a5,-20(s0)
C:/Users/Accepted/Documents/smart_car/Seekfree_CH32V103R8T6_Opensource_Library/Libraries/seekfree_libraries/zf_usb_cdc.c:316
                                        break;
    2e62:	0001                	nop
C:/Users/Accepted/Documents/smart_car/Seekfree_CH32V103R8T6_Opensource_Library/Libraries/seekfree_libraries/zf_usb_cdc.c:319
                                }

                                if( SetupReqLen>len )   SetupReqLen = len;
    2e64:	fef44783          	lbu	a5,-17(s0)
    2e68:	01079713          	slli	a4,a5,0x10
    2e6c:	8341                	srli	a4,a4,0x10
    2e6e:	82e1d783          	lhu	a5,-2002(gp) # 2000003e <SetupReqLen>
    2e72:	00f77963          	bgeu	a4,a5,2e84 <USB_DevTransProcess+0x350>
C:/Users/Accepted/Documents/smart_car/Seekfree_CH32V103R8T6_Opensource_Library/Libraries/seekfree_libraries/zf_usb_cdc.c:319 (discriminator 1)
    2e76:	fef44783          	lbu	a5,-17(s0)
    2e7a:	01079713          	slli	a4,a5,0x10
    2e7e:	8341                	srli	a4,a4,0x10
    2e80:	82e19723          	sh	a4,-2002(gp) # 2000003e <SetupReqLen>
C:/Users/Accepted/Documents/smart_car/Seekfree_CH32V103R8T6_Opensource_Library/Libraries/seekfree_libraries/zf_usb_cdc.c:320
                                len = (SetupReqLen >= DevEP0SIZE) ? DevEP0SIZE : SetupReqLen;
    2e84:	82e1d783          	lhu	a5,-2002(gp) # 2000003e <SetupReqLen>
    2e88:	01079693          	slli	a3,a5,0x10
    2e8c:	82c1                	srli	a3,a3,0x10
    2e8e:	04000713          	li	a4,64
    2e92:	00d77463          	bgeu	a4,a3,2e9a <USB_DevTransProcess+0x366>
    2e96:	04000793          	li	a5,64
    2e9a:	07c2                	slli	a5,a5,0x10
    2e9c:	83c1                	srli	a5,a5,0x10
    2e9e:	fef407a3          	sb	a5,-17(s0)
C:/Users/Accepted/Documents/smart_car/Seekfree_CH32V103R8T6_Opensource_Library/Libraries/seekfree_libraries/zf_usb_cdc.c:321
                                memcpy( pEP0_DataBuf, pDescr, len );
    2ea2:	8101a703          	lw	a4,-2032(gp) # 20000020 <_edata>
    2ea6:	8341a783          	lw	a5,-1996(gp) # 20000044 <pDescr>
    2eaa:	fef44683          	lbu	a3,-17(s0)
    2eae:	8636                	mv	a2,a3
    2eb0:	85be                	mv	a1,a5
    2eb2:	853a                	mv	a0,a4
    2eb4:	769000ef          	jal	ra,3e1c <memcpy>
C:/Users/Accepted/Documents/smart_car/Seekfree_CH32V103R8T6_Opensource_Library/Libraries/seekfree_libraries/zf_usb_cdc.c:322
                                pDescr += len;
    2eb8:	8341a703          	lw	a4,-1996(gp) # 20000044 <pDescr>
    2ebc:	fef44783          	lbu	a5,-17(s0)
    2ec0:	973e                	add	a4,a4,a5
    2ec2:	82e1aa23          	sw	a4,-1996(gp) # 20000044 <pDescr>
C:/Users/Accepted/Documents/smart_car/Seekfree_CH32V103R8T6_Opensource_Library/Libraries/seekfree_libraries/zf_usb_cdc.c:324
                            }
                                break;
    2ec6:	aec1                	j	3296 <USB_DevTransProcess+0x762>
C:/Users/Accepted/Documents/smart_car/Seekfree_CH32V103R8T6_Opensource_Library/Libraries/seekfree_libraries/zf_usb_cdc.c:327

                            case USB_SET_ADDRESS:
                                SetupReqLen = (pSetupReqPak->wValue)&0xff;
    2ec8:	8101a783          	lw	a5,-2032(gp) # 20000020 <_edata>
    2ecc:	0027c703          	lbu	a4,2(a5)
    2ed0:	0037c783          	lbu	a5,3(a5)
    2ed4:	07a2                	slli	a5,a5,0x8
    2ed6:	8fd9                	or	a5,a5,a4
    2ed8:	07c2                	slli	a5,a5,0x10
    2eda:	83c1                	srli	a5,a5,0x10
    2edc:	0ff7f793          	andi	a5,a5,255
    2ee0:	01079713          	slli	a4,a5,0x10
    2ee4:	8341                	srli	a4,a4,0x10
    2ee6:	82e19723          	sh	a4,-2002(gp) # 2000003e <SetupReqLen>
C:/Users/Accepted/Documents/smart_car/Seekfree_CH32V103R8T6_Opensource_Library/Libraries/seekfree_libraries/zf_usb_cdc.c:328
                                break;
    2eea:	a675                	j	3296 <USB_DevTransProcess+0x762>
C:/Users/Accepted/Documents/smart_car/Seekfree_CH32V103R8T6_Opensource_Library/Libraries/seekfree_libraries/zf_usb_cdc.c:331

                            case USB_GET_CONFIGURATION:
                                pEP0_DataBuf[0] = UsbConfig;
    2eec:	8101a783          	lw	a5,-2032(gp) # 20000020 <_edata>
    2ef0:	82c1c703          	lbu	a4,-2004(gp) # 2000003c <UsbConfig>
    2ef4:	00e78023          	sb	a4,0(a5)
C:/Users/Accepted/Documents/smart_car/Seekfree_CH32V103R8T6_Opensource_Library/Libraries/seekfree_libraries/zf_usb_cdc.c:332
                                if ( SetupReqLen > 1 ) SetupReqLen = 1;
    2ef8:	82e1d703          	lhu	a4,-2002(gp) # 2000003e <SetupReqLen>
    2efc:	4785                	li	a5,1
    2efe:	38e7f363          	bgeu	a5,a4,3284 <USB_DevTransProcess+0x750>
C:/Users/Accepted/Documents/smart_car/Seekfree_CH32V103R8T6_Opensource_Library/Libraries/seekfree_libraries/zf_usb_cdc.c:332 (discriminator 1)
    2f02:	4705                	li	a4,1
    2f04:	82e19723          	sh	a4,-2002(gp) # 2000003e <SetupReqLen>
C:/Users/Accepted/Documents/smart_car/Seekfree_CH32V103R8T6_Opensource_Library/Libraries/seekfree_libraries/zf_usb_cdc.c:333 (discriminator 1)
                                break;
    2f08:	aeb5                	j	3284 <USB_DevTransProcess+0x750>
C:/Users/Accepted/Documents/smart_car/Seekfree_CH32V103R8T6_Opensource_Library/Libraries/seekfree_libraries/zf_usb_cdc.c:336

                            case USB_SET_CONFIGURATION:
                                UsbConfig = (pSetupReqPak->wValue)&0xff;
    2f0a:	8101a783          	lw	a5,-2032(gp) # 20000020 <_edata>
    2f0e:	0027c703          	lbu	a4,2(a5)
    2f12:	0037c783          	lbu	a5,3(a5)
    2f16:	07a2                	slli	a5,a5,0x8
    2f18:	8fd9                	or	a5,a5,a4
    2f1a:	07c2                	slli	a5,a5,0x10
    2f1c:	83c1                	srli	a5,a5,0x10
    2f1e:	0ff7f713          	andi	a4,a5,255
    2f22:	82e18623          	sb	a4,-2004(gp) # 2000003c <UsbConfig>
C:/Users/Accepted/Documents/smart_car/Seekfree_CH32V103R8T6_Opensource_Library/Libraries/seekfree_libraries/zf_usb_cdc.c:337
                                break;
    2f26:	ae85                	j	3296 <USB_DevTransProcess+0x762>
C:/Users/Accepted/Documents/smart_car/Seekfree_CH32V103R8T6_Opensource_Library/Libraries/seekfree_libraries/zf_usb_cdc.c:340

                            case USB_CLEAR_FEATURE:
                                if( ( pSetupReqPak->bRequestType & 0x1F ) == USB_REQ_RECIP_DEVICE )  /* 清除设备 */
    2f28:	8101a783          	lw	a5,-2032(gp) # 20000020 <_edata>
    2f2c:	0007c783          	lbu	a5,0(a5)
    2f30:	8bfd                	andi	a5,a5,31
    2f32:	ef8d                	bnez	a5,2f6c <USB_DevTransProcess+0x438>
C:/Users/Accepted/Documents/smart_car/Seekfree_CH32V103R8T6_Opensource_Library/Libraries/seekfree_libraries/zf_usb_cdc.c:342
                                {
                                    if((pSetupReqPak->wValue) == 0x01 )
    2f34:	8101a783          	lw	a5,-2032(gp) # 20000020 <_edata>
    2f38:	0027c703          	lbu	a4,2(a5)
    2f3c:	0037c783          	lbu	a5,3(a5)
    2f40:	07a2                	slli	a5,a5,0x8
    2f42:	8fd9                	or	a5,a5,a4
    2f44:	01079713          	slli	a4,a5,0x10
    2f48:	8341                	srli	a4,a4,0x10
    2f4a:	4785                	li	a5,1
    2f4c:	00f71c63          	bne	a4,a5,2f64 <USB_DevTransProcess+0x430>
C:/Users/Accepted/Documents/smart_car/Seekfree_CH32V103R8T6_Opensource_Library/Libraries/seekfree_libraries/zf_usb_cdc.c:344
                                    {
                                       if( MyCfgDescr[ 7 ] & 0x20 )
    2f50:	0a000793          	li	a5,160
    2f54:	0207f793          	andi	a5,a5,32
    2f58:	32079863          	bnez	a5,3288 <USB_DevTransProcess+0x754>
C:/Users/Accepted/Documents/smart_car/Seekfree_CH32V103R8T6_Opensource_Library/Libraries/seekfree_libraries/zf_usb_cdc.c:350
                                       {
                                           /* 唤醒 */
                                       }
                                       else
                                       {
                                           errflag = 0xFF;                                           /* 操作失败 */
    2f5c:	57fd                	li	a5,-1
    2f5e:	fef40623          	sb	a5,-20(s0)
C:/Users/Accepted/Documents/smart_car/Seekfree_CH32V103R8T6_Opensource_Library/Libraries/seekfree_libraries/zf_usb_cdc.c:385
                                            break;

                                    }
                                }
                                else    errflag = 0xFF;
                                break;
    2f62:	a61d                	j	3288 <USB_DevTransProcess+0x754>
C:/Users/Accepted/Documents/smart_car/Seekfree_CH32V103R8T6_Opensource_Library/Libraries/seekfree_libraries/zf_usb_cdc.c:355
                                        errflag = 0xFF;                                              /* 操作失败 */
    2f64:	57fd                	li	a5,-1
    2f66:	fef40623          	sb	a5,-20(s0)
C:/Users/Accepted/Documents/smart_car/Seekfree_CH32V103R8T6_Opensource_Library/Libraries/seekfree_libraries/zf_usb_cdc.c:385
                                break;
    2f6a:	ae39                	j	3288 <USB_DevTransProcess+0x754>
C:/Users/Accepted/Documents/smart_car/Seekfree_CH32V103R8T6_Opensource_Library/Libraries/seekfree_libraries/zf_usb_cdc.c:358
                                else if ( ( pSetupReqPak->bRequestType & USB_REQ_RECIP_MASK ) == USB_REQ_RECIP_ENDP )
    2f6c:	8101a783          	lw	a5,-2032(gp) # 20000020 <_edata>
    2f70:	0007c783          	lbu	a5,0(a5)
    2f74:	01f7f713          	andi	a4,a5,31
    2f78:	4789                	li	a5,2
    2f7a:	10f71363          	bne	a4,a5,3080 <USB_DevTransProcess+0x54c>
C:/Users/Accepted/Documents/smart_car/Seekfree_CH32V103R8T6_Opensource_Library/Libraries/seekfree_libraries/zf_usb_cdc.c:360
                                    switch( (pSetupReqPak->wIndex)&0xff )
    2f7e:	8101a783          	lw	a5,-2032(gp) # 20000020 <_edata>
    2f82:	0047c703          	lbu	a4,4(a5)
    2f86:	0057c783          	lbu	a5,5(a5)
    2f8a:	07a2                	slli	a5,a5,0x8
    2f8c:	8fd9                	or	a5,a5,a4
    2f8e:	07c2                	slli	a5,a5,0x10
    2f90:	83c1                	srli	a5,a5,0x10
    2f92:	0ff7f793          	andi	a5,a5,255
    2f96:	4709                	li	a4,2
    2f98:	04e78d63          	beq	a5,a4,2ff2 <USB_DevTransProcess+0x4be>
    2f9c:	4709                	li	a4,2
    2f9e:	00f74663          	blt	a4,a5,2faa <USB_DevTransProcess+0x476>
    2fa2:	4705                	li	a4,1
    2fa4:	0ae78663          	beq	a5,a4,3050 <USB_DevTransProcess+0x51c>
    2fa8:	a0f9                	j	3076 <USB_DevTransProcess+0x542>
    2faa:	08100713          	li	a4,129
    2fae:	06e78563          	beq	a5,a4,3018 <USB_DevTransProcess+0x4e4>
    2fb2:	08200713          	li	a4,130
    2fb6:	0ce79063          	bne	a5,a4,3076 <USB_DevTransProcess+0x542>
C:/Users/Accepted/Documents/smart_car/Seekfree_CH32V103R8T6_Opensource_Library/Libraries/seekfree_libraries/zf_usb_cdc.c:363
                                            R8_UEP2_CTRL = (R8_UEP2_CTRL & ~( RB_UEP_T_TOG|MASK_UEP_T_RES )) | UEP_T_RES_NAK;
    2fba:	400237b7          	lui	a5,0x40023
    2fbe:	43a78793          	addi	a5,a5,1082 # 4002343a <_eusrstack+0x2001e43a>
    2fc2:	0007c783          	lbu	a5,0(a5)
    2fc6:	0ff7f793          	andi	a5,a5,255
    2fca:	07e2                	slli	a5,a5,0x18
    2fcc:	87e1                	srai	a5,a5,0x18
    2fce:	fbc7f793          	andi	a5,a5,-68
    2fd2:	07e2                	slli	a5,a5,0x18
    2fd4:	87e1                	srai	a5,a5,0x18
    2fd6:	0027e793          	ori	a5,a5,2
    2fda:	01879713          	slli	a4,a5,0x18
    2fde:	8761                	srai	a4,a4,0x18
    2fe0:	400237b7          	lui	a5,0x40023
    2fe4:	43a78793          	addi	a5,a5,1082 # 4002343a <_eusrstack+0x2001e43a>
    2fe8:	0ff77713          	andi	a4,a4,255
    2fec:	00e78023          	sb	a4,0(a5)
C:/Users/Accepted/Documents/smart_car/Seekfree_CH32V103R8T6_Opensource_Library/Libraries/seekfree_libraries/zf_usb_cdc.c:364
                                            break;
    2ff0:	a861                	j	3088 <USB_DevTransProcess+0x554>
C:/Users/Accepted/Documents/smart_car/Seekfree_CH32V103R8T6_Opensource_Library/Libraries/seekfree_libraries/zf_usb_cdc.c:367
                                            R8_UEP2_CTRL = (R8_UEP2_CTRL & ~( RB_UEP_R_TOG|MASK_UEP_R_RES )) | UEP_R_RES_ACK;
    2ff2:	400237b7          	lui	a5,0x40023
    2ff6:	43a78793          	addi	a5,a5,1082 # 4002343a <_eusrstack+0x2001e43a>
    2ffa:	0007c783          	lbu	a5,0(a5)
    2ffe:	0ff7f713          	andi	a4,a5,255
    3002:	400237b7          	lui	a5,0x40023
    3006:	43a78793          	addi	a5,a5,1082 # 4002343a <_eusrstack+0x2001e43a>
    300a:	07377713          	andi	a4,a4,115
    300e:	0ff77713          	andi	a4,a4,255
    3012:	00e78023          	sb	a4,0(a5)
C:/Users/Accepted/Documents/smart_car/Seekfree_CH32V103R8T6_Opensource_Library/Libraries/seekfree_libraries/zf_usb_cdc.c:368
                                            break;
    3016:	a88d                	j	3088 <USB_DevTransProcess+0x554>
C:/Users/Accepted/Documents/smart_car/Seekfree_CH32V103R8T6_Opensource_Library/Libraries/seekfree_libraries/zf_usb_cdc.c:371
                                            R8_UEP1_CTRL = (R8_UEP1_CTRL & ~( RB_UEP_T_TOG|MASK_UEP_T_RES )) | UEP_T_RES_NAK;
    3018:	400237b7          	lui	a5,0x40023
    301c:	43678793          	addi	a5,a5,1078 # 40023436 <_eusrstack+0x2001e436>
    3020:	0007c783          	lbu	a5,0(a5)
    3024:	0ff7f793          	andi	a5,a5,255
    3028:	07e2                	slli	a5,a5,0x18
    302a:	87e1                	srai	a5,a5,0x18
    302c:	fbc7f793          	andi	a5,a5,-68
    3030:	07e2                	slli	a5,a5,0x18
    3032:	87e1                	srai	a5,a5,0x18
    3034:	0027e793          	ori	a5,a5,2
    3038:	01879713          	slli	a4,a5,0x18
    303c:	8761                	srai	a4,a4,0x18
    303e:	400237b7          	lui	a5,0x40023
    3042:	43678793          	addi	a5,a5,1078 # 40023436 <_eusrstack+0x2001e436>
    3046:	0ff77713          	andi	a4,a4,255
    304a:	00e78023          	sb	a4,0(a5)
C:/Users/Accepted/Documents/smart_car/Seekfree_CH32V103R8T6_Opensource_Library/Libraries/seekfree_libraries/zf_usb_cdc.c:372
                                            break;
    304e:	a82d                	j	3088 <USB_DevTransProcess+0x554>
C:/Users/Accepted/Documents/smart_car/Seekfree_CH32V103R8T6_Opensource_Library/Libraries/seekfree_libraries/zf_usb_cdc.c:375
                                            R8_UEP1_CTRL = (R8_UEP1_CTRL & ~( RB_UEP_R_TOG|MASK_UEP_R_RES )) | UEP_R_RES_ACK;
    3050:	400237b7          	lui	a5,0x40023
    3054:	43678793          	addi	a5,a5,1078 # 40023436 <_eusrstack+0x2001e436>
    3058:	0007c783          	lbu	a5,0(a5)
    305c:	0ff7f713          	andi	a4,a5,255
    3060:	400237b7          	lui	a5,0x40023
    3064:	43678793          	addi	a5,a5,1078 # 40023436 <_eusrstack+0x2001e436>
    3068:	07377713          	andi	a4,a4,115
    306c:	0ff77713          	andi	a4,a4,255
    3070:	00e78023          	sb	a4,0(a5)
C:/Users/Accepted/Documents/smart_car/Seekfree_CH32V103R8T6_Opensource_Library/Libraries/seekfree_libraries/zf_usb_cdc.c:376
                                            break;
    3074:	a811                	j	3088 <USB_DevTransProcess+0x554>
C:/Users/Accepted/Documents/smart_car/Seekfree_CH32V103R8T6_Opensource_Library/Libraries/seekfree_libraries/zf_usb_cdc.c:379
                                            errflag = 0xFF;
    3076:	57fd                	li	a5,-1
    3078:	fef40623          	sb	a5,-20(s0)
C:/Users/Accepted/Documents/smart_car/Seekfree_CH32V103R8T6_Opensource_Library/Libraries/seekfree_libraries/zf_usb_cdc.c:380
                                            break;
    307c:	0001                	nop
    307e:	a029                	j	3088 <USB_DevTransProcess+0x554>
C:/Users/Accepted/Documents/smart_car/Seekfree_CH32V103R8T6_Opensource_Library/Libraries/seekfree_libraries/zf_usb_cdc.c:384
                                else    errflag = 0xFF;
    3080:	57fd                	li	a5,-1
    3082:	fef40623          	sb	a5,-20(s0)
C:/Users/Accepted/Documents/smart_car/Seekfree_CH32V103R8T6_Opensource_Library/Libraries/seekfree_libraries/zf_usb_cdc.c:385
                                break;
    3086:	a409                	j	3288 <USB_DevTransProcess+0x754>
C:/Users/Accepted/Documents/smart_car/Seekfree_CH32V103R8T6_Opensource_Library/Libraries/seekfree_libraries/zf_usb_cdc.c:385 (discriminator 5)
    3088:	a401                	j	3288 <USB_DevTransProcess+0x754>
C:/Users/Accepted/Documents/smart_car/Seekfree_CH32V103R8T6_Opensource_Library/Libraries/seekfree_libraries/zf_usb_cdc.c:388

                            case USB_SET_FEATURE:                                          /* Set Feature */
                                if( ( pSetupReqPak->bRequestType & 0x1F ) == USB_REQ_RECIP_DEVICE )                  /* 设置设备 */
    308a:	8101a783          	lw	a5,-2032(gp) # 20000020 <_edata>
    308e:	0007c783          	lbu	a5,0(a5)
    3092:	8bfd                	andi	a5,a5,31
    3094:	ef8d                	bnez	a5,30ce <USB_DevTransProcess+0x59a>
C:/Users/Accepted/Documents/smart_car/Seekfree_CH32V103R8T6_Opensource_Library/Libraries/seekfree_libraries/zf_usb_cdc.c:390
                                {
                                    if(( pSetupReqPak->wValue) == 0x01 )
    3096:	8101a783          	lw	a5,-2032(gp) # 20000020 <_edata>
    309a:	0027c703          	lbu	a4,2(a5)
    309e:	0037c783          	lbu	a5,3(a5)
    30a2:	07a2                	slli	a5,a5,0x8
    30a4:	8fd9                	or	a5,a5,a4
    30a6:	01079713          	slli	a4,a5,0x10
    30aa:	8341                	srli	a4,a4,0x10
    30ac:	4785                	li	a5,1
    30ae:	00f71c63          	bne	a4,a5,30c6 <USB_DevTransProcess+0x592>
C:/Users/Accepted/Documents/smart_car/Seekfree_CH32V103R8T6_Opensource_Library/Libraries/seekfree_libraries/zf_usb_cdc.c:392
                                    {
                                        if( MyCfgDescr[ 7 ] & 0x20 )
    30b2:	0a000793          	li	a5,160
    30b6:	0207f793          	andi	a5,a5,32
    30ba:	1c079963          	bnez	a5,328c <USB_DevTransProcess+0x758>
C:/Users/Accepted/Documents/smart_car/Seekfree_CH32V103R8T6_Opensource_Library/Libraries/seekfree_libraries/zf_usb_cdc.c:398
                                        {
                                            ;
                                        }
                                        else
                                        {
                                            errflag = 0xFF;                                        /* 操作失败 */
    30be:	57fd                	li	a5,-1
    30c0:	fef40623          	sb	a5,-20(s0)
C:/Users/Accepted/Documents/smart_car/Seekfree_CH32V103R8T6_Opensource_Library/Libraries/seekfree_libraries/zf_usb_cdc.c:438
                                }
                                else
                                {
                                    errflag = 0xFF;                                          /* 操作失败 */
                                }
                                break;
    30c4:	a2e1                	j	328c <USB_DevTransProcess+0x758>
C:/Users/Accepted/Documents/smart_car/Seekfree_CH32V103R8T6_Opensource_Library/Libraries/seekfree_libraries/zf_usb_cdc.c:403
                                         errflag = 0xFF;                                           /* 操作失败 */
    30c6:	57fd                	li	a5,-1
    30c8:	fef40623          	sb	a5,-20(s0)
C:/Users/Accepted/Documents/smart_car/Seekfree_CH32V103R8T6_Opensource_Library/Libraries/seekfree_libraries/zf_usb_cdc.c:438
                                break;
    30cc:	a2c1                	j	328c <USB_DevTransProcess+0x758>
C:/Users/Accepted/Documents/smart_car/Seekfree_CH32V103R8T6_Opensource_Library/Libraries/seekfree_libraries/zf_usb_cdc.c:406
                                else if( ( pSetupReqPak->bRequestType & 0x1F ) == USB_REQ_RECIP_ENDP )                /* 设置端点 */
    30ce:	8101a783          	lw	a5,-2032(gp) # 20000020 <_edata>
    30d2:	0007c783          	lbu	a5,0(a5)
    30d6:	01f7f713          	andi	a4,a5,31
    30da:	4789                	li	a5,2
    30dc:	14f71363          	bne	a4,a5,3222 <USB_DevTransProcess+0x6ee>
C:/Users/Accepted/Documents/smart_car/Seekfree_CH32V103R8T6_Opensource_Library/Libraries/seekfree_libraries/zf_usb_cdc.c:408
                                    if(( pSetupReqPak->wValue) == 0x00 )
    30e0:	8101a783          	lw	a5,-2032(gp) # 20000020 <_edata>
    30e4:	0027c703          	lbu	a4,2(a5)
    30e8:	0037c783          	lbu	a5,3(a5)
    30ec:	07a2                	slli	a5,a5,0x8
    30ee:	8fd9                	or	a5,a5,a4
    30f0:	07c2                	slli	a5,a5,0x10
    30f2:	83c1                	srli	a5,a5,0x10
    30f4:	12079363          	bnez	a5,321a <USB_DevTransProcess+0x6e6>
C:/Users/Accepted/Documents/smart_car/Seekfree_CH32V103R8T6_Opensource_Library/Libraries/seekfree_libraries/zf_usb_cdc.c:410
                                        switch(pSetupReqPak->wIndex)
    30f8:	8101a783          	lw	a5,-2032(gp) # 20000020 <_edata>
    30fc:	0047c703          	lbu	a4,4(a5)
    3100:	0057c783          	lbu	a5,5(a5)
    3104:	07a2                	slli	a5,a5,0x8
    3106:	8fd9                	or	a5,a5,a4
    3108:	07c2                	slli	a5,a5,0x10
    310a:	83c1                	srli	a5,a5,0x10
    310c:	4709                	li	a4,2
    310e:	04e78d63          	beq	a5,a4,3168 <USB_DevTransProcess+0x634>
    3112:	4709                	li	a4,2
    3114:	00f74663          	blt	a4,a5,3120 <USB_DevTransProcess+0x5ec>
    3118:	4705                	li	a4,1
    311a:	0ae78f63          	beq	a5,a4,31d8 <USB_DevTransProcess+0x6a4>
    311e:	a8cd                	j	3210 <USB_DevTransProcess+0x6dc>
    3120:	08100713          	li	a4,129
    3124:	06e78e63          	beq	a5,a4,31a0 <USB_DevTransProcess+0x66c>
    3128:	08200713          	li	a4,130
    312c:	0ee79263          	bne	a5,a4,3210 <USB_DevTransProcess+0x6dc>
C:/Users/Accepted/Documents/smart_car/Seekfree_CH32V103R8T6_Opensource_Library/Libraries/seekfree_libraries/zf_usb_cdc.c:413
                                                    R8_UEP2_CTRL = (R8_UEP2_CTRL & (~RB_UEP_R_TOG)) | UEP_T_RES_STALL;/* 设置端点2 IN STALL */
    3130:	400237b7          	lui	a5,0x40023
    3134:	43a78793          	addi	a5,a5,1082 # 4002343a <_eusrstack+0x2001e43a>
    3138:	0007c783          	lbu	a5,0(a5)
    313c:	0ff7f793          	andi	a5,a5,255
    3140:	07e2                	slli	a5,a5,0x18
    3142:	87e1                	srai	a5,a5,0x18
    3144:	07c7f793          	andi	a5,a5,124
    3148:	07e2                	slli	a5,a5,0x18
    314a:	87e1                	srai	a5,a5,0x18
    314c:	0037e793          	ori	a5,a5,3
    3150:	01879713          	slli	a4,a5,0x18
    3154:	8761                	srai	a4,a4,0x18
    3156:	400237b7          	lui	a5,0x40023
    315a:	43a78793          	addi	a5,a5,1082 # 4002343a <_eusrstack+0x2001e43a>
    315e:	0ff77713          	andi	a4,a4,255
    3162:	00e78023          	sb	a4,0(a5)
C:/Users/Accepted/Documents/smart_car/Seekfree_CH32V103R8T6_Opensource_Library/Libraries/seekfree_libraries/zf_usb_cdc.c:414
                                                    break;
    3166:	a0d1                	j	322a <USB_DevTransProcess+0x6f6>
C:/Users/Accepted/Documents/smart_car/Seekfree_CH32V103R8T6_Opensource_Library/Libraries/seekfree_libraries/zf_usb_cdc.c:416
                                                    R8_UEP2_CTRL = (R8_UEP2_CTRL & (~RB_UEP_R_TOG)) | UEP_R_RES_STALL;/* 设置端点2 OUT Stall */
    3168:	400237b7          	lui	a5,0x40023
    316c:	43a78793          	addi	a5,a5,1082 # 4002343a <_eusrstack+0x2001e43a>
    3170:	0007c783          	lbu	a5,0(a5)
    3174:	0ff7f793          	andi	a5,a5,255
    3178:	07e2                	slli	a5,a5,0x18
    317a:	87e1                	srai	a5,a5,0x18
    317c:	0737f793          	andi	a5,a5,115
    3180:	07e2                	slli	a5,a5,0x18
    3182:	87e1                	srai	a5,a5,0x18
    3184:	00c7e793          	ori	a5,a5,12
    3188:	01879713          	slli	a4,a5,0x18
    318c:	8761                	srai	a4,a4,0x18
    318e:	400237b7          	lui	a5,0x40023
    3192:	43a78793          	addi	a5,a5,1082 # 4002343a <_eusrstack+0x2001e43a>
    3196:	0ff77713          	andi	a4,a4,255
    319a:	00e78023          	sb	a4,0(a5)
C:/Users/Accepted/Documents/smart_car/Seekfree_CH32V103R8T6_Opensource_Library/Libraries/seekfree_libraries/zf_usb_cdc.c:417
                                                    break;
    319e:	a071                	j	322a <USB_DevTransProcess+0x6f6>
C:/Users/Accepted/Documents/smart_car/Seekfree_CH32V103R8T6_Opensource_Library/Libraries/seekfree_libraries/zf_usb_cdc.c:419
                                                    R8_UEP1_CTRL = (R8_UEP1_CTRL & (~RB_UEP_R_TOG)) | UEP_T_RES_STALL;/* 设置端点1 IN STALL */
    31a0:	400237b7          	lui	a5,0x40023
    31a4:	43678793          	addi	a5,a5,1078 # 40023436 <_eusrstack+0x2001e436>
    31a8:	0007c783          	lbu	a5,0(a5)
    31ac:	0ff7f793          	andi	a5,a5,255
    31b0:	07e2                	slli	a5,a5,0x18
    31b2:	87e1                	srai	a5,a5,0x18
    31b4:	07c7f793          	andi	a5,a5,124
    31b8:	07e2                	slli	a5,a5,0x18
    31ba:	87e1                	srai	a5,a5,0x18
    31bc:	0037e793          	ori	a5,a5,3
    31c0:	01879713          	slli	a4,a5,0x18
    31c4:	8761                	srai	a4,a4,0x18
    31c6:	400237b7          	lui	a5,0x40023
    31ca:	43678793          	addi	a5,a5,1078 # 40023436 <_eusrstack+0x2001e436>
    31ce:	0ff77713          	andi	a4,a4,255
    31d2:	00e78023          	sb	a4,0(a5)
C:/Users/Accepted/Documents/smart_car/Seekfree_CH32V103R8T6_Opensource_Library/Libraries/seekfree_libraries/zf_usb_cdc.c:420
                                                    break;
    31d6:	a891                	j	322a <USB_DevTransProcess+0x6f6>
C:/Users/Accepted/Documents/smart_car/Seekfree_CH32V103R8T6_Opensource_Library/Libraries/seekfree_libraries/zf_usb_cdc.c:422
                                                    R8_UEP1_CTRL = (R8_UEP1_CTRL & (~RB_UEP_R_TOG)) | UEP_R_RES_STALL;/* 设置端点1 OUT Stall */
    31d8:	400237b7          	lui	a5,0x40023
    31dc:	43678793          	addi	a5,a5,1078 # 40023436 <_eusrstack+0x2001e436>
    31e0:	0007c783          	lbu	a5,0(a5)
    31e4:	0ff7f793          	andi	a5,a5,255
    31e8:	07e2                	slli	a5,a5,0x18
    31ea:	87e1                	srai	a5,a5,0x18
    31ec:	0737f793          	andi	a5,a5,115
    31f0:	07e2                	slli	a5,a5,0x18
    31f2:	87e1                	srai	a5,a5,0x18
    31f4:	00c7e793          	ori	a5,a5,12
    31f8:	01879713          	slli	a4,a5,0x18
    31fc:	8761                	srai	a4,a4,0x18
    31fe:	400237b7          	lui	a5,0x40023
    3202:	43678793          	addi	a5,a5,1078 # 40023436 <_eusrstack+0x2001e436>
    3206:	0ff77713          	andi	a4,a4,255
    320a:	00e78023          	sb	a4,0(a5)
C:/Users/Accepted/Documents/smart_car/Seekfree_CH32V103R8T6_Opensource_Library/Libraries/seekfree_libraries/zf_usb_cdc.c:423
                                                    break;
    320e:	a831                	j	322a <USB_DevTransProcess+0x6f6>
C:/Users/Accepted/Documents/smart_car/Seekfree_CH32V103R8T6_Opensource_Library/Libraries/seekfree_libraries/zf_usb_cdc.c:425
                                                errflag = 0xFF;                              /* 操作失败 */
    3210:	57fd                	li	a5,-1
    3212:	fef40623          	sb	a5,-20(s0)
C:/Users/Accepted/Documents/smart_car/Seekfree_CH32V103R8T6_Opensource_Library/Libraries/seekfree_libraries/zf_usb_cdc.c:426
                                                break;
    3216:	0001                	nop
    3218:	a809                	j	322a <USB_DevTransProcess+0x6f6>
C:/Users/Accepted/Documents/smart_car/Seekfree_CH32V103R8T6_Opensource_Library/Libraries/seekfree_libraries/zf_usb_cdc.c:431
                                        errflag = 0xFF;                                      /* 操作失败 */
    321a:	57fd                	li	a5,-1
    321c:	fef40623          	sb	a5,-20(s0)
C:/Users/Accepted/Documents/smart_car/Seekfree_CH32V103R8T6_Opensource_Library/Libraries/seekfree_libraries/zf_usb_cdc.c:438
                                break;
    3220:	a0b5                	j	328c <USB_DevTransProcess+0x758>
C:/Users/Accepted/Documents/smart_car/Seekfree_CH32V103R8T6_Opensource_Library/Libraries/seekfree_libraries/zf_usb_cdc.c:436
                                    errflag = 0xFF;                                          /* 操作失败 */
    3222:	57fd                	li	a5,-1
    3224:	fef40623          	sb	a5,-20(s0)
C:/Users/Accepted/Documents/smart_car/Seekfree_CH32V103R8T6_Opensource_Library/Libraries/seekfree_libraries/zf_usb_cdc.c:438
                                break;
    3228:	a095                	j	328c <USB_DevTransProcess+0x758>
C:/Users/Accepted/Documents/smart_car/Seekfree_CH32V103R8T6_Opensource_Library/Libraries/seekfree_libraries/zf_usb_cdc.c:438 (discriminator 8)
    322a:	a08d                	j	328c <USB_DevTransProcess+0x758>
C:/Users/Accepted/Documents/smart_car/Seekfree_CH32V103R8T6_Opensource_Library/Libraries/seekfree_libraries/zf_usb_cdc.c:441

                            case USB_GET_INTERFACE:
                                pEP0_DataBuf[0] = 0x00;
    322c:	8101a783          	lw	a5,-2032(gp) # 20000020 <_edata>
    3230:	00078023          	sb	zero,0(a5)
C:/Users/Accepted/Documents/smart_car/Seekfree_CH32V103R8T6_Opensource_Library/Libraries/seekfree_libraries/zf_usb_cdc.c:442
                                if ( SetupReqLen > 1 ) SetupReqLen = 1;
    3234:	82e1d703          	lhu	a4,-2002(gp) # 2000003e <SetupReqLen>
    3238:	4785                	li	a5,1
    323a:	04e7fb63          	bgeu	a5,a4,3290 <USB_DevTransProcess+0x75c>
C:/Users/Accepted/Documents/smart_car/Seekfree_CH32V103R8T6_Opensource_Library/Libraries/seekfree_libraries/zf_usb_cdc.c:442 (discriminator 1)
    323e:	4705                	li	a4,1
    3240:	82e19723          	sh	a4,-2002(gp) # 2000003e <SetupReqLen>
C:/Users/Accepted/Documents/smart_car/Seekfree_CH32V103R8T6_Opensource_Library/Libraries/seekfree_libraries/zf_usb_cdc.c:443 (discriminator 1)
                                break;
    3244:	a0b1                	j	3290 <USB_DevTransProcess+0x75c>
C:/Users/Accepted/Documents/smart_car/Seekfree_CH32V103R8T6_Opensource_Library/Libraries/seekfree_libraries/zf_usb_cdc.c:446

                            case USB_GET_STATUS:
                                pEP0_DataBuf[0] = 0x00;
    3246:	8101a783          	lw	a5,-2032(gp) # 20000020 <_edata>
    324a:	00078023          	sb	zero,0(a5)
C:/Users/Accepted/Documents/smart_car/Seekfree_CH32V103R8T6_Opensource_Library/Libraries/seekfree_libraries/zf_usb_cdc.c:447
                                pEP0_DataBuf[1] = 0x00;
    324e:	8101a783          	lw	a5,-2032(gp) # 20000020 <_edata>
    3252:	0785                	addi	a5,a5,1
    3254:	00078023          	sb	zero,0(a5)
C:/Users/Accepted/Documents/smart_car/Seekfree_CH32V103R8T6_Opensource_Library/Libraries/seekfree_libraries/zf_usb_cdc.c:448
                                if ( SetupReqLen > 2 ) SetupReqLen = 2;
    3258:	82e1d703          	lhu	a4,-2002(gp) # 2000003e <SetupReqLen>
    325c:	4789                	li	a5,2
    325e:	02e7fb63          	bgeu	a5,a4,3294 <USB_DevTransProcess+0x760>
C:/Users/Accepted/Documents/smart_car/Seekfree_CH32V103R8T6_Opensource_Library/Libraries/seekfree_libraries/zf_usb_cdc.c:448 (discriminator 1)
    3262:	4709                	li	a4,2
    3264:	82e19723          	sh	a4,-2002(gp) # 2000003e <SetupReqLen>
C:/Users/Accepted/Documents/smart_car/Seekfree_CH32V103R8T6_Opensource_Library/Libraries/seekfree_libraries/zf_usb_cdc.c:449 (discriminator 1)
                                break;
    3268:	a035                	j	3294 <USB_DevTransProcess+0x760>
C:/Users/Accepted/Documents/smart_car/Seekfree_CH32V103R8T6_Opensource_Library/Libraries/seekfree_libraries/zf_usb_cdc.c:452

                            default:
                                errflag = 0xff;
    326a:	57fd                	li	a5,-1
    326c:	fef40623          	sb	a5,-20(s0)
C:/Users/Accepted/Documents/smart_car/Seekfree_CH32V103R8T6_Opensource_Library/Libraries/seekfree_libraries/zf_usb_cdc.c:453
                                break;
    3270:	0001                	nop
    3272:	a015                	j	3296 <USB_DevTransProcess+0x762>
C:/Users/Accepted/Documents/smart_car/Seekfree_CH32V103R8T6_Opensource_Library/Libraries/seekfree_libraries/zf_usb_cdc.c:457
                        }
                    }
                }
                else    errflag = 0xff;
    3274:	57fd                	li	a5,-1
    3276:	fef40623          	sb	a5,-20(s0)
    327a:	a831                	j	3296 <USB_DevTransProcess+0x762>
C:/Users/Accepted/Documents/smart_car/Seekfree_CH32V103R8T6_Opensource_Library/Libraries/seekfree_libraries/zf_usb_cdc.c:259
                                break;
    327c:	0001                	nop
    327e:	a821                	j	3296 <USB_DevTransProcess+0x762>
C:/Users/Accepted/Documents/smart_car/Seekfree_CH32V103R8T6_Opensource_Library/Libraries/seekfree_libraries/zf_usb_cdc.c:261
                                break;
    3280:	0001                	nop
    3282:	a811                	j	3296 <USB_DevTransProcess+0x762>
C:/Users/Accepted/Documents/smart_car/Seekfree_CH32V103R8T6_Opensource_Library/Libraries/seekfree_libraries/zf_usb_cdc.c:333
                                break;
    3284:	0001                	nop
    3286:	a801                	j	3296 <USB_DevTransProcess+0x762>
C:/Users/Accepted/Documents/smart_car/Seekfree_CH32V103R8T6_Opensource_Library/Libraries/seekfree_libraries/zf_usb_cdc.c:385
                                break;
    3288:	0001                	nop
    328a:	a031                	j	3296 <USB_DevTransProcess+0x762>
C:/Users/Accepted/Documents/smart_car/Seekfree_CH32V103R8T6_Opensource_Library/Libraries/seekfree_libraries/zf_usb_cdc.c:438
                                break;
    328c:	0001                	nop
    328e:	a021                	j	3296 <USB_DevTransProcess+0x762>
C:/Users/Accepted/Documents/smart_car/Seekfree_CH32V103R8T6_Opensource_Library/Libraries/seekfree_libraries/zf_usb_cdc.c:443
                                break;
    3290:	0001                	nop
    3292:	a011                	j	3296 <USB_DevTransProcess+0x762>
C:/Users/Accepted/Documents/smart_car/Seekfree_CH32V103R8T6_Opensource_Library/Libraries/seekfree_libraries/zf_usb_cdc.c:449
                                break;
    3294:	0001                	nop
C:/Users/Accepted/Documents/smart_car/Seekfree_CH32V103R8T6_Opensource_Library/Libraries/seekfree_libraries/zf_usb_cdc.c:459

                if( errflag == 0xff)
    3296:	fec44703          	lbu	a4,-20(s0)
    329a:	0ff00793          	li	a5,255
    329e:	00f71b63          	bne	a4,a5,32b4 <USB_DevTransProcess+0x780>
C:/Users/Accepted/Documents/smart_car/Seekfree_CH32V103R8T6_Opensource_Library/Libraries/seekfree_libraries/zf_usb_cdc.c:461
                {
                    R8_UEP0_CTRL = RB_UEP_R_TOG | RB_UEP_T_TOG | UEP_R_RES_STALL | UEP_T_RES_STALL;
    32a2:	400237b7          	lui	a5,0x40023
    32a6:	43278793          	addi	a5,a5,1074 # 40023432 <_eusrstack+0x2001e432>
    32aa:	fcf00713          	li	a4,-49
    32ae:	00e78023          	sb	a4,0(a5)
C:/Users/Accepted/Documents/smart_car/Seekfree_CH32V103R8T6_Opensource_Library/Libraries/seekfree_libraries/zf_usb_cdc.c:475
                    else  len = 0;

                    R8_UEP0_T_LEN = len;
                    R8_UEP0_CTRL = RB_UEP_R_TOG | RB_UEP_T_TOG | UEP_R_RES_ACK | UEP_T_RES_ACK;
                }
                break;
    32b2:	a489                	j	34f4 <USB_DevTransProcess+0x9c0>
C:/Users/Accepted/Documents/smart_car/Seekfree_CH32V103R8T6_Opensource_Library/Libraries/seekfree_libraries/zf_usb_cdc.c:465
                    if( chtype & 0x80 )
    32b4:	fee40783          	lb	a5,-18(s0)
    32b8:	0207df63          	bgez	a5,32f6 <USB_DevTransProcess+0x7c2>
C:/Users/Accepted/Documents/smart_car/Seekfree_CH32V103R8T6_Opensource_Library/Libraries/seekfree_libraries/zf_usb_cdc.c:467
                        len = (SetupReqLen>DevEP0SIZE) ? DevEP0SIZE : SetupReqLen;
    32bc:	82e1d783          	lhu	a5,-2002(gp) # 2000003e <SetupReqLen>
    32c0:	01079693          	slli	a3,a5,0x10
    32c4:	82c1                	srli	a3,a3,0x10
    32c6:	04000713          	li	a4,64
    32ca:	00d77463          	bgeu	a4,a3,32d2 <USB_DevTransProcess+0x79e>
    32ce:	04000793          	li	a5,64
    32d2:	07c2                	slli	a5,a5,0x10
    32d4:	83c1                	srli	a5,a5,0x10
    32d6:	fef407a3          	sb	a5,-17(s0)
C:/Users/Accepted/Documents/smart_car/Seekfree_CH32V103R8T6_Opensource_Library/Libraries/seekfree_libraries/zf_usb_cdc.c:468
                        SetupReqLen -= len;
    32da:	82e1d703          	lhu	a4,-2002(gp) # 2000003e <SetupReqLen>
    32de:	fef44783          	lbu	a5,-17(s0)
    32e2:	07c2                	slli	a5,a5,0x10
    32e4:	83c1                	srli	a5,a5,0x10
    32e6:	40f707b3          	sub	a5,a4,a5
    32ea:	01079713          	slli	a4,a5,0x10
    32ee:	8341                	srli	a4,a4,0x10
    32f0:	82e19723          	sh	a4,-2002(gp) # 2000003e <SetupReqLen>
    32f4:	a019                	j	32fa <USB_DevTransProcess+0x7c6>
C:/Users/Accepted/Documents/smart_car/Seekfree_CH32V103R8T6_Opensource_Library/Libraries/seekfree_libraries/zf_usb_cdc.c:470
                    else  len = 0;
    32f6:	fe0407a3          	sb	zero,-17(s0)
C:/Users/Accepted/Documents/smart_car/Seekfree_CH32V103R8T6_Opensource_Library/Libraries/seekfree_libraries/zf_usb_cdc.c:472
                    R8_UEP0_T_LEN = len;
    32fa:	400237b7          	lui	a5,0x40023
    32fe:	43078793          	addi	a5,a5,1072 # 40023430 <_eusrstack+0x2001e430>
    3302:	fef44703          	lbu	a4,-17(s0)
    3306:	00e78023          	sb	a4,0(a5)
C:/Users/Accepted/Documents/smart_car/Seekfree_CH32V103R8T6_Opensource_Library/Libraries/seekfree_libraries/zf_usb_cdc.c:473
                    R8_UEP0_CTRL = RB_UEP_R_TOG | RB_UEP_T_TOG | UEP_R_RES_ACK | UEP_T_RES_ACK;
    330a:	400237b7          	lui	a5,0x40023
    330e:	43278793          	addi	a5,a5,1074 # 40023432 <_eusrstack+0x2001e432>
    3312:	fc000713          	li	a4,-64
    3316:	00e78023          	sb	a4,0(a5)
C:/Users/Accepted/Documents/smart_car/Seekfree_CH32V103R8T6_Opensource_Library/Libraries/seekfree_libraries/zf_usb_cdc.c:475
                break;
    331a:	aae9                	j	34f4 <USB_DevTransProcess+0x9c0>
C:/Users/Accepted/Documents/smart_car/Seekfree_CH32V103R8T6_Opensource_Library/Libraries/seekfree_libraries/zf_usb_cdc.c:478

            case UIS_TOKEN_IN:
                switch( SetupReqCode )
    331c:	82d1c783          	lbu	a5,-2003(gp) # 2000003d <SetupReqCode>
    3320:	4715                	li	a4,5
    3322:	08e78e63          	beq	a5,a4,33be <USB_DevTransProcess+0x88a>
    3326:	4719                	li	a4,6
    3328:	0ee79263          	bne	a5,a4,340c <USB_DevTransProcess+0x8d8>
C:/Users/Accepted/Documents/smart_car/Seekfree_CH32V103R8T6_Opensource_Library/Libraries/seekfree_libraries/zf_usb_cdc.c:481
                {
                    case USB_GET_DESCRIPTOR:
                        len = SetupReqLen >= DevEP0SIZE ? DevEP0SIZE : SetupReqLen;
    332c:	82e1d783          	lhu	a5,-2002(gp) # 2000003e <SetupReqLen>
    3330:	01079693          	slli	a3,a5,0x10
    3334:	82c1                	srli	a3,a3,0x10
    3336:	04000713          	li	a4,64
    333a:	00d77463          	bgeu	a4,a3,3342 <USB_DevTransProcess+0x80e>
    333e:	04000793          	li	a5,64
    3342:	07c2                	slli	a5,a5,0x10
    3344:	83c1                	srli	a5,a5,0x10
    3346:	fef407a3          	sb	a5,-17(s0)
C:/Users/Accepted/Documents/smart_car/Seekfree_CH32V103R8T6_Opensource_Library/Libraries/seekfree_libraries/zf_usb_cdc.c:482
                        memcpy( pEP0_DataBuf, pDescr, len );
    334a:	8101a703          	lw	a4,-2032(gp) # 20000020 <_edata>
    334e:	8341a783          	lw	a5,-1996(gp) # 20000044 <pDescr>
    3352:	fef44683          	lbu	a3,-17(s0)
    3356:	8636                	mv	a2,a3
    3358:	85be                	mv	a1,a5
    335a:	853a                	mv	a0,a4
    335c:	2c1000ef          	jal	ra,3e1c <memcpy>
C:/Users/Accepted/Documents/smart_car/Seekfree_CH32V103R8T6_Opensource_Library/Libraries/seekfree_libraries/zf_usb_cdc.c:483
                        SetupReqLen -= len;
    3360:	82e1d703          	lhu	a4,-2002(gp) # 2000003e <SetupReqLen>
    3364:	fef44783          	lbu	a5,-17(s0)
    3368:	07c2                	slli	a5,a5,0x10
    336a:	83c1                	srli	a5,a5,0x10
    336c:	40f707b3          	sub	a5,a4,a5
    3370:	01079713          	slli	a4,a5,0x10
    3374:	8341                	srli	a4,a4,0x10
    3376:	82e19723          	sh	a4,-2002(gp) # 2000003e <SetupReqLen>
C:/Users/Accepted/Documents/smart_car/Seekfree_CH32V103R8T6_Opensource_Library/Libraries/seekfree_libraries/zf_usb_cdc.c:484
                        pDescr += len;
    337a:	8341a703          	lw	a4,-1996(gp) # 20000044 <pDescr>
    337e:	fef44783          	lbu	a5,-17(s0)
    3382:	973e                	add	a4,a4,a5
    3384:	82e1aa23          	sw	a4,-1996(gp) # 20000044 <pDescr>
C:/Users/Accepted/Documents/smart_car/Seekfree_CH32V103R8T6_Opensource_Library/Libraries/seekfree_libraries/zf_usb_cdc.c:485
                        R8_UEP0_T_LEN = len;
    3388:	400237b7          	lui	a5,0x40023
    338c:	43078793          	addi	a5,a5,1072 # 40023430 <_eusrstack+0x2001e430>
    3390:	fef44703          	lbu	a4,-17(s0)
    3394:	00e78023          	sb	a4,0(a5)
C:/Users/Accepted/Documents/smart_car/Seekfree_CH32V103R8T6_Opensource_Library/Libraries/seekfree_libraries/zf_usb_cdc.c:486
                        R8_UEP0_CTRL ^= RB_UEP_T_TOG;
    3398:	400237b7          	lui	a5,0x40023
    339c:	43278793          	addi	a5,a5,1074 # 40023432 <_eusrstack+0x2001e432>
    33a0:	0007c783          	lbu	a5,0(a5)
    33a4:	0ff7f713          	andi	a4,a5,255
    33a8:	400237b7          	lui	a5,0x40023
    33ac:	43278793          	addi	a5,a5,1074 # 40023432 <_eusrstack+0x2001e432>
    33b0:	04074713          	xori	a4,a4,64
    33b4:	0ff77713          	andi	a4,a4,255
    33b8:	00e78023          	sb	a4,0(a5)
C:/Users/Accepted/Documents/smart_car/Seekfree_CH32V103R8T6_Opensource_Library/Libraries/seekfree_libraries/zf_usb_cdc.c:487
                        break;
    33bc:	a0b5                	j	3428 <USB_DevTransProcess+0x8f4>
C:/Users/Accepted/Documents/smart_car/Seekfree_CH32V103R8T6_Opensource_Library/Libraries/seekfree_libraries/zf_usb_cdc.c:490

                    case USB_SET_ADDRESS:
                        R8_USB_DEV_AD = (R8_USB_DEV_AD&RB_UDA_GP_BIT) | SetupReqLen;
    33be:	400237b7          	lui	a5,0x40023
    33c2:	40378793          	addi	a5,a5,1027 # 40023403 <_eusrstack+0x2001e403>
    33c6:	0007c783          	lbu	a5,0(a5)
    33ca:	0ff7f793          	andi	a5,a5,255
    33ce:	07e2                	slli	a5,a5,0x18
    33d0:	87e1                	srai	a5,a5,0x18
    33d2:	f807f793          	andi	a5,a5,-128
    33d6:	01879713          	slli	a4,a5,0x18
    33da:	8761                	srai	a4,a4,0x18
    33dc:	82e1d783          	lhu	a5,-2002(gp) # 2000003e <SetupReqLen>
    33e0:	07e2                	slli	a5,a5,0x18
    33e2:	87e1                	srai	a5,a5,0x18
    33e4:	8fd9                	or	a5,a5,a4
    33e6:	01879713          	slli	a4,a5,0x18
    33ea:	8761                	srai	a4,a4,0x18
    33ec:	400237b7          	lui	a5,0x40023
    33f0:	40378793          	addi	a5,a5,1027 # 40023403 <_eusrstack+0x2001e403>
    33f4:	0ff77713          	andi	a4,a4,255
    33f8:	00e78023          	sb	a4,0(a5)
C:/Users/Accepted/Documents/smart_car/Seekfree_CH32V103R8T6_Opensource_Library/Libraries/seekfree_libraries/zf_usb_cdc.c:491
                        R8_UEP0_CTRL = UEP_R_RES_ACK | UEP_T_RES_NAK;
    33fc:	400237b7          	lui	a5,0x40023
    3400:	43278793          	addi	a5,a5,1074 # 40023432 <_eusrstack+0x2001e432>
    3404:	4709                	li	a4,2
    3406:	00e78023          	sb	a4,0(a5)
C:/Users/Accepted/Documents/smart_car/Seekfree_CH32V103R8T6_Opensource_Library/Libraries/seekfree_libraries/zf_usb_cdc.c:492
                        break;
    340a:	a839                	j	3428 <USB_DevTransProcess+0x8f4>
C:/Users/Accepted/Documents/smart_car/Seekfree_CH32V103R8T6_Opensource_Library/Libraries/seekfree_libraries/zf_usb_cdc.c:495

                    default:
                        R8_UEP0_T_LEN = 0;
    340c:	400237b7          	lui	a5,0x40023
    3410:	43078793          	addi	a5,a5,1072 # 40023430 <_eusrstack+0x2001e430>
    3414:	00078023          	sb	zero,0(a5)
C:/Users/Accepted/Documents/smart_car/Seekfree_CH32V103R8T6_Opensource_Library/Libraries/seekfree_libraries/zf_usb_cdc.c:496
                        R8_UEP0_CTRL = UEP_R_RES_ACK | UEP_T_RES_NAK;
    3418:	400237b7          	lui	a5,0x40023
    341c:	43278793          	addi	a5,a5,1074 # 40023432 <_eusrstack+0x2001e432>
    3420:	4709                	li	a4,2
    3422:	00e78023          	sb	a4,0(a5)
C:/Users/Accepted/Documents/smart_car/Seekfree_CH32V103R8T6_Opensource_Library/Libraries/seekfree_libraries/zf_usb_cdc.c:497
                        break;
    3426:	0001                	nop
C:/Users/Accepted/Documents/smart_car/Seekfree_CH32V103R8T6_Opensource_Library/Libraries/seekfree_libraries/zf_usb_cdc.c:500

                }
                break;
    3428:	a0f1                	j	34f4 <USB_DevTransProcess+0x9c0>
C:/Users/Accepted/Documents/smart_car/Seekfree_CH32V103R8T6_Opensource_Library/Libraries/seekfree_libraries/zf_usb_cdc.c:503

            case UIS_TOKEN_OUT:
                if(SetupReqCode ==SET_LINE_CODING)                      //设置串口属性
    342a:	82d1c703          	lbu	a4,-2003(gp) # 2000003d <SetupReqCode>
    342e:	02000793          	li	a5,32
    3432:	04f71263          	bne	a4,a5,3476 <USB_DevTransProcess+0x942>
C:/Users/Accepted/Documents/smart_car/Seekfree_CH32V103R8T6_Opensource_Library/Libraries/seekfree_libraries/zf_usb_cdc.c:505
                {
                    if (R8_USB_INT_FG & RB_U_TOG_OK)
    3436:	400237b7          	lui	a5,0x40023
    343a:	40678793          	addi	a5,a5,1030 # 40023406 <_eusrstack+0x2001e406>
    343e:	0007c783          	lbu	a5,0(a5)
    3442:	0ff7f793          	andi	a5,a5,255
    3446:	0407f793          	andi	a5,a5,64
    344a:	c7c5                	beqz	a5,34f2 <USB_DevTransProcess+0x9be>
C:/Users/Accepted/Documents/smart_car/Seekfree_CH32V103R8T6_Opensource_Library/Libraries/seekfree_libraries/zf_usb_cdc.c:507
                    {
                        R8_UEP0_T_LEN = 0;
    344c:	400237b7          	lui	a5,0x40023
    3450:	43078793          	addi	a5,a5,1072 # 40023430 <_eusrstack+0x2001e430>
    3454:	00078023          	sb	zero,0(a5)
C:/Users/Accepted/Documents/smart_car/Seekfree_CH32V103R8T6_Opensource_Library/Libraries/seekfree_libraries/zf_usb_cdc.c:508
                        R8_UEP0_CTRL |= UEP_R_RES_ACK | UEP_T_RES_ACK;  // 准备上传0包
    3458:	400237b7          	lui	a5,0x40023
    345c:	43278713          	addi	a4,a5,1074 # 40023432 <_eusrstack+0x2001e432>
    3460:	400237b7          	lui	a5,0x40023
    3464:	43278793          	addi	a5,a5,1074 # 40023432 <_eusrstack+0x2001e432>
    3468:	00074703          	lbu	a4,0(a4)
    346c:	0ff77713          	andi	a4,a4,255
    3470:	00e78023          	sb	a4,0(a5)
C:/Users/Accepted/Documents/smart_car/Seekfree_CH32V103R8T6_Opensource_Library/Libraries/seekfree_libraries/zf_usb_cdc.c:516
                else
                {
                        R8_UEP0_T_LEN = 0;
                        R8_UEP0_CTRL |= UEP_R_RES_ACK | UEP_T_RES_NAK;  //状态阶段，对IN响应NAK
                }
                break;
    3474:	a8bd                	j	34f2 <USB_DevTransProcess+0x9be>
C:/Users/Accepted/Documents/smart_car/Seekfree_CH32V103R8T6_Opensource_Library/Libraries/seekfree_libraries/zf_usb_cdc.c:513
                        R8_UEP0_T_LEN = 0;
    3476:	400237b7          	lui	a5,0x40023
    347a:	43078793          	addi	a5,a5,1072 # 40023430 <_eusrstack+0x2001e430>
    347e:	00078023          	sb	zero,0(a5)
C:/Users/Accepted/Documents/smart_car/Seekfree_CH32V103R8T6_Opensource_Library/Libraries/seekfree_libraries/zf_usb_cdc.c:514
                        R8_UEP0_CTRL |= UEP_R_RES_ACK | UEP_T_RES_NAK;  //状态阶段，对IN响应NAK
    3482:	400237b7          	lui	a5,0x40023
    3486:	43278793          	addi	a5,a5,1074 # 40023432 <_eusrstack+0x2001e432>
    348a:	0007c783          	lbu	a5,0(a5)
    348e:	0ff7f713          	andi	a4,a5,255
    3492:	400237b7          	lui	a5,0x40023
    3496:	43278793          	addi	a5,a5,1074 # 40023432 <_eusrstack+0x2001e432>
    349a:	00276713          	ori	a4,a4,2
    349e:	0ff77713          	andi	a4,a4,255
    34a2:	00e78023          	sb	a4,0(a5)
C:/Users/Accepted/Documents/smart_car/Seekfree_CH32V103R8T6_Opensource_Library/Libraries/seekfree_libraries/zf_usb_cdc.c:516
                break;
    34a6:	a0b1                	j	34f2 <USB_DevTransProcess+0x9be>
C:/Users/Accepted/Documents/smart_car/Seekfree_CH32V103R8T6_Opensource_Library/Libraries/seekfree_libraries/zf_usb_cdc.c:522

            case UIS_TOKEN_OUT | 1:
                break;

            case UIS_TOKEN_IN | 1:
                R8_UEP1_T_LEN = 0;
    34a8:	400237b7          	lui	a5,0x40023
    34ac:	43478793          	addi	a5,a5,1076 # 40023434 <_eusrstack+0x2001e434>
    34b0:	00078023          	sb	zero,0(a5)
C:/Users/Accepted/Documents/smart_car/Seekfree_CH32V103R8T6_Opensource_Library/Libraries/seekfree_libraries/zf_usb_cdc.c:523
                R8_UEP1_CTRL = (R8_UEP1_CTRL & ~MASK_UEP_T_RES) | UEP_T_RES_NAK;
    34b4:	400237b7          	lui	a5,0x40023
    34b8:	43678793          	addi	a5,a5,1078 # 40023436 <_eusrstack+0x2001e436>
    34bc:	0007c783          	lbu	a5,0(a5)
    34c0:	0ff7f793          	andi	a5,a5,255
    34c4:	07e2                	slli	a5,a5,0x18
    34c6:	87e1                	srai	a5,a5,0x18
    34c8:	9bf1                	andi	a5,a5,-4
    34ca:	07e2                	slli	a5,a5,0x18
    34cc:	87e1                	srai	a5,a5,0x18
    34ce:	0027e793          	ori	a5,a5,2
    34d2:	01879713          	slli	a4,a5,0x18
    34d6:	8761                	srai	a4,a4,0x18
    34d8:	400237b7          	lui	a5,0x40023
    34dc:	43678793          	addi	a5,a5,1078 # 40023436 <_eusrstack+0x2001e436>
    34e0:	0ff77713          	andi	a4,a4,255
    34e4:	00e78023          	sb	a4,0(a5)
C:/Users/Accepted/Documents/smart_car/Seekfree_CH32V103R8T6_Opensource_Library/Libraries/seekfree_libraries/zf_usb_cdc.c:524
                break;
    34e8:	a031                	j	34f4 <USB_DevTransProcess+0x9c0>
C:/Users/Accepted/Documents/smart_car/Seekfree_CH32V103R8T6_Opensource_Library/Libraries/seekfree_libraries/zf_usb_cdc.c:527

            default :
                break;
    34ea:	0001                	nop
    34ec:	a021                	j	34f4 <USB_DevTransProcess+0x9c0>
C:/Users/Accepted/Documents/smart_car/Seekfree_CH32V103R8T6_Opensource_Library/Libraries/seekfree_libraries/zf_usb_cdc.c:227
                break;
    34ee:	0001                	nop
    34f0:	a011                	j	34f4 <USB_DevTransProcess+0x9c0>
C:/Users/Accepted/Documents/smart_car/Seekfree_CH32V103R8T6_Opensource_Library/Libraries/seekfree_libraries/zf_usb_cdc.c:516
                break;
    34f2:	0001                	nop
C:/Users/Accepted/Documents/smart_car/Seekfree_CH32V103R8T6_Opensource_Library/Libraries/seekfree_libraries/zf_usb_cdc.c:529
        }
        R8_USB_INT_FG = RB_UIF_TRANSFER;
    34f4:	400237b7          	lui	a5,0x40023
    34f8:	40678793          	addi	a5,a5,1030 # 40023406 <_eusrstack+0x2001e406>
    34fc:	4709                	li	a4,2
    34fe:	00e78023          	sb	a4,0(a5)
C:/Users/Accepted/Documents/smart_car/Seekfree_CH32V103R8T6_Opensource_Library/Libraries/seekfree_libraries/zf_usb_cdc.c:549
    }
    else
    {
        R8_USB_INT_FG = intflag;
    }
}
    3502:	a869                	j	359c <USB_DevTransProcess+0xa68>
C:/Users/Accepted/Documents/smart_car/Seekfree_CH32V103R8T6_Opensource_Library/Libraries/seekfree_libraries/zf_usb_cdc.c:531
    else if( intflag & RB_UIF_BUS_RST )
    3504:	feb44783          	lbu	a5,-21(s0)
    3508:	8b85                	andi	a5,a5,1
    350a:	cfb9                	beqz	a5,3568 <USB_DevTransProcess+0xa34>
C:/Users/Accepted/Documents/smart_car/Seekfree_CH32V103R8T6_Opensource_Library/Libraries/seekfree_libraries/zf_usb_cdc.c:533
        R8_USB_DEV_AD = 0;
    350c:	400237b7          	lui	a5,0x40023
    3510:	40378793          	addi	a5,a5,1027 # 40023403 <_eusrstack+0x2001e403>
    3514:	00078023          	sb	zero,0(a5)
C:/Users/Accepted/Documents/smart_car/Seekfree_CH32V103R8T6_Opensource_Library/Libraries/seekfree_libraries/zf_usb_cdc.c:534
        R8_UEP0_CTRL = UEP_R_RES_ACK | UEP_T_RES_NAK;
    3518:	400237b7          	lui	a5,0x40023
    351c:	43278793          	addi	a5,a5,1074 # 40023432 <_eusrstack+0x2001e432>
    3520:	4709                	li	a4,2
    3522:	00e78023          	sb	a4,0(a5)
C:/Users/Accepted/Documents/smart_car/Seekfree_CH32V103R8T6_Opensource_Library/Libraries/seekfree_libraries/zf_usb_cdc.c:535
        R8_UEP1_CTRL = UEP_R_RES_ACK | UEP_T_RES_NAK | RB_UEP_AUTO_TOG;
    3526:	400237b7          	lui	a5,0x40023
    352a:	43678793          	addi	a5,a5,1078 # 40023436 <_eusrstack+0x2001e436>
    352e:	4749                	li	a4,18
    3530:	00e78023          	sb	a4,0(a5)
C:/Users/Accepted/Documents/smart_car/Seekfree_CH32V103R8T6_Opensource_Library/Libraries/seekfree_libraries/zf_usb_cdc.c:536
        R8_UEP2_CTRL = UEP_R_RES_ACK | UEP_T_RES_NAK | RB_UEP_AUTO_TOG;
    3534:	400237b7          	lui	a5,0x40023
    3538:	43a78793          	addi	a5,a5,1082 # 4002343a <_eusrstack+0x2001e43a>
    353c:	4749                	li	a4,18
    353e:	00e78023          	sb	a4,0(a5)
C:/Users/Accepted/Documents/smart_car/Seekfree_CH32V103R8T6_Opensource_Library/Libraries/seekfree_libraries/zf_usb_cdc.c:537
        R8_USB_INT_FG |= RB_UIF_BUS_RST;
    3542:	400237b7          	lui	a5,0x40023
    3546:	40678793          	addi	a5,a5,1030 # 40023406 <_eusrstack+0x2001e406>
    354a:	0007c783          	lbu	a5,0(a5)
    354e:	0ff7f713          	andi	a4,a5,255
    3552:	400237b7          	lui	a5,0x40023
    3556:	40678793          	addi	a5,a5,1030 # 40023406 <_eusrstack+0x2001e406>
    355a:	00176713          	ori	a4,a4,1
    355e:	0ff77713          	andi	a4,a4,255
    3562:	00e78023          	sb	a4,0(a5)
C:/Users/Accepted/Documents/smart_car/Seekfree_CH32V103R8T6_Opensource_Library/Libraries/seekfree_libraries/zf_usb_cdc.c:549
}
    3566:	a81d                	j	359c <USB_DevTransProcess+0xa68>
C:/Users/Accepted/Documents/smart_car/Seekfree_CH32V103R8T6_Opensource_Library/Libraries/seekfree_libraries/zf_usb_cdc.c:539
    else if( intflag & RB_UIF_SUSPEND )
    3568:	feb44783          	lbu	a5,-21(s0)
    356c:	8b91                	andi	a5,a5,4
    356e:	cf99                	beqz	a5,358c <USB_DevTransProcess+0xa58>
C:/Users/Accepted/Documents/smart_car/Seekfree_CH32V103R8T6_Opensource_Library/Libraries/seekfree_libraries/zf_usb_cdc.c:541
        if ( R8_USB_MIS_ST & RB_UMS_SUSPEND ) {;}
    3570:	400237b7          	lui	a5,0x40023
    3574:	40578793          	addi	a5,a5,1029 # 40023405 <_eusrstack+0x2001e405>
    3578:	0007c783          	lbu	a5,0(a5)
C:/Users/Accepted/Documents/smart_car/Seekfree_CH32V103R8T6_Opensource_Library/Libraries/seekfree_libraries/zf_usb_cdc.c:543
        R8_USB_INT_FG = RB_UIF_SUSPEND;
    357c:	400237b7          	lui	a5,0x40023
    3580:	40678793          	addi	a5,a5,1030 # 40023406 <_eusrstack+0x2001e406>
    3584:	4711                	li	a4,4
    3586:	00e78023          	sb	a4,0(a5)
C:/Users/Accepted/Documents/smart_car/Seekfree_CH32V103R8T6_Opensource_Library/Libraries/seekfree_libraries/zf_usb_cdc.c:549
}
    358a:	a809                	j	359c <USB_DevTransProcess+0xa68>
C:/Users/Accepted/Documents/smart_car/Seekfree_CH32V103R8T6_Opensource_Library/Libraries/seekfree_libraries/zf_usb_cdc.c:547
        R8_USB_INT_FG = intflag;
    358c:	400237b7          	lui	a5,0x40023
    3590:	40678793          	addi	a5,a5,1030 # 40023406 <_eusrstack+0x2001e406>
    3594:	feb44703          	lbu	a4,-21(s0)
    3598:	00e78023          	sb	a4,0(a5)
C:/Users/Accepted/Documents/smart_car/Seekfree_CH32V103R8T6_Opensource_Library/Libraries/seekfree_libraries/zf_usb_cdc.c:549
}
    359c:	0001                	nop
    359e:	40f2                	lw	ra,28(sp)
    35a0:	4462                	lw	s0,24(sp)
    35a2:	6105                	addi	sp,sp,32
    35a4:	8082                	ret

000035a6 <USBHD_IRQHandler>:
USBHD_IRQHandler():
C:/Users/Accepted/Documents/smart_car/Seekfree_CH32V103R8T6_Opensource_Library/Libraries/seekfree_libraries/zf_usb_cdc.c:581
* Description    : This function handles USB exception.
* Input          : None
* Return         : None
*******************************************************************************/
void USBHD_IRQHandler (void)
{
    35a6:	1141                	addi	sp,sp,-16
    35a8:	c622                	sw	s0,12(sp)
    35aa:	0800                	addi	s0,sp,16
C:/Users/Accepted/Documents/smart_car/Seekfree_CH32V103R8T6_Opensource_Library/Libraries/seekfree_libraries/zf_usb_cdc.c:582
    USB_DevTransProcess();
    35ac:	d88ff0ef          	jal	ra,2b34 <USB_DevTransProcess>
C:/Users/Accepted/Documents/smart_car/Seekfree_CH32V103R8T6_Opensource_Library/Libraries/seekfree_libraries/zf_usb_cdc.c:583
}
    35b0:	0001                	nop
    35b2:	4432                	lw	s0,12(sp)
    35b4:	0141                	addi	sp,sp,16
    35b6:	30200073          	mret

000035ba <EXTI0_IRQHandler>:
EXTI0_IRQHandler():
C:/Users/Accepted/Documents/smart_car/Seekfree_CH32V103R8T6_Opensource_Library/Project/USER/isr.c:62
//void RTCAlarm_IRQHandler(void) __attribute__((interrupt("WCH-Interrupt-fast")));
//void USBWakeUp_IRQHandler(void) __attribute__((interrupt("WCH-Interrupt-fast")));
//void USBHD_IRQHandler(void) __attribute__((interrupt("WCH-Interrupt-fast")));

void EXTI0_IRQHandler(void)
{
    35ba:	1141                	addi	sp,sp,-16
    35bc:	c622                	sw	s0,12(sp)
    35be:	0800                	addi	s0,sp,16
C:/Users/Accepted/Documents/smart_car/Seekfree_CH32V103R8T6_Opensource_Library/Project/USER/isr.c:63
    if(SET == EXTI_GetITStatus(EXTI_Line0))
    35c0:	4505                	li	a0,1
    35c2:	c9dfc0ef          	jal	ra,25e <EXTI_GetITStatus>
    35c6:	872a                	mv	a4,a0
    35c8:	4785                	li	a5,1
    35ca:	00f71563          	bne	a4,a5,35d4 <EXTI0_IRQHandler+0x1a>
C:/Users/Accepted/Documents/smart_car/Seekfree_CH32V103R8T6_Opensource_Library/Project/USER/isr.c:65
    {
        EXTI_ClearITPendingBit(EXTI_Line0);
    35ce:	4505                	li	a0,1
    35d0:	ce5fc0ef          	jal	ra,2b4 <EXTI_ClearITPendingBit>
C:/Users/Accepted/Documents/smart_car/Seekfree_CH32V103R8T6_Opensource_Library/Project/USER/isr.c:67
    }
}
    35d4:	0001                	nop
    35d6:	4432                	lw	s0,12(sp)
    35d8:	0141                	addi	sp,sp,16
    35da:	30200073          	mret

000035de <EXTI1_IRQHandler>:
EXTI1_IRQHandler():
C:/Users/Accepted/Documents/smart_car/Seekfree_CH32V103R8T6_Opensource_Library/Project/USER/isr.c:70

void EXTI1_IRQHandler(void)
{
    35de:	1141                	addi	sp,sp,-16
    35e0:	c622                	sw	s0,12(sp)
    35e2:	0800                	addi	s0,sp,16
C:/Users/Accepted/Documents/smart_car/Seekfree_CH32V103R8T6_Opensource_Library/Project/USER/isr.c:71
    if(SET == EXTI_GetITStatus(EXTI_Line1))
    35e4:	4509                	li	a0,2
    35e6:	c79fc0ef          	jal	ra,25e <EXTI_GetITStatus>
    35ea:	872a                	mv	a4,a0
    35ec:	4785                	li	a5,1
    35ee:	02f71463          	bne	a4,a5,3616 <EXTI1_IRQHandler+0x38>
C:/Users/Accepted/Documents/smart_car/Seekfree_CH32V103R8T6_Opensource_Library/Project/USER/isr.c:73
    {
        if(camera_type == CAMERA_BIN_UART)
    35f2:	8201a703          	lw	a4,-2016(gp) # 20000030 <camera_type>
    35f6:	478d                	li	a5,3
    35f8:	00f71563          	bne	a4,a5,3602 <EXTI1_IRQHandler+0x24>
C:/Users/Accepted/Documents/smart_car/Seekfree_CH32V103R8T6_Opensource_Library/Project/USER/isr.c:75
        {
            ov7725_uart_vsync();
    35fc:	da6fe0ef          	jal	ra,1ba2 <ov7725_uart_vsync>
    3600:	a801                	j	3610 <EXTI1_IRQHandler+0x32>
C:/Users/Accepted/Documents/smart_car/Seekfree_CH32V103R8T6_Opensource_Library/Project/USER/isr.c:77
        }
        else if(camera_type == CAMERA_GRAYSCALE)
    3602:	8201a703          	lw	a4,-2016(gp) # 20000030 <camera_type>
    3606:	4789                	li	a5,2
    3608:	00f71463          	bne	a4,a5,3610 <EXTI1_IRQHandler+0x32>
C:/Users/Accepted/Documents/smart_car/Seekfree_CH32V103R8T6_Opensource_Library/Project/USER/isr.c:79
        {
            mt9v03x_vsync();
    360c:	ce4fe0ef          	jal	ra,1af0 <mt9v03x_vsync>
C:/Users/Accepted/Documents/smart_car/Seekfree_CH32V103R8T6_Opensource_Library/Project/USER/isr.c:81
        }
        EXTI_ClearITPendingBit(EXTI_Line1);
    3610:	4509                	li	a0,2
    3612:	ca3fc0ef          	jal	ra,2b4 <EXTI_ClearITPendingBit>
C:/Users/Accepted/Documents/smart_car/Seekfree_CH32V103R8T6_Opensource_Library/Project/USER/isr.c:83
    }
}
    3616:	0001                	nop
    3618:	4432                	lw	s0,12(sp)
    361a:	0141                	addi	sp,sp,16
    361c:	30200073          	mret

00003620 <EXTI2_IRQHandler>:
EXTI2_IRQHandler():
C:/Users/Accepted/Documents/smart_car/Seekfree_CH32V103R8T6_Opensource_Library/Project/USER/isr.c:86

void EXTI2_IRQHandler(void)
{
    3620:	1141                	addi	sp,sp,-16
    3622:	c622                	sw	s0,12(sp)
    3624:	0800                	addi	s0,sp,16
C:/Users/Accepted/Documents/smart_car/Seekfree_CH32V103R8T6_Opensource_Library/Project/USER/isr.c:87
    if(SET == EXTI_GetITStatus(EXTI_Line2))
    3626:	4511                	li	a0,4
    3628:	c37fc0ef          	jal	ra,25e <EXTI_GetITStatus>
    362c:	872a                	mv	a4,a0
    362e:	4785                	li	a5,1
    3630:	00f71563          	bne	a4,a5,363a <EXTI2_IRQHandler+0x1a>
C:/Users/Accepted/Documents/smart_car/Seekfree_CH32V103R8T6_Opensource_Library/Project/USER/isr.c:89
    {
        EXTI_ClearITPendingBit(EXTI_Line2);
    3634:	4511                	li	a0,4
    3636:	c7ffc0ef          	jal	ra,2b4 <EXTI_ClearITPendingBit>
C:/Users/Accepted/Documents/smart_car/Seekfree_CH32V103R8T6_Opensource_Library/Project/USER/isr.c:91
    }
}
    363a:	0001                	nop
    363c:	4432                	lw	s0,12(sp)
    363e:	0141                	addi	sp,sp,16
    3640:	30200073          	mret

00003644 <EXTI3_IRQHandler>:
EXTI3_IRQHandler():
C:/Users/Accepted/Documents/smart_car/Seekfree_CH32V103R8T6_Opensource_Library/Project/USER/isr.c:94

void EXTI3_IRQHandler(void)
{
    3644:	1141                	addi	sp,sp,-16
    3646:	c622                	sw	s0,12(sp)
    3648:	0800                	addi	s0,sp,16
C:/Users/Accepted/Documents/smart_car/Seekfree_CH32V103R8T6_Opensource_Library/Project/USER/isr.c:95
    if(SET == EXTI_GetITStatus(EXTI_Line3))
    364a:	4521                	li	a0,8
    364c:	c13fc0ef          	jal	ra,25e <EXTI_GetITStatus>
    3650:	872a                	mv	a4,a0
    3652:	4785                	li	a5,1
    3654:	00f71563          	bne	a4,a5,365e <EXTI3_IRQHandler+0x1a>
C:/Users/Accepted/Documents/smart_car/Seekfree_CH32V103R8T6_Opensource_Library/Project/USER/isr.c:97
    {
        EXTI_ClearITPendingBit(EXTI_Line3);
    3658:	4521                	li	a0,8
    365a:	c5bfc0ef          	jal	ra,2b4 <EXTI_ClearITPendingBit>
C:/Users/Accepted/Documents/smart_car/Seekfree_CH32V103R8T6_Opensource_Library/Project/USER/isr.c:100
    }

}
    365e:	0001                	nop
    3660:	4432                	lw	s0,12(sp)
    3662:	0141                	addi	sp,sp,16
    3664:	30200073          	mret

00003668 <EXTI4_IRQHandler>:
EXTI4_IRQHandler():
C:/Users/Accepted/Documents/smart_car/Seekfree_CH32V103R8T6_Opensource_Library/Project/USER/isr.c:103

void EXTI4_IRQHandler(void)
{
    3668:	1141                	addi	sp,sp,-16
    366a:	c622                	sw	s0,12(sp)
    366c:	0800                	addi	s0,sp,16
C:/Users/Accepted/Documents/smart_car/Seekfree_CH32V103R8T6_Opensource_Library/Project/USER/isr.c:104
    if(SET == EXTI_GetITStatus(EXTI_Line4))
    366e:	4541                	li	a0,16
    3670:	beffc0ef          	jal	ra,25e <EXTI_GetITStatus>
    3674:	872a                	mv	a4,a0
    3676:	4785                	li	a5,1
    3678:	00f71563          	bne	a4,a5,3682 <EXTI4_IRQHandler+0x1a>
C:/Users/Accepted/Documents/smart_car/Seekfree_CH32V103R8T6_Opensource_Library/Project/USER/isr.c:106
    {
        EXTI_ClearITPendingBit(EXTI_Line4);
    367c:	4541                	li	a0,16
    367e:	c37fc0ef          	jal	ra,2b4 <EXTI_ClearITPendingBit>
C:/Users/Accepted/Documents/smart_car/Seekfree_CH32V103R8T6_Opensource_Library/Project/USER/isr.c:109
    }

}
    3682:	0001                	nop
    3684:	4432                	lw	s0,12(sp)
    3686:	0141                	addi	sp,sp,16
    3688:	30200073          	mret

0000368c <EXTI9_5_IRQHandler>:
EXTI9_5_IRQHandler():
C:/Users/Accepted/Documents/smart_car/Seekfree_CH32V103R8T6_Opensource_Library/Project/USER/isr.c:112

void EXTI9_5_IRQHandler(void)
{
    368c:	1141                	addi	sp,sp,-16
    368e:	c622                	sw	s0,12(sp)
    3690:	0800                	addi	s0,sp,16
C:/Users/Accepted/Documents/smart_car/Seekfree_CH32V103R8T6_Opensource_Library/Project/USER/isr.c:113
    if(SET == EXTI_GetITStatus(EXTI_Line5))
    3692:	02000513          	li	a0,32
    3696:	bc9fc0ef          	jal	ra,25e <EXTI_GetITStatus>
    369a:	872a                	mv	a4,a0
    369c:	4785                	li	a5,1
    369e:	00f71763          	bne	a4,a5,36ac <EXTI9_5_IRQHandler+0x20>
C:/Users/Accepted/Documents/smart_car/Seekfree_CH32V103R8T6_Opensource_Library/Project/USER/isr.c:115
    {
        EXTI_ClearITPendingBit(EXTI_Line5);
    36a2:	02000513          	li	a0,32
    36a6:	c0ffc0ef          	jal	ra,2b4 <EXTI_ClearITPendingBit>
C:/Users/Accepted/Documents/smart_car/Seekfree_CH32V103R8T6_Opensource_Library/Project/USER/isr.c:133
    }
    else if(SET == EXTI_GetITStatus(EXTI_Line9))
    {
        EXTI_ClearITPendingBit(EXTI_Line9);
    }
}
    36aa:	a0a5                	j	3712 <EXTI9_5_IRQHandler+0x86>
C:/Users/Accepted/Documents/smart_car/Seekfree_CH32V103R8T6_Opensource_Library/Project/USER/isr.c:117
    else if(SET == EXTI_GetITStatus(EXTI_Line6))
    36ac:	04000513          	li	a0,64
    36b0:	baffc0ef          	jal	ra,25e <EXTI_GetITStatus>
    36b4:	872a                	mv	a4,a0
    36b6:	4785                	li	a5,1
    36b8:	00f71763          	bne	a4,a5,36c6 <EXTI9_5_IRQHandler+0x3a>
C:/Users/Accepted/Documents/smart_car/Seekfree_CH32V103R8T6_Opensource_Library/Project/USER/isr.c:119
        EXTI_ClearITPendingBit(EXTI_Line6);
    36bc:	04000513          	li	a0,64
    36c0:	bf5fc0ef          	jal	ra,2b4 <EXTI_ClearITPendingBit>
C:/Users/Accepted/Documents/smart_car/Seekfree_CH32V103R8T6_Opensource_Library/Project/USER/isr.c:133
}
    36c4:	a0b9                	j	3712 <EXTI9_5_IRQHandler+0x86>
C:/Users/Accepted/Documents/smart_car/Seekfree_CH32V103R8T6_Opensource_Library/Project/USER/isr.c:121
    else if(SET == EXTI_GetITStatus(EXTI_Line7))
    36c6:	08000513          	li	a0,128
    36ca:	b95fc0ef          	jal	ra,25e <EXTI_GetITStatus>
    36ce:	872a                	mv	a4,a0
    36d0:	4785                	li	a5,1
    36d2:	00f71763          	bne	a4,a5,36e0 <EXTI9_5_IRQHandler+0x54>
C:/Users/Accepted/Documents/smart_car/Seekfree_CH32V103R8T6_Opensource_Library/Project/USER/isr.c:123
        EXTI_ClearITPendingBit(EXTI_Line7);
    36d6:	08000513          	li	a0,128
    36da:	bdbfc0ef          	jal	ra,2b4 <EXTI_ClearITPendingBit>
C:/Users/Accepted/Documents/smart_car/Seekfree_CH32V103R8T6_Opensource_Library/Project/USER/isr.c:133
}
    36de:	a815                	j	3712 <EXTI9_5_IRQHandler+0x86>
C:/Users/Accepted/Documents/smart_car/Seekfree_CH32V103R8T6_Opensource_Library/Project/USER/isr.c:125
    else if(SET == EXTI_GetITStatus(EXTI_Line8))
    36e0:	10000513          	li	a0,256
    36e4:	b7bfc0ef          	jal	ra,25e <EXTI_GetITStatus>
    36e8:	872a                	mv	a4,a0
    36ea:	4785                	li	a5,1
    36ec:	00f71763          	bne	a4,a5,36fa <EXTI9_5_IRQHandler+0x6e>
C:/Users/Accepted/Documents/smart_car/Seekfree_CH32V103R8T6_Opensource_Library/Project/USER/isr.c:127
        EXTI_ClearITPendingBit(EXTI_Line8);
    36f0:	10000513          	li	a0,256
    36f4:	bc1fc0ef          	jal	ra,2b4 <EXTI_ClearITPendingBit>
C:/Users/Accepted/Documents/smart_car/Seekfree_CH32V103R8T6_Opensource_Library/Project/USER/isr.c:133
}
    36f8:	a829                	j	3712 <EXTI9_5_IRQHandler+0x86>
C:/Users/Accepted/Documents/smart_car/Seekfree_CH32V103R8T6_Opensource_Library/Project/USER/isr.c:129
    else if(SET == EXTI_GetITStatus(EXTI_Line9))
    36fa:	20000513          	li	a0,512
    36fe:	b61fc0ef          	jal	ra,25e <EXTI_GetITStatus>
    3702:	872a                	mv	a4,a0
    3704:	4785                	li	a5,1
    3706:	00f71663          	bne	a4,a5,3712 <EXTI9_5_IRQHandler+0x86>
C:/Users/Accepted/Documents/smart_car/Seekfree_CH32V103R8T6_Opensource_Library/Project/USER/isr.c:131
        EXTI_ClearITPendingBit(EXTI_Line9);
    370a:	20000513          	li	a0,512
    370e:	ba7fc0ef          	jal	ra,2b4 <EXTI_ClearITPendingBit>
C:/Users/Accepted/Documents/smart_car/Seekfree_CH32V103R8T6_Opensource_Library/Project/USER/isr.c:133
}
    3712:	0001                	nop
    3714:	4432                	lw	s0,12(sp)
    3716:	0141                	addi	sp,sp,16
    3718:	30200073          	mret

0000371c <EXTI15_10_IRQHandler>:
EXTI15_10_IRQHandler():
C:/Users/Accepted/Documents/smart_car/Seekfree_CH32V103R8T6_Opensource_Library/Project/USER/isr.c:136

void EXTI15_10_IRQHandler(void)
{
    371c:	1141                	addi	sp,sp,-16
    371e:	c622                	sw	s0,12(sp)
    3720:	0800                	addi	s0,sp,16
C:/Users/Accepted/Documents/smart_car/Seekfree_CH32V103R8T6_Opensource_Library/Project/USER/isr.c:137
    if(SET == EXTI_GetITStatus(EXTI_Line10))
    3722:	40000513          	li	a0,1024
    3726:	b39fc0ef          	jal	ra,25e <EXTI_GetITStatus>
    372a:	872a                	mv	a4,a0
    372c:	4785                	li	a5,1
    372e:	00f71763          	bne	a4,a5,373c <EXTI15_10_IRQHandler+0x20>
C:/Users/Accepted/Documents/smart_car/Seekfree_CH32V103R8T6_Opensource_Library/Project/USER/isr.c:139
    {
        EXTI_ClearITPendingBit(EXTI_Line10);
    3732:	40000513          	li	a0,1024
    3736:	b7ffc0ef          	jal	ra,2b4 <EXTI_ClearITPendingBit>
C:/Users/Accepted/Documents/smart_car/Seekfree_CH32V103R8T6_Opensource_Library/Project/USER/isr.c:161
    }
    else if(SET == EXTI_GetITStatus(EXTI_Line15))
    {
        EXTI_ClearITPendingBit(EXTI_Line15);
    }
}
    373a:	a89d                	j	37b0 <EXTI15_10_IRQHandler+0x94>
C:/Users/Accepted/Documents/smart_car/Seekfree_CH32V103R8T6_Opensource_Library/Project/USER/isr.c:141
    else if(SET == EXTI_GetITStatus(EXTI_Line11))
    373c:	6785                	lui	a5,0x1
    373e:	80078513          	addi	a0,a5,-2048 # 800 <__stack_size>
    3742:	b1dfc0ef          	jal	ra,25e <EXTI_GetITStatus>
    3746:	872a                	mv	a4,a0
    3748:	4785                	li	a5,1
    374a:	00f71863          	bne	a4,a5,375a <EXTI15_10_IRQHandler+0x3e>
C:/Users/Accepted/Documents/smart_car/Seekfree_CH32V103R8T6_Opensource_Library/Project/USER/isr.c:143
        EXTI_ClearITPendingBit(EXTI_Line11);
    374e:	6785                	lui	a5,0x1
    3750:	80078513          	addi	a0,a5,-2048 # 800 <__stack_size>
    3754:	b61fc0ef          	jal	ra,2b4 <EXTI_ClearITPendingBit>
C:/Users/Accepted/Documents/smart_car/Seekfree_CH32V103R8T6_Opensource_Library/Project/USER/isr.c:161
}
    3758:	a8a1                	j	37b0 <EXTI15_10_IRQHandler+0x94>
C:/Users/Accepted/Documents/smart_car/Seekfree_CH32V103R8T6_Opensource_Library/Project/USER/isr.c:145
    else if(SET == EXTI_GetITStatus(EXTI_Line12))
    375a:	6505                	lui	a0,0x1
    375c:	b03fc0ef          	jal	ra,25e <EXTI_GetITStatus>
    3760:	872a                	mv	a4,a0
    3762:	4785                	li	a5,1
    3764:	00f71663          	bne	a4,a5,3770 <EXTI15_10_IRQHandler+0x54>
C:/Users/Accepted/Documents/smart_car/Seekfree_CH32V103R8T6_Opensource_Library/Project/USER/isr.c:147
        EXTI_ClearITPendingBit(EXTI_Line12);
    3768:	6505                	lui	a0,0x1
    376a:	b4bfc0ef          	jal	ra,2b4 <EXTI_ClearITPendingBit>
C:/Users/Accepted/Documents/smart_car/Seekfree_CH32V103R8T6_Opensource_Library/Project/USER/isr.c:161
}
    376e:	a089                	j	37b0 <EXTI15_10_IRQHandler+0x94>
C:/Users/Accepted/Documents/smart_car/Seekfree_CH32V103R8T6_Opensource_Library/Project/USER/isr.c:149
    else if(SET == EXTI_GetITStatus(EXTI_Line13))
    3770:	6509                	lui	a0,0x2
    3772:	aedfc0ef          	jal	ra,25e <EXTI_GetITStatus>
    3776:	872a                	mv	a4,a0
    3778:	4785                	li	a5,1
    377a:	00f71663          	bne	a4,a5,3786 <EXTI15_10_IRQHandler+0x6a>
C:/Users/Accepted/Documents/smart_car/Seekfree_CH32V103R8T6_Opensource_Library/Project/USER/isr.c:151
        EXTI_ClearITPendingBit(EXTI_Line13);
    377e:	6509                	lui	a0,0x2
    3780:	b35fc0ef          	jal	ra,2b4 <EXTI_ClearITPendingBit>
C:/Users/Accepted/Documents/smart_car/Seekfree_CH32V103R8T6_Opensource_Library/Project/USER/isr.c:161
}
    3784:	a035                	j	37b0 <EXTI15_10_IRQHandler+0x94>
C:/Users/Accepted/Documents/smart_car/Seekfree_CH32V103R8T6_Opensource_Library/Project/USER/isr.c:153
    else if(SET == EXTI_GetITStatus(EXTI_Line14))
    3786:	6511                	lui	a0,0x4
    3788:	ad7fc0ef          	jal	ra,25e <EXTI_GetITStatus>
    378c:	872a                	mv	a4,a0
    378e:	4785                	li	a5,1
    3790:	00f71663          	bne	a4,a5,379c <EXTI15_10_IRQHandler+0x80>
C:/Users/Accepted/Documents/smart_car/Seekfree_CH32V103R8T6_Opensource_Library/Project/USER/isr.c:155
        EXTI_ClearITPendingBit(EXTI_Line14);
    3794:	6511                	lui	a0,0x4
    3796:	b1ffc0ef          	jal	ra,2b4 <EXTI_ClearITPendingBit>
C:/Users/Accepted/Documents/smart_car/Seekfree_CH32V103R8T6_Opensource_Library/Project/USER/isr.c:161
}
    379a:	a819                	j	37b0 <EXTI15_10_IRQHandler+0x94>
C:/Users/Accepted/Documents/smart_car/Seekfree_CH32V103R8T6_Opensource_Library/Project/USER/isr.c:157
    else if(SET == EXTI_GetITStatus(EXTI_Line15))
    379c:	6521                	lui	a0,0x8
    379e:	ac1fc0ef          	jal	ra,25e <EXTI_GetITStatus>
    37a2:	872a                	mv	a4,a0
    37a4:	4785                	li	a5,1
    37a6:	00f71563          	bne	a4,a5,37b0 <EXTI15_10_IRQHandler+0x94>
C:/Users/Accepted/Documents/smart_car/Seekfree_CH32V103R8T6_Opensource_Library/Project/USER/isr.c:159
        EXTI_ClearITPendingBit(EXTI_Line15);
    37aa:	6521                	lui	a0,0x8
    37ac:	b09fc0ef          	jal	ra,2b4 <EXTI_ClearITPendingBit>
C:/Users/Accepted/Documents/smart_car/Seekfree_CH32V103R8T6_Opensource_Library/Project/USER/isr.c:161
}
    37b0:	0001                	nop
    37b2:	4432                	lw	s0,12(sp)
    37b4:	0141                	addi	sp,sp,16
    37b6:	30200073          	mret

000037ba <ADC1_2_IRQHandler>:
ADC1_2_IRQHandler():
C:/Users/Accepted/Documents/smart_car/Seekfree_CH32V103R8T6_Opensource_Library/Project/USER/isr.c:164

void ADC1_2_IRQHandler(void)
{
    37ba:	1141                	addi	sp,sp,-16
    37bc:	c622                	sw	s0,12(sp)
    37be:	0800                	addi	s0,sp,16
C:/Users/Accepted/Documents/smart_car/Seekfree_CH32V103R8T6_Opensource_Library/Project/USER/isr.c:167


}
    37c0:	0001                	nop
    37c2:	4432                	lw	s0,12(sp)
    37c4:	0141                	addi	sp,sp,16
    37c6:	30200073          	mret

000037ca <TIM1_BRK_IRQHandler>:
TIM1_BRK_IRQHandler():
C:/Users/Accepted/Documents/smart_car/Seekfree_CH32V103R8T6_Opensource_Library/Project/USER/isr.c:170

void TIM1_BRK_IRQHandler(void)
{
    37ca:	1141                	addi	sp,sp,-16
    37cc:	c622                	sw	s0,12(sp)
    37ce:	0800                	addi	s0,sp,16
C:/Users/Accepted/Documents/smart_car/Seekfree_CH32V103R8T6_Opensource_Library/Project/USER/isr.c:171
    if(TIM_GetITStatus(TIM1, TIM_IT_Break) != RESET)
    37d0:	08000593          	li	a1,128
    37d4:	400137b7          	lui	a5,0x40013
    37d8:	c0078513          	addi	a0,a5,-1024 # 40012c00 <_eusrstack+0x2000dc00>
    37dc:	db3fd0ef          	jal	ra,158e <TIM_GetITStatus>
    37e0:	87aa                	mv	a5,a0
    37e2:	cb89                	beqz	a5,37f4 <TIM1_BRK_IRQHandler+0x2a>
C:/Users/Accepted/Documents/smart_car/Seekfree_CH32V103R8T6_Opensource_Library/Project/USER/isr.c:173
    {
        TIM_ClearITPendingBit(TIM1, TIM_IT_Break);
    37e4:	08000593          	li	a1,128
    37e8:	400137b7          	lui	a5,0x40013
    37ec:	c0078513          	addi	a0,a5,-1024 # 40012c00 <_eusrstack+0x2000dc00>
    37f0:	e0ffd0ef          	jal	ra,15fe <TIM_ClearITPendingBit>
C:/Users/Accepted/Documents/smart_car/Seekfree_CH32V103R8T6_Opensource_Library/Project/USER/isr.c:176

    }
}
    37f4:	0001                	nop
    37f6:	4432                	lw	s0,12(sp)
    37f8:	0141                	addi	sp,sp,16
    37fa:	30200073          	mret

000037fe <TIM1_UP_IRQHandler>:
TIM1_UP_IRQHandler():
C:/Users/Accepted/Documents/smart_car/Seekfree_CH32V103R8T6_Opensource_Library/Project/USER/isr.c:180


void TIM1_UP_IRQHandler(void)
{
    37fe:	1141                	addi	sp,sp,-16
    3800:	c622                	sw	s0,12(sp)
    3802:	0800                	addi	s0,sp,16
C:/Users/Accepted/Documents/smart_car/Seekfree_CH32V103R8T6_Opensource_Library/Project/USER/isr.c:182
    //定时器1的周期中断函数
    if(TIM_GetITStatus(TIM1, TIM_IT_Update) != RESET)
    3804:	4585                	li	a1,1
    3806:	400137b7          	lui	a5,0x40013
    380a:	c0078513          	addi	a0,a5,-1024 # 40012c00 <_eusrstack+0x2000dc00>
    380e:	d81fd0ef          	jal	ra,158e <TIM_GetITStatus>
    3812:	87aa                	mv	a5,a0
    3814:	cb81                	beqz	a5,3824 <TIM1_UP_IRQHandler+0x26>
C:/Users/Accepted/Documents/smart_car/Seekfree_CH32V103R8T6_Opensource_Library/Project/USER/isr.c:184
    {
        TIM_ClearITPendingBit(TIM1, TIM_IT_Update);
    3816:	4585                	li	a1,1
    3818:	400137b7          	lui	a5,0x40013
    381c:	c0078513          	addi	a0,a5,-1024 # 40012c00 <_eusrstack+0x2000dc00>
    3820:	ddffd0ef          	jal	ra,15fe <TIM_ClearITPendingBit>
C:/Users/Accepted/Documents/smart_car/Seekfree_CH32V103R8T6_Opensource_Library/Project/USER/isr.c:187

    }
}
    3824:	0001                	nop
    3826:	4432                	lw	s0,12(sp)
    3828:	0141                	addi	sp,sp,16
    382a:	30200073          	mret

0000382e <TIM1_TRG_COM_IRQHandler>:
TIM1_TRG_COM_IRQHandler():
C:/Users/Accepted/Documents/smart_car/Seekfree_CH32V103R8T6_Opensource_Library/Project/USER/isr.c:190

void TIM1_TRG_COM_IRQHandler(void)
{
    382e:	1141                	addi	sp,sp,-16
    3830:	c622                	sw	s0,12(sp)
    3832:	0800                	addi	s0,sp,16
C:/Users/Accepted/Documents/smart_car/Seekfree_CH32V103R8T6_Opensource_Library/Project/USER/isr.c:191
    if(TIM_GetITStatus(TIM1, TIM_IT_Trigger) != RESET)
    3834:	04000593          	li	a1,64
    3838:	400137b7          	lui	a5,0x40013
    383c:	c0078513          	addi	a0,a5,-1024 # 40012c00 <_eusrstack+0x2000dc00>
    3840:	d4ffd0ef          	jal	ra,158e <TIM_GetITStatus>
    3844:	87aa                	mv	a5,a0
    3846:	cb89                	beqz	a5,3858 <TIM1_TRG_COM_IRQHandler+0x2a>
C:/Users/Accepted/Documents/smart_car/Seekfree_CH32V103R8T6_Opensource_Library/Project/USER/isr.c:193
    {
        TIM_ClearITPendingBit(TIM1, TIM_IT_Trigger);
    3848:	04000593          	li	a1,64
    384c:	400137b7          	lui	a5,0x40013
    3850:	c0078513          	addi	a0,a5,-1024 # 40012c00 <_eusrstack+0x2000dc00>
    3854:	dabfd0ef          	jal	ra,15fe <TIM_ClearITPendingBit>
C:/Users/Accepted/Documents/smart_car/Seekfree_CH32V103R8T6_Opensource_Library/Project/USER/isr.c:196

    }
    if(TIM_GetITStatus(TIM1, TIM_IT_COM) != RESET)
    3858:	02000593          	li	a1,32
    385c:	400137b7          	lui	a5,0x40013
    3860:	c0078513          	addi	a0,a5,-1024 # 40012c00 <_eusrstack+0x2000dc00>
    3864:	d2bfd0ef          	jal	ra,158e <TIM_GetITStatus>
    3868:	87aa                	mv	a5,a0
    386a:	cb89                	beqz	a5,387c <TIM1_TRG_COM_IRQHandler+0x4e>
C:/Users/Accepted/Documents/smart_car/Seekfree_CH32V103R8T6_Opensource_Library/Project/USER/isr.c:198
    {
        TIM_ClearITPendingBit(TIM1, TIM_IT_COM);
    386c:	02000593          	li	a1,32
    3870:	400137b7          	lui	a5,0x40013
    3874:	c0078513          	addi	a0,a5,-1024 # 40012c00 <_eusrstack+0x2000dc00>
    3878:	d87fd0ef          	jal	ra,15fe <TIM_ClearITPendingBit>
C:/Users/Accepted/Documents/smart_car/Seekfree_CH32V103R8T6_Opensource_Library/Project/USER/isr.c:201

    }
}
    387c:	0001                	nop
    387e:	4432                	lw	s0,12(sp)
    3880:	0141                	addi	sp,sp,16
    3882:	30200073          	mret

00003886 <TIM1_CC_IRQHandler>:
TIM1_CC_IRQHandler():
C:/Users/Accepted/Documents/smart_car/Seekfree_CH32V103R8T6_Opensource_Library/Project/USER/isr.c:204

void TIM1_CC_IRQHandler(void)
{
    3886:	1141                	addi	sp,sp,-16
    3888:	c622                	sw	s0,12(sp)
    388a:	0800                	addi	s0,sp,16
C:/Users/Accepted/Documents/smart_car/Seekfree_CH32V103R8T6_Opensource_Library/Project/USER/isr.c:205
    if(TIM_GetITStatus(TIM1, TIM_IT_CC1) != RESET)
    388c:	4589                	li	a1,2
    388e:	400137b7          	lui	a5,0x40013
    3892:	c0078513          	addi	a0,a5,-1024 # 40012c00 <_eusrstack+0x2000dc00>
    3896:	cf9fd0ef          	jal	ra,158e <TIM_GetITStatus>
    389a:	87aa                	mv	a5,a0
    389c:	cb81                	beqz	a5,38ac <TIM1_CC_IRQHandler+0x26>
C:/Users/Accepted/Documents/smart_car/Seekfree_CH32V103R8T6_Opensource_Library/Project/USER/isr.c:207
    {
        TIM_ClearITPendingBit(TIM1, TIM_IT_CC1);
    389e:	4589                	li	a1,2
    38a0:	400137b7          	lui	a5,0x40013
    38a4:	c0078513          	addi	a0,a5,-1024 # 40012c00 <_eusrstack+0x2000dc00>
    38a8:	d57fd0ef          	jal	ra,15fe <TIM_ClearITPendingBit>
C:/Users/Accepted/Documents/smart_car/Seekfree_CH32V103R8T6_Opensource_Library/Project/USER/isr.c:210

    }
    if(TIM_GetITStatus(TIM1, TIM_IT_CC2) != RESET)
    38ac:	4591                	li	a1,4
    38ae:	400137b7          	lui	a5,0x40013
    38b2:	c0078513          	addi	a0,a5,-1024 # 40012c00 <_eusrstack+0x2000dc00>
    38b6:	cd9fd0ef          	jal	ra,158e <TIM_GetITStatus>
    38ba:	87aa                	mv	a5,a0
    38bc:	cb81                	beqz	a5,38cc <TIM1_CC_IRQHandler+0x46>
C:/Users/Accepted/Documents/smart_car/Seekfree_CH32V103R8T6_Opensource_Library/Project/USER/isr.c:212
    {
        TIM_ClearITPendingBit(TIM1, TIM_IT_CC2);
    38be:	4591                	li	a1,4
    38c0:	400137b7          	lui	a5,0x40013
    38c4:	c0078513          	addi	a0,a5,-1024 # 40012c00 <_eusrstack+0x2000dc00>
    38c8:	d37fd0ef          	jal	ra,15fe <TIM_ClearITPendingBit>
C:/Users/Accepted/Documents/smart_car/Seekfree_CH32V103R8T6_Opensource_Library/Project/USER/isr.c:215

    }
    if(TIM_GetITStatus(TIM1, TIM_IT_CC3) != RESET)
    38cc:	45a1                	li	a1,8
    38ce:	400137b7          	lui	a5,0x40013
    38d2:	c0078513          	addi	a0,a5,-1024 # 40012c00 <_eusrstack+0x2000dc00>
    38d6:	cb9fd0ef          	jal	ra,158e <TIM_GetITStatus>
    38da:	87aa                	mv	a5,a0
    38dc:	cb81                	beqz	a5,38ec <TIM1_CC_IRQHandler+0x66>
C:/Users/Accepted/Documents/smart_car/Seekfree_CH32V103R8T6_Opensource_Library/Project/USER/isr.c:217
    {
        TIM_ClearITPendingBit(TIM1, TIM_IT_CC3);
    38de:	45a1                	li	a1,8
    38e0:	400137b7          	lui	a5,0x40013
    38e4:	c0078513          	addi	a0,a5,-1024 # 40012c00 <_eusrstack+0x2000dc00>
    38e8:	d17fd0ef          	jal	ra,15fe <TIM_ClearITPendingBit>
C:/Users/Accepted/Documents/smart_car/Seekfree_CH32V103R8T6_Opensource_Library/Project/USER/isr.c:220

    }
    if(TIM_GetITStatus(TIM1, TIM_IT_CC4) != RESET)
    38ec:	45c1                	li	a1,16
    38ee:	400137b7          	lui	a5,0x40013
    38f2:	c0078513          	addi	a0,a5,-1024 # 40012c00 <_eusrstack+0x2000dc00>
    38f6:	c99fd0ef          	jal	ra,158e <TIM_GetITStatus>
    38fa:	87aa                	mv	a5,a0
    38fc:	cb81                	beqz	a5,390c <TIM1_CC_IRQHandler+0x86>
C:/Users/Accepted/Documents/smart_car/Seekfree_CH32V103R8T6_Opensource_Library/Project/USER/isr.c:222
    {
        TIM_ClearITPendingBit(TIM1, TIM_IT_CC4);
    38fe:	45c1                	li	a1,16
    3900:	400137b7          	lui	a5,0x40013
    3904:	c0078513          	addi	a0,a5,-1024 # 40012c00 <_eusrstack+0x2000dc00>
    3908:	cf7fd0ef          	jal	ra,15fe <TIM_ClearITPendingBit>
C:/Users/Accepted/Documents/smart_car/Seekfree_CH32V103R8T6_Opensource_Library/Project/USER/isr.c:225

    }
}
    390c:	0001                	nop
    390e:	4432                	lw	s0,12(sp)
    3910:	0141                	addi	sp,sp,16
    3912:	30200073          	mret

00003916 <TIM2_IRQHandler>:
TIM2_IRQHandler():
C:/Users/Accepted/Documents/smart_car/Seekfree_CH32V103R8T6_Opensource_Library/Project/USER/isr.c:228

void TIM2_IRQHandler(void)
{
    3916:	1141                	addi	sp,sp,-16
    3918:	c622                	sw	s0,12(sp)
    391a:	0800                	addi	s0,sp,16
C:/Users/Accepted/Documents/smart_car/Seekfree_CH32V103R8T6_Opensource_Library/Project/USER/isr.c:230

    if(TIM_GetITStatus(TIM2, TIM_IT_Update) != RESET)
    391c:	4585                	li	a1,1
    391e:	40000537          	lui	a0,0x40000
    3922:	c6dfd0ef          	jal	ra,158e <TIM_GetITStatus>
    3926:	87aa                	mv	a5,a0
    3928:	c791                	beqz	a5,3934 <TIM2_IRQHandler+0x1e>
C:/Users/Accepted/Documents/smart_car/Seekfree_CH32V103R8T6_Opensource_Library/Project/USER/isr.c:232
    {
        TIM_ClearITPendingBit(TIM2, TIM_IT_Update );
    392a:	4585                	li	a1,1
    392c:	40000537          	lui	a0,0x40000
    3930:	ccffd0ef          	jal	ra,15fe <TIM_ClearITPendingBit>
C:/Users/Accepted/Documents/smart_car/Seekfree_CH32V103R8T6_Opensource_Library/Project/USER/isr.c:236
        //ccd_collect();//CCD数据采集

    }
}
    3934:	0001                	nop
    3936:	4432                	lw	s0,12(sp)
    3938:	0141                	addi	sp,sp,16
    393a:	30200073          	mret

0000393e <TIM3_IRQHandler>:
TIM3_IRQHandler():
C:/Users/Accepted/Documents/smart_car/Seekfree_CH32V103R8T6_Opensource_Library/Project/USER/isr.c:239

void TIM3_IRQHandler(void)
{
    393e:	1141                	addi	sp,sp,-16
    3940:	c622                	sw	s0,12(sp)
    3942:	0800                	addi	s0,sp,16
C:/Users/Accepted/Documents/smart_car/Seekfree_CH32V103R8T6_Opensource_Library/Project/USER/isr.c:240
    if(TIM_GetITStatus(TIM3, TIM_IT_Update) != RESET)
    3944:	4585                	li	a1,1
    3946:	400007b7          	lui	a5,0x40000
    394a:	40078513          	addi	a0,a5,1024 # 40000400 <_eusrstack+0x1fffb400>
    394e:	c41fd0ef          	jal	ra,158e <TIM_GetITStatus>
    3952:	87aa                	mv	a5,a0
    3954:	cb81                	beqz	a5,3964 <TIM3_IRQHandler+0x26>
C:/Users/Accepted/Documents/smart_car/Seekfree_CH32V103R8T6_Opensource_Library/Project/USER/isr.c:242
    {
        TIM_ClearITPendingBit(TIM3, TIM_IT_Update );
    3956:	4585                	li	a1,1
    3958:	400007b7          	lui	a5,0x40000
    395c:	40078513          	addi	a0,a5,1024 # 40000400 <_eusrstack+0x1fffb400>
    3960:	c9ffd0ef          	jal	ra,15fe <TIM_ClearITPendingBit>
C:/Users/Accepted/Documents/smart_car/Seekfree_CH32V103R8T6_Opensource_Library/Project/USER/isr.c:245

    }
}
    3964:	0001                	nop
    3966:	4432                	lw	s0,12(sp)
    3968:	0141                	addi	sp,sp,16
    396a:	30200073          	mret

0000396e <TIM4_IRQHandler>:
TIM4_IRQHandler():
C:/Users/Accepted/Documents/smart_car/Seekfree_CH32V103R8T6_Opensource_Library/Project/USER/isr.c:248

void TIM4_IRQHandler(void)
{
    396e:	1141                	addi	sp,sp,-16
    3970:	c622                	sw	s0,12(sp)
    3972:	0800                	addi	s0,sp,16
C:/Users/Accepted/Documents/smart_car/Seekfree_CH32V103R8T6_Opensource_Library/Project/USER/isr.c:249
    if(TIM_GetITStatus(TIM4, TIM_IT_Update) != RESET)
    3974:	4585                	li	a1,1
    3976:	400017b7          	lui	a5,0x40001
    397a:	80078513          	addi	a0,a5,-2048 # 40000800 <_eusrstack+0x1fffb800>
    397e:	c11fd0ef          	jal	ra,158e <TIM_GetITStatus>
    3982:	87aa                	mv	a5,a0
    3984:	cb81                	beqz	a5,3994 <TIM4_IRQHandler+0x26>
C:/Users/Accepted/Documents/smart_car/Seekfree_CH32V103R8T6_Opensource_Library/Project/USER/isr.c:251
    {
        TIM_ClearITPendingBit(TIM4, TIM_IT_Update );
    3986:	4585                	li	a1,1
    3988:	400017b7          	lui	a5,0x40001
    398c:	80078513          	addi	a0,a5,-2048 # 40000800 <_eusrstack+0x1fffb800>
    3990:	c6ffd0ef          	jal	ra,15fe <TIM_ClearITPendingBit>
C:/Users/Accepted/Documents/smart_car/Seekfree_CH32V103R8T6_Opensource_Library/Project/USER/isr.c:253
    }
}
    3994:	0001                	nop
    3996:	4432                	lw	s0,12(sp)
    3998:	0141                	addi	sp,sp,16
    399a:	30200073          	mret

0000399e <USART1_IRQHandler>:
USART1_IRQHandler():
C:/Users/Accepted/Documents/smart_car/Seekfree_CH32V103R8T6_Opensource_Library/Project/USER/isr.c:256

void USART1_IRQHandler(void)
{
    399e:	1141                	addi	sp,sp,-16
    39a0:	c622                	sw	s0,12(sp)
    39a2:	0800                	addi	s0,sp,16
C:/Users/Accepted/Documents/smart_car/Seekfree_CH32V103R8T6_Opensource_Library/Project/USER/isr.c:257
    if(USART_GetITStatus(USART1, USART_IT_RXNE) != RESET)
    39a4:	52500593          	li	a1,1317
    39a8:	400147b7          	lui	a5,0x40014
    39ac:	80078513          	addi	a0,a5,-2048 # 40013800 <_eusrstack+0x2000e800>
    39b0:	f11fd0ef          	jal	ra,18c0 <USART_GetITStatus>
    39b4:	87aa                	mv	a5,a0
    39b6:	cb85                	beqz	a5,39e6 <USART1_IRQHandler+0x48>
C:/Users/Accepted/Documents/smart_car/Seekfree_CH32V103R8T6_Opensource_Library/Project/USER/isr.c:259
    {
        USART_ClearITPendingBit(USART1, USART_IT_RXNE);
    39b8:	52500593          	li	a1,1317
    39bc:	400147b7          	lui	a5,0x40014
    39c0:	80078513          	addi	a0,a5,-2048 # 40013800 <_eusrstack+0x2000e800>
    39c4:	ffffd0ef          	jal	ra,19c2 <USART_ClearITPendingBit>
C:/Users/Accepted/Documents/smart_car/Seekfree_CH32V103R8T6_Opensource_Library/Project/USER/isr.c:260
        if(wireless_type == WIRELESS_SI24R1)
    39c8:	8241a703          	lw	a4,-2012(gp) # 20000034 <wireless_type>
    39cc:	4785                	li	a5,1
    39ce:	00f71563          	bne	a4,a5,39d8 <USART1_IRQHandler+0x3a>
C:/Users/Accepted/Documents/smart_car/Seekfree_CH32V103R8T6_Opensource_Library/Project/USER/isr.c:262
        {
            wireless_uart_callback();
    39d2:	a82fe0ef          	jal	ra,1c54 <wireless_uart_callback>
C:/Users/Accepted/Documents/smart_car/Seekfree_CH32V103R8T6_Opensource_Library/Project/USER/isr.c:269
        else if(wireless_type == WIRELESS_CH9141)
        {
            bluetooth_ch9141_uart_callback();
        }
    }
}
    39d6:	a801                	j	39e6 <USART1_IRQHandler+0x48>
C:/Users/Accepted/Documents/smart_car/Seekfree_CH32V103R8T6_Opensource_Library/Project/USER/isr.c:264
        else if(wireless_type == WIRELESS_CH9141)
    39d8:	8241a703          	lw	a4,-2012(gp) # 20000034 <wireless_type>
    39dc:	4789                	li	a5,2
    39de:	00f71463          	bne	a4,a5,39e6 <USART1_IRQHandler+0x48>
C:/Users/Accepted/Documents/smart_car/Seekfree_CH32V103R8T6_Opensource_Library/Project/USER/isr.c:266
            bluetooth_ch9141_uart_callback();
    39e2:	82efe0ef          	jal	ra,1a10 <bluetooth_ch9141_uart_callback>
C:/Users/Accepted/Documents/smart_car/Seekfree_CH32V103R8T6_Opensource_Library/Project/USER/isr.c:269
}
    39e6:	0001                	nop
    39e8:	4432                	lw	s0,12(sp)
    39ea:	0141                	addi	sp,sp,16
    39ec:	30200073          	mret

000039f0 <USART2_IRQHandler>:
USART2_IRQHandler():
C:/Users/Accepted/Documents/smart_car/Seekfree_CH32V103R8T6_Opensource_Library/Project/USER/isr.c:272

void USART2_IRQHandler(void)
{
    39f0:	1141                	addi	sp,sp,-16
    39f2:	c622                	sw	s0,12(sp)
    39f4:	0800                	addi	s0,sp,16
C:/Users/Accepted/Documents/smart_car/Seekfree_CH32V103R8T6_Opensource_Library/Project/USER/isr.c:273
    if(USART_GetITStatus(USART2, USART_IT_RXNE) != RESET)
    39f6:	52500593          	li	a1,1317
    39fa:	400047b7          	lui	a5,0x40004
    39fe:	40078513          	addi	a0,a5,1024 # 40004400 <_eusrstack+0x1ffff400>
    3a02:	ebffd0ef          	jal	ra,18c0 <USART_GetITStatus>
    3a06:	87aa                	mv	a5,a0
    3a08:	cb89                	beqz	a5,3a1a <USART2_IRQHandler+0x2a>
C:/Users/Accepted/Documents/smart_car/Seekfree_CH32V103R8T6_Opensource_Library/Project/USER/isr.c:275
    {
        USART_ClearITPendingBit(USART2, USART_IT_RXNE);
    3a0a:	52500593          	li	a1,1317
    3a0e:	400047b7          	lui	a5,0x40004
    3a12:	40078513          	addi	a0,a5,1024 # 40004400 <_eusrstack+0x1ffff400>
    3a16:	fadfd0ef          	jal	ra,19c2 <USART_ClearITPendingBit>
C:/Users/Accepted/Documents/smart_car/Seekfree_CH32V103R8T6_Opensource_Library/Project/USER/isr.c:285
//        else if(camera_type == CAMERA_GRAYSCALE)
//        {
//            mt9v03x_uart_callback();
//        }
    }
}
    3a1a:	0001                	nop
    3a1c:	4432                	lw	s0,12(sp)
    3a1e:	0141                	addi	sp,sp,16
    3a20:	30200073          	mret

00003a24 <USART3_IRQHandler>:
USART3_IRQHandler():
C:/Users/Accepted/Documents/smart_car/Seekfree_CH32V103R8T6_Opensource_Library/Project/USER/isr.c:288

void USART3_IRQHandler(void)
{
    3a24:	1141                	addi	sp,sp,-16
    3a26:	c622                	sw	s0,12(sp)
    3a28:	0800                	addi	s0,sp,16
C:/Users/Accepted/Documents/smart_car/Seekfree_CH32V103R8T6_Opensource_Library/Project/USER/isr.c:289
    if(USART_GetITStatus(USART3, USART_IT_RXNE) != RESET)
    3a2a:	52500593          	li	a1,1317
    3a2e:	400057b7          	lui	a5,0x40005
    3a32:	80078513          	addi	a0,a5,-2048 # 40004800 <_eusrstack+0x1ffff800>
    3a36:	e8bfd0ef          	jal	ra,18c0 <USART_GetITStatus>
    3a3a:	87aa                	mv	a5,a0
    3a3c:	cb89                	beqz	a5,3a4e <USART3_IRQHandler+0x2a>
C:/Users/Accepted/Documents/smart_car/Seekfree_CH32V103R8T6_Opensource_Library/Project/USER/isr.c:291
    {
        USART_ClearITPendingBit(USART3, USART_IT_RXNE);
    3a3e:	52500593          	li	a1,1317
    3a42:	400057b7          	lui	a5,0x40005
    3a46:	80078513          	addi	a0,a5,-2048 # 40004800 <_eusrstack+0x1ffff800>
    3a4a:	f79fd0ef          	jal	ra,19c2 <USART_ClearITPendingBit>
C:/Users/Accepted/Documents/smart_car/Seekfree_CH32V103R8T6_Opensource_Library/Project/USER/isr.c:293
    }
}
    3a4e:	0001                	nop
    3a50:	4432                	lw	s0,12(sp)
    3a52:	0141                	addi	sp,sp,16
    3a54:	30200073          	mret

00003a58 <DMA1_Channel4_IRQHandler>:
DMA1_Channel4_IRQHandler():
C:/Users/Accepted/Documents/smart_car/Seekfree_CH32V103R8T6_Opensource_Library/Project/USER/isr.c:296

void DMA1_Channel4_IRQHandler(void)
{
    3a58:	1141                	addi	sp,sp,-16
    3a5a:	c622                	sw	s0,12(sp)
    3a5c:	0800                	addi	s0,sp,16
C:/Users/Accepted/Documents/smart_car/Seekfree_CH32V103R8T6_Opensource_Library/Project/USER/isr.c:297
    if(SET == DMA_GetFlagStatus(DMA1_FLAG_TC4))
    3a5e:	6509                	lui	a0,0x2
    3a60:	f6afc0ef          	jal	ra,1ca <DMA_GetFlagStatus>
    3a64:	872a                	mv	a4,a0
    3a66:	4785                	li	a5,1
    3a68:	02f71463          	bne	a4,a5,3a90 <DMA1_Channel4_IRQHandler+0x38>
C:/Users/Accepted/Documents/smart_car/Seekfree_CH32V103R8T6_Opensource_Library/Project/USER/isr.c:299
    {
        DMA_ClearFlag(DMA1_FLAG_TC4);
    3a6c:	6509                	lui	a0,0x2
    3a6e:	fb8fc0ef          	jal	ra,226 <DMA_ClearFlag>
C:/Users/Accepted/Documents/smart_car/Seekfree_CH32V103R8T6_Opensource_Library/Project/USER/isr.c:300
        if(camera_type == CAMERA_BIN_UART)
    3a72:	8201a703          	lw	a4,-2016(gp) # 20000030 <camera_type>
    3a76:	478d                	li	a5,3
    3a78:	00f71563          	bne	a4,a5,3a82 <DMA1_Channel4_IRQHandler+0x2a>
C:/Users/Accepted/Documents/smart_car/Seekfree_CH32V103R8T6_Opensource_Library/Project/USER/isr.c:302
        {
            ov7725_uart_dma();
    3a7c:	982fe0ef          	jal	ra,1bfe <ov7725_uart_dma>
C:/Users/Accepted/Documents/smart_car/Seekfree_CH32V103R8T6_Opensource_Library/Project/USER/isr.c:309
        else if(camera_type == CAMERA_GRAYSCALE)
        {
            mt9v03x_dma();
        }
    }
}
    3a80:	a801                	j	3a90 <DMA1_Channel4_IRQHandler+0x38>
C:/Users/Accepted/Documents/smart_car/Seekfree_CH32V103R8T6_Opensource_Library/Project/USER/isr.c:304
        else if(camera_type == CAMERA_GRAYSCALE)
    3a82:	8201a703          	lw	a4,-2016(gp) # 20000030 <camera_type>
    3a86:	4789                	li	a5,2
    3a88:	00f71463          	bne	a4,a5,3a90 <DMA1_Channel4_IRQHandler+0x38>
C:/Users/Accepted/Documents/smart_car/Seekfree_CH32V103R8T6_Opensource_Library/Project/USER/isr.c:306
            mt9v03x_dma();
    3a8c:	8c0fe0ef          	jal	ra,1b4c <mt9v03x_dma>
C:/Users/Accepted/Documents/smart_car/Seekfree_CH32V103R8T6_Opensource_Library/Project/USER/isr.c:309
}
    3a90:	0001                	nop
    3a92:	4432                	lw	s0,12(sp)
    3a94:	0141                	addi	sp,sp,16
    3a96:	30200073          	mret

00003a9a <NMI_Handler>:
NMI_Handler():
C:/Users/Accepted/Documents/smart_car/Seekfree_CH32V103R8T6_Opensource_Library/Project/USER/isr.c:318
* Description    : This function handles NMI exception.
* Input          : None
* Return         : None
*******************************************************************************/
void NMI_Handler(void)
{
    3a9a:	1141                	addi	sp,sp,-16
    3a9c:	c622                	sw	s0,12(sp)
    3a9e:	0800                	addi	s0,sp,16
C:/Users/Accepted/Documents/smart_car/Seekfree_CH32V103R8T6_Opensource_Library/Project/USER/isr.c:320

}
    3aa0:	0001                	nop
    3aa2:	4432                	lw	s0,12(sp)
    3aa4:	0141                	addi	sp,sp,16
    3aa6:	30200073          	mret

00003aaa <HardFault_Handler>:
HardFault_Handler():
C:/Users/Accepted/Documents/smart_car/Seekfree_CH32V103R8T6_Opensource_Library/Project/USER/isr.c:329
* Description    : This function handles Hard Fault exception.
* Input          : None
* Return         : None
*******************************************************************************/
void HardFault_Handler(void)
{
    3aaa:	1141                	addi	sp,sp,-16
    3aac:	c622                	sw	s0,12(sp)
    3aae:	0800                	addi	s0,sp,16
C:/Users/Accepted/Documents/smart_car/Seekfree_CH32V103R8T6_Opensource_Library/Project/USER/isr.c:331 (discriminator 1)

  while (1)
    3ab0:	a001                	j	3ab0 <HardFault_Handler+0x6>

00003ab2 <TIM1_Dead_Time_Init>:
TIM1_Dead_Time_Init():
C:/Users/Accepted/Documents/smart_car/Seekfree_CH32V103R8T6_Opensource_Library/Project/USER/main.c:40
 *          ccp - the pulse value.
 *
 * @return  none
 */
void TIM1_Dead_Time_Init( uint32 freq, uint32 duty )
{
    3ab2:	7159                	addi	sp,sp,-112
    3ab4:	d686                	sw	ra,108(sp)
    3ab6:	d4a2                	sw	s0,104(sp)
    3ab8:	1880                	addi	s0,sp,112
    3aba:	f8a42e23          	sw	a0,-100(s0)
    3abe:	f8b42c23          	sw	a1,-104(s0)
C:/Users/Accepted/Documents/smart_car/Seekfree_CH32V103R8T6_Opensource_Library/Project/USER/main.c:41
    GPIO_InitTypeDef GPIO_InitStructure={0};
    3ac2:	fc042c23          	sw	zero,-40(s0)
    3ac6:	fc042e23          	sw	zero,-36(s0)
    3aca:	fe042023          	sw	zero,-32(s0)
C:/Users/Accepted/Documents/smart_car/Seekfree_CH32V103R8T6_Opensource_Library/Project/USER/main.c:42
    TIM_OCInitTypeDef TIM_OCInitStructure={0};
    3ace:	fc042423          	sw	zero,-56(s0)
    3ad2:	fc042623          	sw	zero,-52(s0)
    3ad6:	fc042823          	sw	zero,-48(s0)
    3ada:	fc042a23          	sw	zero,-44(s0)
C:/Users/Accepted/Documents/smart_car/Seekfree_CH32V103R8T6_Opensource_Library/Project/USER/main.c:43
    TIM_TimeBaseInitTypeDef TIM_TimeBaseInitStructure={0};
    3ade:	fa042e23          	sw	zero,-68(s0)
    3ae2:	fc042023          	sw	zero,-64(s0)
    3ae6:	fc041223          	sh	zero,-60(s0)
C:/Users/Accepted/Documents/smart_car/Seekfree_CH32V103R8T6_Opensource_Library/Project/USER/main.c:44
    TIM_BDTRInitTypeDef TIM_BDTRInitStructure={0};
    3aea:	fa042623          	sw	zero,-84(s0)
    3aee:	fa042823          	sw	zero,-80(s0)
    3af2:	fa042a23          	sw	zero,-76(s0)
    3af6:	fa041c23          	sh	zero,-72(s0)
C:/Users/Accepted/Documents/smart_car/Seekfree_CH32V103R8T6_Opensource_Library/Project/USER/main.c:46

    RCC_APB2PeriphClockCmd( RCC_APB2Periph_GPIOA  | RCC_APB2Periph_GPIOB | RCC_APB2Periph_TIM1, ENABLE );
    3afa:	4585                	li	a1,1
    3afc:	6785                	lui	a5,0x1
    3afe:	80c78513          	addi	a0,a5,-2036 # 80c <__stack_size+0xc>
    3b02:	e79fc0ef          	jal	ra,97a <RCC_APB2PeriphClockCmd>
C:/Users/Accepted/Documents/smart_car/Seekfree_CH32V103R8T6_Opensource_Library/Project/USER/main.c:49

    /* TIM1_CH1 */
    GPIO_InitStructure.GPIO_Pin = GPIO_Pin_8;
    3b06:	10000793          	li	a5,256
    3b0a:	fcf41c23          	sh	a5,-40(s0)
C:/Users/Accepted/Documents/smart_car/Seekfree_CH32V103R8T6_Opensource_Library/Project/USER/main.c:50
    GPIO_InitStructure.GPIO_Mode = GPIO_Mode_AF_PP;
    3b0e:	47e1                	li	a5,24
    3b10:	fef42023          	sw	a5,-32(s0)
C:/Users/Accepted/Documents/smart_car/Seekfree_CH32V103R8T6_Opensource_Library/Project/USER/main.c:51
    GPIO_InitStructure.GPIO_Speed = GPIO_Speed_50MHz;
    3b14:	478d                	li	a5,3
    3b16:	fcf42e23          	sw	a5,-36(s0)
C:/Users/Accepted/Documents/smart_car/Seekfree_CH32V103R8T6_Opensource_Library/Project/USER/main.c:52
    GPIO_Init( GPIOA, &GPIO_InitStructure );
    3b1a:	fd840793          	addi	a5,s0,-40
    3b1e:	85be                	mv	a1,a5
    3b20:	400117b7          	lui	a5,0x40011
    3b24:	80078513          	addi	a0,a5,-2048 # 40010800 <_eusrstack+0x2000b800>
    3b28:	89bfc0ef          	jal	ra,3c2 <GPIO_Init>
C:/Users/Accepted/Documents/smart_car/Seekfree_CH32V103R8T6_Opensource_Library/Project/USER/main.c:55

    /* TIM1_CH1N */
    GPIO_InitStructure.GPIO_Pin = GPIO_Pin_13;
    3b2c:	6789                	lui	a5,0x2
    3b2e:	fcf41c23          	sh	a5,-40(s0)
C:/Users/Accepted/Documents/smart_car/Seekfree_CH32V103R8T6_Opensource_Library/Project/USER/main.c:56
    GPIO_InitStructure.GPIO_Mode = GPIO_Mode_AF_PP;
    3b32:	47e1                	li	a5,24
    3b34:	fef42023          	sw	a5,-32(s0)
C:/Users/Accepted/Documents/smart_car/Seekfree_CH32V103R8T6_Opensource_Library/Project/USER/main.c:57
    GPIO_InitStructure.GPIO_Speed = GPIO_Speed_50MHz;
    3b38:	478d                	li	a5,3
    3b3a:	fcf42e23          	sw	a5,-36(s0)
C:/Users/Accepted/Documents/smart_car/Seekfree_CH32V103R8T6_Opensource_Library/Project/USER/main.c:58
    GPIO_Init( GPIOB, &GPIO_InitStructure );
    3b3e:	fd840793          	addi	a5,s0,-40
    3b42:	85be                	mv	a1,a5
    3b44:	400117b7          	lui	a5,0x40011
    3b48:	c0078513          	addi	a0,a5,-1024 # 40010c00 <_eusrstack+0x2000bc00>
    3b4c:	877fc0ef          	jal	ra,3c2 <GPIO_Init>
C:/Users/Accepted/Documents/smart_car/Seekfree_CH32V103R8T6_Opensource_Library/Project/USER/main.c:62

    uint16 match_temp;                                          //占空比值
    uint16 period_temp;                                         //周期值
    uint16 freq_div = 0;                                        //分频值
    3b50:	fe041723          	sh	zero,-18(s0)
C:/Users/Accepted/Documents/smart_car/Seekfree_CH32V103R8T6_Opensource_Library/Project/USER/main.c:64

    int pwm_sys_clk = 88000000;
    3b54:	053ec7b7          	lui	a5,0x53ec
    3b58:	60078793          	addi	a5,a5,1536 # 53ec600 <_data_lma+0x53e8424>
    3b5c:	fef42423          	sw	a5,-24(s0)
C:/Users/Accepted/Documents/smart_car/Seekfree_CH32V103R8T6_Opensource_Library/Project/USER/main.c:66
    // 计算分频
    freq_div = (uint16)((pwm_sys_clk / freq) >> 16);                            //多少分频
    3b60:	fe842703          	lw	a4,-24(s0)
    3b64:	f9c42783          	lw	a5,-100(s0)
    3b68:	02f757b3          	divu	a5,a4,a5
    3b6c:	83c1                	srli	a5,a5,0x10
    3b6e:	fef41723          	sh	a5,-18(s0)
C:/Users/Accepted/Documents/smart_car/Seekfree_CH32V103R8T6_Opensource_Library/Project/USER/main.c:67
    period_temp = (uint16)(pwm_sys_clk/(freq*(freq_div + 1)));                  //周期
    3b72:	fe842703          	lw	a4,-24(s0)
    3b76:	fee45783          	lhu	a5,-18(s0)
    3b7a:	0785                	addi	a5,a5,1
    3b7c:	86be                	mv	a3,a5
    3b7e:	f9c42783          	lw	a5,-100(s0)
    3b82:	02f687b3          	mul	a5,a3,a5
    3b86:	02f757b3          	divu	a5,a4,a5
    3b8a:	fef41323          	sh	a5,-26(s0)
C:/Users/Accepted/Documents/smart_car/Seekfree_CH32V103R8T6_Opensource_Library/Project/USER/main.c:68
    match_temp = (period_temp - 1) * duty / 10000;                         //占空比
    3b8e:	fe645783          	lhu	a5,-26(s0)
    3b92:	17fd                	addi	a5,a5,-1
    3b94:	873e                	mv	a4,a5
    3b96:	f9842783          	lw	a5,-104(s0)
    3b9a:	02f70733          	mul	a4,a4,a5
    3b9e:	6789                	lui	a5,0x2
    3ba0:	71078793          	addi	a5,a5,1808 # 2710 <timer_pwm_init+0x280>
    3ba4:	02f757b3          	divu	a5,a4,a5
    3ba8:	fef41223          	sh	a5,-28(s0)
C:/Users/Accepted/Documents/smart_car/Seekfree_CH32V103R8T6_Opensource_Library/Project/USER/main.c:70

    TIM_TimeBaseInitStructure.TIM_Period = period_temp - 1;
    3bac:	fe645783          	lhu	a5,-26(s0)
    3bb0:	17fd                	addi	a5,a5,-1
    3bb2:	07c2                	slli	a5,a5,0x10
    3bb4:	83c1                	srli	a5,a5,0x10
    3bb6:	fcf41023          	sh	a5,-64(s0)
C:/Users/Accepted/Documents/smart_car/Seekfree_CH32V103R8T6_Opensource_Library/Project/USER/main.c:71
    TIM_TimeBaseInitStructure.TIM_Prescaler = 0;
    3bba:	fa041e23          	sh	zero,-68(s0)
C:/Users/Accepted/Documents/smart_car/Seekfree_CH32V103R8T6_Opensource_Library/Project/USER/main.c:72
    TIM_TimeBaseInitStructure.TIM_ClockDivision = TIM_CKD_DIV1;
    3bbe:	fc041123          	sh	zero,-62(s0)
C:/Users/Accepted/Documents/smart_car/Seekfree_CH32V103R8T6_Opensource_Library/Project/USER/main.c:73
    TIM_TimeBaseInitStructure.TIM_CounterMode = TIM_CounterMode_Up;
    3bc2:	fa041f23          	sh	zero,-66(s0)
C:/Users/Accepted/Documents/smart_car/Seekfree_CH32V103R8T6_Opensource_Library/Project/USER/main.c:74
    TIM_TimeBaseInit( TIM1, &TIM_TimeBaseInitStructure);
    3bc6:	fbc40793          	addi	a5,s0,-68
    3bca:	85be                	mv	a1,a5
    3bcc:	400137b7          	lui	a5,0x40013
    3bd0:	c0078513          	addi	a0,a5,-1024 # 40012c00 <_eusrstack+0x2000dc00>
    3bd4:	e79fc0ef          	jal	ra,a4c <TIM_TimeBaseInit>
C:/Users/Accepted/Documents/smart_car/Seekfree_CH32V103R8T6_Opensource_Library/Project/USER/main.c:76

    TIM_OCInitStructure.TIM_OCMode = TIM_OCMode_PWM2;
    3bd8:	07000793          	li	a5,112
    3bdc:	fcf41423          	sh	a5,-56(s0)
C:/Users/Accepted/Documents/smart_car/Seekfree_CH32V103R8T6_Opensource_Library/Project/USER/main.c:77
    TIM_OCInitStructure.TIM_OutputState = TIM_OutputState_Enable;
    3be0:	4785                	li	a5,1
    3be2:	fcf41523          	sh	a5,-54(s0)
C:/Users/Accepted/Documents/smart_car/Seekfree_CH32V103R8T6_Opensource_Library/Project/USER/main.c:78
    TIM_OCInitStructure.TIM_OutputNState = TIM_OutputNState_Enable;
    3be6:	4791                	li	a5,4
    3be8:	fcf41623          	sh	a5,-52(s0)
C:/Users/Accepted/Documents/smart_car/Seekfree_CH32V103R8T6_Opensource_Library/Project/USER/main.c:79
    TIM_OCInitStructure.TIM_Pulse = match_temp;
    3bec:	fe445783          	lhu	a5,-28(s0)
    3bf0:	fcf41723          	sh	a5,-50(s0)
C:/Users/Accepted/Documents/smart_car/Seekfree_CH32V103R8T6_Opensource_Library/Project/USER/main.c:80
    TIM_OCInitStructure.TIM_OCPolarity = TIM_OCPolarity_High;
    3bf4:	fc041823          	sh	zero,-48(s0)
C:/Users/Accepted/Documents/smart_car/Seekfree_CH32V103R8T6_Opensource_Library/Project/USER/main.c:81
    TIM_OCInitStructure.TIM_OCNPolarity = TIM_OCNPolarity_High;
    3bf8:	fc041923          	sh	zero,-46(s0)
C:/Users/Accepted/Documents/smart_car/Seekfree_CH32V103R8T6_Opensource_Library/Project/USER/main.c:82
    TIM_OCInitStructure.TIM_OCIdleState = TIM_OCIdleState_Set;
    3bfc:	10000793          	li	a5,256
    3c00:	fcf41a23          	sh	a5,-44(s0)
C:/Users/Accepted/Documents/smart_car/Seekfree_CH32V103R8T6_Opensource_Library/Project/USER/main.c:83
    TIM_OCInitStructure.TIM_OCNIdleState = TIM_OCNIdleState_Reset;
    3c04:	fc041b23          	sh	zero,-42(s0)
C:/Users/Accepted/Documents/smart_car/Seekfree_CH32V103R8T6_Opensource_Library/Project/USER/main.c:84
    TIM_OC1Init( TIM1, &TIM_OCInitStructure );
    3c08:	fc840793          	addi	a5,s0,-56
    3c0c:	85be                	mv	a1,a5
    3c0e:	400137b7          	lui	a5,0x40013
    3c12:	c0078513          	addi	a0,a5,-1024 # 40012c00 <_eusrstack+0x2000dc00>
    3c16:	f31fc0ef          	jal	ra,b46 <TIM_OC1Init>
C:/Users/Accepted/Documents/smart_car/Seekfree_CH32V103R8T6_Opensource_Library/Project/USER/main.c:86

    TIM_BDTRInitStructure.TIM_OSSIState = TIM_OSSIState_Disable;
    3c1a:	fa041723          	sh	zero,-82(s0)
C:/Users/Accepted/Documents/smart_car/Seekfree_CH32V103R8T6_Opensource_Library/Project/USER/main.c:87
    TIM_BDTRInitStructure.TIM_OSSRState = TIM_OSSRState_Disable;
    3c1e:	fa041623          	sh	zero,-84(s0)
C:/Users/Accepted/Documents/smart_car/Seekfree_CH32V103R8T6_Opensource_Library/Project/USER/main.c:88
    TIM_BDTRInitStructure.TIM_LOCKLevel = TIM_LOCKLevel_OFF;
    3c22:	fa041823          	sh	zero,-80(s0)
C:/Users/Accepted/Documents/smart_car/Seekfree_CH32V103R8T6_Opensource_Library/Project/USER/main.c:89
    TIM_BDTRInitStructure.TIM_DeadTime = 10;  // 设置高位
    3c26:	47a9                	li	a5,10
    3c28:	faf41923          	sh	a5,-78(s0)
C:/Users/Accepted/Documents/smart_car/Seekfree_CH32V103R8T6_Opensource_Library/Project/USER/main.c:90
    TIM_BDTRInitStructure.TIM_Break = TIM_Break_Disable;
    3c2c:	fa041a23          	sh	zero,-76(s0)
C:/Users/Accepted/Documents/smart_car/Seekfree_CH32V103R8T6_Opensource_Library/Project/USER/main.c:91
    TIM_BDTRInitStructure.TIM_BreakPolarity = TIM_BreakPolarity_Low;
    3c30:	fa041b23          	sh	zero,-74(s0)
C:/Users/Accepted/Documents/smart_car/Seekfree_CH32V103R8T6_Opensource_Library/Project/USER/main.c:92
    TIM_BDTRInitStructure.TIM_AutomaticOutput = TIM_AutomaticOutput_Enable;
    3c34:	6791                	lui	a5,0x4
    3c36:	faf41c23          	sh	a5,-72(s0)
C:/Users/Accepted/Documents/smart_car/Seekfree_CH32V103R8T6_Opensource_Library/Project/USER/main.c:93
    TIM_BDTRConfig( TIM1, &TIM_BDTRInitStructure );
    3c3a:	fac40793          	addi	a5,s0,-84
    3c3e:	85be                	mv	a1,a5
    3c40:	400137b7          	lui	a5,0x40013
    3c44:	c0078513          	addi	a0,a5,-1024 # 40012c00 <_eusrstack+0x2000dc00>
    3c48:	d1efd0ef          	jal	ra,1166 <TIM_BDTRConfig>
C:/Users/Accepted/Documents/smart_car/Seekfree_CH32V103R8T6_Opensource_Library/Project/USER/main.c:95

    TIM_CtrlPWMOutputs(TIM1, ENABLE );
    3c4c:	4585                	li	a1,1
    3c4e:	400137b7          	lui	a5,0x40013
    3c52:	c0078513          	addi	a0,a5,-1024 # 40012c00 <_eusrstack+0x2000dc00>
    3c56:	deefd0ef          	jal	ra,1244 <TIM_CtrlPWMOutputs>
C:/Users/Accepted/Documents/smart_car/Seekfree_CH32V103R8T6_Opensource_Library/Project/USER/main.c:96
    TIM_OC1PreloadConfig( TIM1, TIM_OCPreload_Disable );
    3c5a:	4581                	li	a1,0
    3c5c:	400137b7          	lui	a5,0x40013
    3c60:	c0078513          	addi	a0,a5,-1024 # 40012c00 <_eusrstack+0x2000dc00>
    3c64:	e9afd0ef          	jal	ra,12fe <TIM_OC1PreloadConfig>
C:/Users/Accepted/Documents/smart_car/Seekfree_CH32V103R8T6_Opensource_Library/Project/USER/main.c:97
    TIM_ARRPreloadConfig( TIM1, ENABLE );
    3c68:	4585                	li	a1,1
    3c6a:	400137b7          	lui	a5,0x40013
    3c6e:	c0078513          	addi	a0,a5,-1024 # 40012c00 <_eusrstack+0x2000dc00>
    3c72:	e32fd0ef          	jal	ra,12a4 <TIM_ARRPreloadConfig>
C:/Users/Accepted/Documents/smart_car/Seekfree_CH32V103R8T6_Opensource_Library/Project/USER/main.c:98
    TIM_Cmd( TIM1, ENABLE );
    3c76:	4585                	li	a1,1
    3c78:	400137b7          	lui	a5,0x40013
    3c7c:	c0078513          	addi	a0,a5,-1024 # 40012c00 <_eusrstack+0x2000dc00>
    3c80:	d6cfd0ef          	jal	ra,11ec <TIM_Cmd>
C:/Users/Accepted/Documents/smart_car/Seekfree_CH32V103R8T6_Opensource_Library/Project/USER/main.c:99
}
    3c84:	0001                	nop
    3c86:	50b6                	lw	ra,108(sp)
    3c88:	5426                	lw	s0,104(sp)
    3c8a:	6165                	addi	sp,sp,112
    3c8c:	8082                	ret

00003c8e <main>:
main():
C:/Users/Accepted/Documents/smart_car/Seekfree_CH32V103R8T6_Opensource_Library/Project/USER/main.c:152
    TIM_ARRPreloadConfig( TIM3, ENABLE );
    TIM_Cmd( TIM3, ENABLE );
}

int main(void)
{
    3c8e:	1101                	addi	sp,sp,-32
    3c90:	ce06                	sw	ra,28(sp)
    3c92:	cc22                	sw	s0,24(sp)
    3c94:	ca4a                	sw	s2,20(sp)
    3c96:	c84e                	sw	s3,16(sp)
    3c98:	1000                	addi	s0,sp,32
C:/Users/Accepted/Documents/smart_car/Seekfree_CH32V103R8T6_Opensource_Library/Project/USER/main.c:154
    //关闭总中断
    DisableGlobalIRQ();
    3c9a:	c88fe0ef          	jal	ra,2122 <DisableGlobalIRQ>
C:/Users/Accepted/Documents/smart_car/Seekfree_CH32V103R8T6_Opensource_Library/Project/USER/main.c:156
    //务必保留，本函数用于初始化MPU 时钟 调试串口
    board_init();
    3c9e:	fddfd0ef          	jal	ra,1c7a <board_init>
C:/Users/Accepted/Documents/smart_car/Seekfree_CH32V103R8T6_Opensource_Library/Project/USER/main.c:159

    //此处编写用户代码(例如：外设初始化代码等)
    gpio_init(B12, GPO, 0, GPIO_PIN_CONFIG);
    3ca2:	31000693          	li	a3,784
    3ca6:	4601                	li	a2,0
    3ca8:	4585                	li	a1,1
    3caa:	02c00513          	li	a0,44
    3cae:	9fcfe0ef          	jal	ra,1eaa <gpio_init>
C:/Users/Accepted/Documents/smart_car/Seekfree_CH32V103R8T6_Opensource_Library/Project/USER/main.c:160
    gpio_init(B6, GPO, 1, GPIO_PIN_CONFIG);
    3cb2:	31000693          	li	a3,784
    3cb6:	4605                	li	a2,1
    3cb8:	4585                	li	a1,1
    3cba:	02600513          	li	a0,38
    3cbe:	9ecfe0ef          	jal	ra,1eaa <gpio_init>
C:/Users/Accepted/Documents/smart_car/Seekfree_CH32V103R8T6_Opensource_Library/Project/USER/main.c:161
    gpio_init(B5, GPO, 1, GPIO_PIN_CONFIG);
    3cc2:	31000693          	li	a3,784
    3cc6:	4605                	li	a2,1
    3cc8:	4585                	li	a1,1
    3cca:	02500513          	li	a0,37
    3cce:	9dcfe0ef          	jal	ra,1eaa <gpio_init>
C:/Users/Accepted/Documents/smart_car/Seekfree_CH32V103R8T6_Opensource_Library/Project/USER/main.c:162
    gpio_init(B3, GPI, 0, IN_PULLUP);
    3cd2:	04800693          	li	a3,72
    3cd6:	4601                	li	a2,0
    3cd8:	4581                	li	a1,0
    3cda:	02300513          	li	a0,35
    3cde:	9ccfe0ef          	jal	ra,1eaa <gpio_init>
C:/Users/Accepted/Documents/smart_car/Seekfree_CH32V103R8T6_Opensource_Library/Project/USER/main.c:163
    TIM1_Dead_Time_Init( 156300, 5000 );
    3ce2:	6785                	lui	a5,0x1
    3ce4:	38878593          	addi	a1,a5,904 # 1388 <TIM_OC2PreloadConfig+0x3e>
    3ce8:	000267b7          	lui	a5,0x26
    3cec:	28c78513          	addi	a0,a5,652 # 2628c <_data_lma+0x220b0>
    3cf0:	33c9                	jal	3ab2 <TIM1_Dead_Time_Init>
C:/Users/Accepted/Documents/smart_car/Seekfree_CH32V103R8T6_Opensource_Library/Project/USER/main.c:165
//    TIM1_Dead_Time_Init( 550, 280 );
    int switch_status = 0;
    3cf2:	fe042623          	sw	zero,-20(s0)
C:/Users/Accepted/Documents/smart_car/Seekfree_CH32V103R8T6_Opensource_Library/Project/USER/main.c:167
    //    buck_init(300000, 4700);
    timer_pwm_init(PWM3_CH1_A6, 300000, 4700);
    3cf6:	6785                	lui	a5,0x1
    3cf8:	25c78613          	addi	a2,a5,604 # 125c <TIM_CtrlPWMOutputs+0x18>
    3cfc:	000497b7          	lui	a5,0x49
    3d00:	3e078593          	addi	a1,a5,992 # 493e0 <_data_lma+0x45204>
    3d04:	20000513          	li	a0,512
    3d08:	f88fe0ef          	jal	ra,2490 <timer_pwm_init>
C:/Users/Accepted/Documents/smart_car/Seekfree_CH32V103R8T6_Opensource_Library/Project/USER/main.c:169
//    timer_pit_interrupt_ms(TIMER_4, 10);
    uart_init(UART_2, 115200, UART2_TX_A2, UART2_RX_A3);
    3d0c:	46c5                	li	a3,17
    3d0e:	4641                	li	a2,16
    3d10:	67f1                	lui	a5,0x1c
    3d12:	20078593          	addi	a1,a5,512 # 1c200 <_data_lma+0x18024>
    3d16:	4505                	li	a0,1
    3d18:	cbbfe0ef          	jal	ra,29d2 <uart_init>
C:/Users/Accepted/Documents/smart_car/Seekfree_CH32V103R8T6_Opensource_Library/Project/USER/main.c:172
//    uart_rx_irq(UART_2, ENABLE);
    //总中断最后开启
    EnableGlobalIRQ(0);
    3d1c:	4501                	li	a0,0
    3d1e:	c1cfe0ef          	jal	ra,213a <EnableGlobalIRQ>
C:/Users/Accepted/Documents/smart_car/Seekfree_CH32V103R8T6_Opensource_Library/Project/USER/main.c:177
    while(1)
    {
//        uart_putstr(UART_2, (char *)"111111111");
        //此处编写需要循环执行的代码;
        uint8 data = 0;
    3d22:	fe040523          	sb	zero,-22(s0)
C:/Users/Accepted/Documents/smart_car/Seekfree_CH32V103R8T6_Opensource_Library/Project/USER/main.c:178
        uint8 get_status = uart_query(UART_2, &data);
    3d26:	fea40793          	addi	a5,s0,-22
    3d2a:	85be                	mv	a1,a5
    3d2c:	4505                	li	a0,1
    3d2e:	da9fe0ef          	jal	ra,2ad6 <uart_query>
    3d32:	87aa                	mv	a5,a0
    3d34:	fef405a3          	sb	a5,-21(s0)
C:/Users/Accepted/Documents/smart_car/Seekfree_CH32V103R8T6_Opensource_Library/Project/USER/main.c:179
        if (get_status)
    3d38:	feb44783          	lbu	a5,-21(s0)
    3d3c:	c3a5                	beqz	a5,3d9c <main+0x10e>
C:/Users/Accepted/Documents/smart_car/Seekfree_CH32V103R8T6_Opensource_Library/Project/USER/main.c:181
        {
            if (data != 0)
    3d3e:	fea44783          	lbu	a5,-22(s0)
    3d42:	cfa9                	beqz	a5,3d9c <main+0x10e>
C:/Users/Accepted/Documents/smart_car/Seekfree_CH32V103R8T6_Opensource_Library/Project/USER/main.c:183
            {
                if (data == 1)
    3d44:	fea44703          	lbu	a4,-22(s0)
    3d48:	4785                	li	a5,1
    3d4a:	02f71363          	bne	a4,a5,3d70 <main+0xe2>
C:/Users/Accepted/Documents/smart_car/Seekfree_CH32V103R8T6_Opensource_Library/Project/USER/main.c:185
                {
                    if (switch_status == 0)
    3d4e:	fec42783          	lw	a5,-20(s0)
    3d52:	e7a9                	bnez	a5,3d9c <main+0x10e>
C:/Users/Accepted/Documents/smart_car/Seekfree_CH32V103R8T6_Opensource_Library/Project/USER/main.c:187
                    {
                        gpio_set(B12, 1);
    3d54:	4585                	li	a1,1
    3d56:	02c00513          	li	a0,44
    3d5a:	af4fe0ef          	jal	ra,204e <gpio_set>
C:/Users/Accepted/Documents/smart_car/Seekfree_CH32V103R8T6_Opensource_Library/Project/USER/main.c:188
                        switch_status = 1;
    3d5e:	4785                	li	a5,1
    3d60:	fef42623          	sw	a5,-20(s0)
C:/Users/Accepted/Documents/smart_car/Seekfree_CH32V103R8T6_Opensource_Library/Project/USER/main.c:189
                        gpio_set(B5, 0);
    3d64:	4581                	li	a1,0
    3d66:	02500513          	li	a0,37
    3d6a:	ae4fe0ef          	jal	ra,204e <gpio_set>
    3d6e:	a03d                	j	3d9c <main+0x10e>
C:/Users/Accepted/Documents/smart_car/Seekfree_CH32V103R8T6_Opensource_Library/Project/USER/main.c:193
                    }
//                    gpio_toggle(B6);
                }
                else if (data == 2)
    3d70:	fea44703          	lbu	a4,-22(s0)
    3d74:	4789                	li	a5,2
    3d76:	02f71363          	bne	a4,a5,3d9c <main+0x10e>
C:/Users/Accepted/Documents/smart_car/Seekfree_CH32V103R8T6_Opensource_Library/Project/USER/main.c:195
                {
                    if (switch_status == 1)
    3d7a:	fec42703          	lw	a4,-20(s0)
    3d7e:	4785                	li	a5,1
    3d80:	00f71e63          	bne	a4,a5,3d9c <main+0x10e>
C:/Users/Accepted/Documents/smart_car/Seekfree_CH32V103R8T6_Opensource_Library/Project/USER/main.c:197
                    {
                        gpio_set(B12, 0);
    3d84:	4581                	li	a1,0
    3d86:	02c00513          	li	a0,44
    3d8a:	ac4fe0ef          	jal	ra,204e <gpio_set>
C:/Users/Accepted/Documents/smart_car/Seekfree_CH32V103R8T6_Opensource_Library/Project/USER/main.c:198
                        switch_status = 0;
    3d8e:	fe042623          	sw	zero,-20(s0)
C:/Users/Accepted/Documents/smart_car/Seekfree_CH32V103R8T6_Opensource_Library/Project/USER/main.c:199
                        gpio_set(B5, 1);
    3d92:	4585                	li	a1,1
    3d94:	02500513          	li	a0,37
    3d98:	ab6fe0ef          	jal	ra,204e <gpio_set>
C:/Users/Accepted/Documents/smart_car/Seekfree_CH32V103R8T6_Opensource_Library/Project/USER/main.c:206
//                    gpio_toggle(B5);
                }
            }
        }

        if (gpio_get(B3) == 0 && switch_status == 0)
    3d9c:	02300513          	li	a0,35
    3da0:	b2cfe0ef          	jal	ra,20cc <gpio_get>
    3da4:	87aa                	mv	a5,a0
    3da6:	e395                	bnez	a5,3dca <main+0x13c>
C:/Users/Accepted/Documents/smart_car/Seekfree_CH32V103R8T6_Opensource_Library/Project/USER/main.c:206 (discriminator 1)
    3da8:	fec42783          	lw	a5,-20(s0)
    3dac:	ef99                	bnez	a5,3dca <main+0x13c>
C:/Users/Accepted/Documents/smart_car/Seekfree_CH32V103R8T6_Opensource_Library/Project/USER/main.c:209
        {
            // 摁下摁键
            gpio_set(B12, 1);
    3dae:	4585                	li	a1,1
    3db0:	02c00513          	li	a0,44
    3db4:	a9afe0ef          	jal	ra,204e <gpio_set>
C:/Users/Accepted/Documents/smart_car/Seekfree_CH32V103R8T6_Opensource_Library/Project/USER/main.c:210
            switch_status = 1;
    3db8:	4785                	li	a5,1
    3dba:	fef42623          	sw	a5,-20(s0)
C:/Users/Accepted/Documents/smart_car/Seekfree_CH32V103R8T6_Opensource_Library/Project/USER/main.c:211
            gpio_set(B5, 0);
    3dbe:	4581                	li	a1,0
    3dc0:	02500513          	li	a0,37
    3dc4:	a8afe0ef          	jal	ra,204e <gpio_set>
    3dc8:	a805                	j	3df8 <main+0x16a>
C:/Users/Accepted/Documents/smart_car/Seekfree_CH32V103R8T6_Opensource_Library/Project/USER/main.c:213
        }
        else if (gpio_get(B3) == 0 && switch_status == 1)
    3dca:	02300513          	li	a0,35
    3dce:	afefe0ef          	jal	ra,20cc <gpio_get>
    3dd2:	87aa                	mv	a5,a0
    3dd4:	e395                	bnez	a5,3df8 <main+0x16a>
C:/Users/Accepted/Documents/smart_car/Seekfree_CH32V103R8T6_Opensource_Library/Project/USER/main.c:213 (discriminator 1)
    3dd6:	fec42703          	lw	a4,-20(s0)
    3dda:	4785                	li	a5,1
    3ddc:	00f71e63          	bne	a4,a5,3df8 <main+0x16a>
C:/Users/Accepted/Documents/smart_car/Seekfree_CH32V103R8T6_Opensource_Library/Project/USER/main.c:215
        {
            gpio_set(B12, 0);
    3de0:	4581                	li	a1,0
    3de2:	02c00513          	li	a0,44
    3de6:	a68fe0ef          	jal	ra,204e <gpio_set>
C:/Users/Accepted/Documents/smart_car/Seekfree_CH32V103R8T6_Opensource_Library/Project/USER/main.c:216
            switch_status = 0;
    3dea:	fe042623          	sw	zero,-20(s0)
C:/Users/Accepted/Documents/smart_car/Seekfree_CH32V103R8T6_Opensource_Library/Project/USER/main.c:217
            gpio_set(B5, 1);
    3dee:	4585                	li	a1,1
    3df0:	02500513          	li	a0,37
    3df4:	a5afe0ef          	jal	ra,204e <gpio_set>
C:/Users/Accepted/Documents/smart_car/Seekfree_CH32V103R8T6_Opensource_Library/Project/USER/main.c:219
        }
        systick_delay_ms(300);
    3df8:	8281a703          	lw	a4,-2008(gp) # 20000038 <sys_clk>
    3dfc:	6789                	lui	a5,0x2
    3dfe:	f4078793          	addi	a5,a5,-192 # 1f40 <gpio_init+0x96>
    3e02:	02f75733          	divu	a4,a4,a5
    3e06:	12c00793          	li	a5,300
    3e0a:	02f707b3          	mul	a5,a4,a5
    3e0e:	893e                	mv	s2,a5
    3e10:	4981                	li	s3,0
    3e12:	854a                	mv	a0,s2
    3e14:	85ce                	mv	a1,s3
    3e16:	a3dfe0ef          	jal	ra,2852 <systick_delay>
C:/Users/Accepted/Documents/smart_car/Seekfree_CH32V103R8T6_Opensource_Library/Project/USER/main.c:174
    {
    3e1a:	b721                	j	3d22 <main+0x94>

00003e1c <memcpy>:
memcpy():
    3e1c:	00a5c7b3          	xor	a5,a1,a0
    3e20:	8b8d                	andi	a5,a5,3
    3e22:	00c50733          	add	a4,a0,a2
    3e26:	e781                	bnez	a5,3e2e <memcpy+0x12>
    3e28:	478d                	li	a5,3
    3e2a:	00c7ee63          	bltu	a5,a2,3e46 <memcpy+0x2a>
    3e2e:	87aa                	mv	a5,a0
    3e30:	0ae57063          	bgeu	a0,a4,3ed0 <memcpy+0xb4>
    3e34:	0005c683          	lbu	a3,0(a1)
    3e38:	0785                	addi	a5,a5,1
    3e3a:	0585                	addi	a1,a1,1
    3e3c:	fed78fa3          	sb	a3,-1(a5)
    3e40:	fee7eae3          	bltu	a5,a4,3e34 <memcpy+0x18>
    3e44:	8082                	ret
    3e46:	00357693          	andi	a3,a0,3
    3e4a:	87aa                	mv	a5,a0
    3e4c:	ca91                	beqz	a3,3e60 <memcpy+0x44>
    3e4e:	0005c683          	lbu	a3,0(a1)
    3e52:	0785                	addi	a5,a5,1
    3e54:	0585                	addi	a1,a1,1
    3e56:	fed78fa3          	sb	a3,-1(a5)
    3e5a:	0037f693          	andi	a3,a5,3
    3e5e:	b7fd                	j	3e4c <memcpy+0x30>
    3e60:	ffc77693          	andi	a3,a4,-4
    3e64:	fe068613          	addi	a2,a3,-32
    3e68:	06c7f063          	bgeu	a5,a2,3ec8 <memcpy+0xac>
    3e6c:	0005a383          	lw	t2,0(a1)
    3e70:	0045a283          	lw	t0,4(a1)
    3e74:	0085af83          	lw	t6,8(a1)
    3e78:	00c5af03          	lw	t5,12(a1)
    3e7c:	0105ae83          	lw	t4,16(a1)
    3e80:	0145ae03          	lw	t3,20(a1)
    3e84:	0185a303          	lw	t1,24(a1)
    3e88:	01c5a883          	lw	a7,28(a1)
    3e8c:	02458593          	addi	a1,a1,36
    3e90:	0077a023          	sw	t2,0(a5)
    3e94:	ffc5a803          	lw	a6,-4(a1)
    3e98:	0057a223          	sw	t0,4(a5)
    3e9c:	01f7a423          	sw	t6,8(a5)
    3ea0:	01e7a623          	sw	t5,12(a5)
    3ea4:	01d7a823          	sw	t4,16(a5)
    3ea8:	01c7aa23          	sw	t3,20(a5)
    3eac:	0067ac23          	sw	t1,24(a5)
    3eb0:	0117ae23          	sw	a7,28(a5)
    3eb4:	02478793          	addi	a5,a5,36
    3eb8:	ff07ae23          	sw	a6,-4(a5)
    3ebc:	b775                	j	3e68 <memcpy+0x4c>
    3ebe:	4190                	lw	a2,0(a1)
    3ec0:	0791                	addi	a5,a5,4
    3ec2:	0591                	addi	a1,a1,4
    3ec4:	fec7ae23          	sw	a2,-4(a5)
    3ec8:	fed7ebe3          	bltu	a5,a3,3ebe <memcpy+0xa2>
    3ecc:	f6e7e4e3          	bltu	a5,a4,3e34 <memcpy+0x18>
    3ed0:	8082                	ret

00003ed2 <strncmp>:
strncmp():
    3ed2:	c605                	beqz	a2,3efa <strncmp+0x28>
    3ed4:	167d                	addi	a2,a2,-1
    3ed6:	4701                	li	a4,0
    3ed8:	00e507b3          	add	a5,a0,a4
    3edc:	00e586b3          	add	a3,a1,a4
    3ee0:	0007c783          	lbu	a5,0(a5)
    3ee4:	0006c683          	lbu	a3,0(a3)
    3ee8:	00d79663          	bne	a5,a3,3ef4 <strncmp+0x22>
    3eec:	00c70463          	beq	a4,a2,3ef4 <strncmp+0x22>
    3ef0:	0705                	addi	a4,a4,1
    3ef2:	f3fd                	bnez	a5,3ed8 <strncmp+0x6>
    3ef4:	40d78533          	sub	a0,a5,a3
    3ef8:	8082                	ret
    3efa:	4501                	li	a0,0
    3efc:	8082                	ret
    3efe:	0000                	unimp
    3f00:	0a0d4b4f          	fnmadd.d	fs6,fs10,ft0,ft1,rmm
    3f04:	0000                	unimp
    3f06:	0000                	unimp
    3f08:	0a0d                	addi	s4,s4,3
    3f0a:	0000                	unimp
    3f0c:	5441                	li	s0,-16
    3f0e:	003d002b          	0x3d002b
    3f12:	0000                	unimp
    3f14:	5441                	li	s0,-16
    3f16:	2e2e                	fld	ft8,200(sp)
    3f18:	002e                	c.slli	zero,0xb
    3f1a:	0000                	unimp
    3f1c:	5441                	li	s0,-16
    3f1e:	4958452b          	0x4958452b
    3f22:	0054                	addi	a3,sp,4
    3f24:	5441                	li	s0,-16
    3f26:	5345522b          	0x5345522b
    3f2a:	5445                	li	s0,-15
    3f2c:	0000                	unimp
    3f2e:	0000                	unimp
    3f30:	5441                	li	s0,-16
    3f32:	43414d2b          	0x43414d2b
    3f36:	5054003f 4c42004c 	0x4c42004c5054003f
    3f3e:	4d45                	li	s10,17
    3f40:	0045444f          	fnmadd.s	fs0,fa0,ft4,ft0,rmm
    3f44:	5441                	li	s0,-16
    3f46:	454c422b          	0x454c422b
    3f4a:	3f415453          	0x3f415453
    3f4e:	0000                	unimp
    3f50:	414e                	lw	sp,208(sp)
    3f52:	454d                	li	a0,19
    3f54:	0000                	unimp
    3f56:	0000                	unimp
    3f58:	4e50                	lw	a2,28(a2)
    3f5a:	4d41                	li	s10,16
    3f5c:	0045                	c.nop	17
    3f5e:	0000                	unimp
    3f60:	0046464f          	fnmadd.s	fa2,fa2,ft4,ft0,rmm
    3f64:	4150                	lw	a2,4(a0)
    3f66:	004e4553          	fadd.s	fa0,ft8,ft4,rmm
    3f6a:	0000                	unimp
    3f6c:	00004e4f          	fnmadd.s	ft8,ft0,ft0,ft0,rmm
    3f70:	4150                	lw	a2,4(a0)
    3f72:	00005353          	fadd.s	ft6,ft0,ft0,unknown
    3f76:	0000                	unimp
    3f78:	4e4e4f43          	fmadd.q	ft10,ft8,ft4,fs1,rmm
    3f7c:	0000                	unimp
    3f7e:	0000                	unimp
    3f80:	414e4f43          	fmadd.s	ft10,ft8,fs4,fs0,rmm
    3f84:	4444                	lw	s1,12(s0)
    3f86:	0000                	unimp
    3f88:	302c4e4f          	fnmadd.s	ft8,fs8,ft2,ft6,rmm
    3f8c:	0000                	unimp
    3f8e:	0000                	unimp
    3f90:	5352                	lw	t1,52(sp)
    3f92:	00004953          	fadd.s	fs2,ft0,ft0,rmm
    3f96:	0000                	unimp
    3f98:	0030                	addi	a2,sp,8
    3f9a:	0000                	unimp
    3f9c:	552f3a43          	0x552f3a43
    3fa0:	73726573          	csrrsi	a0,0x737,4
    3fa4:	6363412f          	0x6363412f
    3fa8:	7065                	c.lui	zero,0xffff9
    3faa:	6574                	flw	fa3,76(a0)
    3fac:	2f64                	fld	fs1,216(a4)
    3fae:	6f44                	flw	fs1,28(a4)
    3fb0:	656d7563          	bgeu	s10,s6,45fa <_data_lma+0x41e>
    3fb4:	746e                	flw	fs0,248(sp)
    3fb6:	6d732f73          	csrrs	t5,0x6d7,t1
    3fba:	7261                	lui	tp,0xffff8
    3fbc:	5f74                	lw	a3,124(a4)
    3fbe:	2f726163          	bltu	tp,s7,42a0 <_data_lma+0xc4>
    3fc2:	6b656553          	0x6b656553
    3fc6:	7266                	flw	ft4,120(sp)
    3fc8:	6565                	lui	a0,0x19
    3fca:	435f 3348 5632      	0x56323348435f
    3fd0:	3031                	jal	37dc <TIM1_BRK_IRQHandler+0x12>
    3fd2:	54385233          	0x54385233
    3fd6:	5f36                	lw	t5,108(sp)
    3fd8:	6e65704f          	fnmadd.q	ft0,fa0,ft6,fa3
    3fdc:	72756f73          	csrrsi	t5,0x727,10
    3fe0:	4c5f6563          	bltu	t5,t0,44aa <_data_lma+0x2ce>
    3fe4:	6269                	lui	tp,0x1a
    3fe6:	6172                	flw	ft2,28(sp)
    3fe8:	7972                	flw	fs2,60(sp)
    3fea:	62694c2f          	0x62694c2f
    3fee:	6172                	flw	ft2,28(sp)
    3ff0:	6972                	flw	fs2,28(sp)
    3ff2:	7365                	lui	t1,0xffff9
    3ff4:	6565732f          	0x6565732f
    3ff8:	6572666b          	0x6572666b
    3ffc:	5f65                	li	t5,-7
    3ffe:	6570                	flw	fa2,76(a0)
    4000:	6972                	flw	fs2,28(sp)
    4002:	6870                	flw	fa2,84(s0)
    4004:	7265                	lui	tp,0xffff9
    4006:	6c61                	lui	s8,0x18
    4008:	4545532f          	0x4545532f
    400c:	4552464b          	0x4552464b
    4010:	5f45                	li	t5,-15
    4012:	4c42                	lw	s8,16(sp)
    4014:	4555                	li	a0,21
    4016:	4f54                	lw	a3,28(a4)
    4018:	5f48544f          	fnmadd.q	fs0,fa6,fs4,fa1,unknown
    401c:	31394843          	fmadd.s	fa6,fs2,fs3,ft6,rmm
    4020:	3134                	fld	fa3,96(a0)
    4022:	632e                	flw	ft6,200(sp)
    4024:	0000                	unimp
    4026:	0000                	unimp
    4028:	6c62                	flw	fs8,24(sp)
    402a:	0065                	c.nop	25
    402c:	3030                	fld	fa2,96(s0)
    402e:	3030                	fld	fa2,96(s0)
    4030:	3030                	fld	fa2,96(s0)
	...

00004034 <GPION>:
    4034:	0800 4001 0c00 4001 1000 4001 1400 4001     ...@...@...@...@

00004044 <TIMERN>:
    4044:	2c00 4001 0000 4000 0400 4000 0800 4000     .,.@...@...@...@

00004054 <UARTN>:
    4054:	3800 4001 4400 4000 4800 4000 4c00 4000     .8.@.D.@.H.@.L.@

00004064 <MyDevDescr>:
    4064:	0112 0110 0002 4000 1a86 5722 0100 0201     .......@.."W....
    4074:	0103 0000                                   ....

00004078 <MyCfgDescr>:
    4078:	0209 0043 0102 a000 0932 0004 0100 0202     ..C.....2.......
    4088:	0001 2405 1000 0501 0124 0000 2404 0202     ...$....$....$..
    4098:	2405 0006 0701 8105 4003 ff00 0409 0001     .$.......@......
    40a8:	0a02 0000 0700 0205 4002 0000 0507 0282     .........@......
    40b8:	0040 0000                                   @...

000040bc <MyProductIDInfo>:
    40bc:	0314 0032 0030 0031 0037 002d 0032 002d     ..2.0.1.7.-.2.-.
    40cc:	0032 0035                                   2.5.

000040d0 <MyManuInfo>:
    40d0:	030e 0077 0063 0068 002e 0063 006e 0000     ..w.c.h...c.n...

000040e0 <MyProdInfo>:
    40e0:	030c 0043 0048 0031 0030 0078 342a 0000     ..C.H.1.0.x.*4..
    40f0:	34ea 0000 2b86 0000 34ea 0000 34ea 0000     .4...+...4...4..
    4100:	34ea 0000 34ea 0000 34ea 0000 34ea 0000     .4...4...4...4..
    4110:	34ea 0000 34ea 0000 34ea 0000 34ea 0000     .4...4...4...4..
    4120:	34ea 0000 34ea 0000 34ea 0000 34ea 0000     .4...4...4...4..
    4130:	34ea 0000 34ea 0000 34ea 0000 34ea 0000     .4...4...4...4..
    4140:	34ea 0000 34ea 0000 34ea 0000 34ea 0000     .4...4...4...4..
    4150:	34ea 0000 34ea 0000 34ea 0000 34ea 0000     .4...4...4...4..
    4160:	34ea 0000 34ea 0000 34ea 0000 331c 0000     .4...4...4...3..
    4170:	34a8 0000 2c3a 0000 34ea 0000 34ea 0000     .4..:,...4...4..
    4180:	34ea 0000 34ea 0000 34ea 0000 34ea 0000     .4...4...4...4..
    4190:	34ea 0000 34ea 0000 34ea 0000 34ea 0000     .4...4...4...4..
    41a0:	34ea 0000 34ea 0000 34ea 0000 2c80 0000     .4...4...4...,..
    41b0:	3246 0000 2f28 0000 326a 0000 308a 0000     F2..(/..j2...0..
    41c0:	326a 0000 2ec8 0000 2d84 0000 326a 0000     j2.......-..j2..
    41d0:	2eec 0000 2f0a 0000 322c 0000               ...../..,2..
